ARM GAS  C:\Users\ktkuru\AppData\Local\Temp\ccgiQoMH.s 			page 1


   1              		.cpu cortex-m4
   2              		.arch armv7e-m
   3              		.fpu fpv4-sp-d16
   4              		.eabi_attribute 27, 1
   5              		.eabi_attribute 28, 1
   6              		.eabi_attribute 20, 1
   7              		.eabi_attribute 21, 1
   8              		.eabi_attribute 23, 3
   9              		.eabi_attribute 24, 1
  10              		.eabi_attribute 25, 1
  11              		.eabi_attribute 26, 1
  12              		.eabi_attribute 30, 1
  13              		.eabi_attribute 34, 1
  14              		.eabi_attribute 18, 4
  15              		.file	"bsp.c"
  16              		.text
  17              		.section	.text.LED_Init,"ax",%progbits
  18              		.align	1
  19              		.global	LED_Init
  20              		.syntax unified
  21              		.thumb
  22              		.thumb_func
  24              	LED_Init:
  25              		@ args = 0, pretend = 0, frame = 0
  26              		@ frame_needed = 0, uses_anonymous_args = 0
  27              		@ link register save eliminated.
  28 0000 084A     		ldr	r2, .L2
  29 0002 136B     		ldr	r3, [r2, #48]
  30 0004 43F02003 		orr	r3, r3, #32
  31 0008 1363     		str	r3, [r2, #48]
  32 000a 074B     		ldr	r3, .L2+4
  33 000c 1A68     		ldr	r2, [r3]
  34 000e 42F48022 		orr	r2, r2, #262144
  35 0012 1A60     		str	r2, [r3]
  36 0014 DA68     		ldr	r2, [r3, #12]
  37 0016 DA60     		str	r2, [r3, #12]
  38 0018 1A8B     		ldrh	r2, [r3, #24]
  39 001a 92B2     		uxth	r2, r2
  40 001c 42F40072 		orr	r2, r2, #512
  41 0020 1A83     		strh	r2, [r3, #24]	@ movhi
  42 0022 7047     		bx	lr
  43              	.L3:
  44              		.align	2
  45              	.L2:
  46 0024 00380240 		.word	1073887232
  47 0028 00140240 		.word	1073878016
  49              		.section	.text.GPIO_Config,"ax",%progbits
  50              		.align	1
  51              		.global	GPIO_Config
  52              		.syntax unified
  53              		.thumb
  54              		.thumb_func
  56              	GPIO_Config:
  57              		@ args = 0, pretend = 0, frame = 8
  58              		@ frame_needed = 0, uses_anonymous_args = 0
  59 0000 00B5     		push	{lr}
  60 0002 83B0     		sub	sp, sp, #12
ARM GAS  C:\Users\ktkuru\AppData\Local\Temp\ccgiQoMH.s 			page 2


  61 0004 0091     		str	r1, [sp]
  62 0006 8DF80420 		strb	r2, [sp, #4]
  63 000a 8DF80730 		strb	r3, [sp, #7]
  64 000e 0323     		movs	r3, #3
  65 0010 8DF80530 		strb	r3, [sp, #5]
  66 0014 0023     		movs	r3, #0
  67 0016 8DF80630 		strb	r3, [sp, #6]
  68 001a 6946     		mov	r1, sp
  69 001c FFF7FEFF 		bl	GPIO_Init
  70 0020 03B0     		add	sp, sp, #12
  71              		@ sp needed
  72 0022 5DF804FB 		ldr	pc, [sp], #4
  74              		.section	.text.EXIT15_Init,"ax",%progbits
  75              		.align	1
  76              		.global	EXIT15_Init
  77              		.syntax unified
  78              		.thumb
  79              		.thumb_func
  81              	EXIT15_Init:
  82              		@ args = 0, pretend = 0, frame = 16
  83              		@ frame_needed = 0, uses_anonymous_args = 0
  84 0000 70B5     		push	{r4, r5, r6, lr}
  85 0002 84B0     		sub	sp, sp, #16
  86 0004 0121     		movs	r1, #1
  87 0006 4020     		movs	r0, #64
  88 0008 FFF7FEFF 		bl	RCC_AHB1PeriphClockCmd
  89 000c 0121     		movs	r1, #1
  90 000e 4FF48040 		mov	r0, #16384
  91 0012 FFF7FEFF 		bl	RCC_APB2PeriphClockCmd
  92 0016 0F21     		movs	r1, #15
  93 0018 0620     		movs	r0, #6
  94 001a FFF7FEFF 		bl	SYSCFG_EXTILineConfig
  95 001e 4FF40046 		mov	r6, #32768
  96 0022 0296     		str	r6, [sp, #8]
  97 0024 0025     		movs	r5, #0
  98 0026 8DF80C50 		strb	r5, [sp, #12]
  99 002a 0323     		movs	r3, #3
 100 002c 8DF80D30 		strb	r3, [sp, #13]
 101 0030 0124     		movs	r4, #1
 102 0032 8DF80F40 		strb	r4, [sp, #15]
 103 0036 02A9     		add	r1, sp, #8
 104 0038 0748     		ldr	r0, .L8
 105 003a FFF7FEFF 		bl	GPIO_Init
 106 003e 0096     		str	r6, [sp]
 107 0040 8DF80450 		strb	r5, [sp, #4]
 108 0044 0823     		movs	r3, #8
 109 0046 8DF80530 		strb	r3, [sp, #5]
 110 004a 8DF80640 		strb	r4, [sp, #6]
 111 004e 6846     		mov	r0, sp
 112 0050 FFF7FEFF 		bl	EXTI_Init
 113 0054 04B0     		add	sp, sp, #16
 114              		@ sp needed
 115 0056 70BD     		pop	{r4, r5, r6, pc}
 116              	.L9:
 117              		.align	2
 118              	.L8:
 119 0058 00180240 		.word	1073879040
ARM GAS  C:\Users\ktkuru\AppData\Local\Temp\ccgiQoMH.s 			page 3


 121              		.section	.rodata.BSP_Init.str1.4,"aMS",%progbits,1
 122              		.align	2
 123              	.LC0:
 124 0000 70657269 		.ascii	"peripheral init start......\000"
 124      70686572 
 124      616C2069 
 124      6E697420 
 124      73746172 
 125              		.align	2
 126              	.LC1:
 127 001c 2D3E4465 		.ascii	"->Delay Init done\000"
 127      6C617920 
 127      496E6974 
 127      20646F6E 
 127      6500
 128 002e 0000     		.align	2
 129              	.LC2:
 130 0030 2D3E4E56 		.ascii	"->NVIC Init  done\000"
 130      49432049 
 130      6E697420 
 130      20646F6E 
 130      6500
 131 0042 0000     		.align	2
 132              	.LC3:
 133 0044 2D3E4C45 		.ascii	"->LED Init  done\000"
 133      4420496E 
 133      69742020 
 133      646F6E65 
 133      00
 134 0055 000000   		.align	2
 135              	.LC4:
 136 0058 2D3E4D6F 		.ascii	"->Motor Init  done\000"
 136      746F7220 
 136      496E6974 
 136      2020646F 
 136      6E6500
 137 006b 00       		.align	2
 138              	.LC5:
 139 006c 2D3E4F4C 		.ascii	"->OLED Init done\000"
 139      45442049 
 139      6E697420 
 139      646F6E65 
 139      00
 140 007d 000000   		.align	2
 141              	.LC6:
 142 0080 2D3E4750 		.ascii	"->GPIOF Init done\000"
 142      494F4620 
 142      496E6974 
 142      20646F6E 
 142      6500
 143 0092 0000     		.align	2
 144              	.LC7:
 145 0094 2A2A2A2A 		.ascii	"****MPU6050 init failed return:%d\012\000"
 145      4D505536 
 145      30353020 
 145      696E6974 
 145      20666169 
ARM GAS  C:\Users\ktkuru\AppData\Local\Temp\ccgiQoMH.s 			page 4


 146 00b7 00       		.align	2
 147              	.LC8:
 148 00b8 2D3E4D50 		.ascii	"->MPU6050 init success\000"
 148      55363035 
 148      3020696E 
 148      69742073 
 148      75636365 
 149 00cf 00       		.align	2
 150              	.LC9:
 151 00d0 2A2A2A2A 		.ascii	"**************MPU6050 DMP init failed******>>Reset "
 151      2A2A2A2A 
 151      2A2A2A2A 
 151      2A2A4D50 
 151      55363035 
 152 0103 616E6420 		.ascii	"and Retry or Cheak\000"
 152      52657472 
 152      79206F72 
 152      20436865 
 152      616B00
 153 0116 0000     		.align	2
 154              	.LC10:
 155 0118 2D3E4D50 		.ascii	"->MPU6050 DMP init success\000"
 155      55363035 
 155      3020444D 
 155      5020696E 
 155      69742073 
 156 0133 00       		.align	2
 157              	.LC11:
 158 0134 2D3E4554 		.ascii	"->ETIT15 Init done\000"
 158      49543135 
 158      20496E69 
 158      7420646F 
 158      6E6500
 159              		.section	.text.BSP_Init,"ax",%progbits
 160              		.align	1
 161              		.global	BSP_Init
 162              		.syntax unified
 163              		.thumb
 164              		.thumb_func
 166              	BSP_Init:
 167              		@ args = 0, pretend = 0, frame = 0
 168              		@ frame_needed = 0, uses_anonymous_args = 0
 169 0000 08B5     		push	{r3, lr}
 170 0002 4FF4E130 		mov	r0, #115200
 171 0006 FFF7FEFF 		bl	usart1_init
 172 000a 4FF41650 		mov	r0, #9600
 173 000e FFF7FEFF 		bl	usart2_init
 174 0012 2448     		ldr	r0, .L17
 175 0014 FFF7FEFF 		bl	puts
 176 0018 5420     		movs	r0, #84
 177 001a FFF7FEFF 		bl	delay_init
 178 001e 2248     		ldr	r0, .L17+4
 179 0020 FFF7FEFF 		bl	puts
 180 0024 FFF7FEFF 		bl	BSP_NVIC_IT_Config
 181 0028 2048     		ldr	r0, .L17+8
 182 002a FFF7FEFF 		bl	puts
 183 002e FFF7FEFF 		bl	LED_Init
ARM GAS  C:\Users\ktkuru\AppData\Local\Temp\ccgiQoMH.s 			page 5


 184 0032 1F48     		ldr	r0, .L17+12
 185 0034 FFF7FEFF 		bl	puts
 186 0038 FFF7FEFF 		bl	Motor_PWM_TIM8_Init
 187 003c 1D48     		ldr	r0, .L17+16
 188 003e FFF7FEFF 		bl	puts
 189 0042 FFF7FEFF 		bl	OLED_Init
 190 0046 1C48     		ldr	r0, .L17+20
 191 0048 FFF7FEFF 		bl	puts
 192 004c 0023     		movs	r3, #0
 193 004e 0122     		movs	r2, #1
 194 0050 FF21     		movs	r1, #255
 195 0052 1A48     		ldr	r0, .L17+24
 196 0054 FFF7FEFF 		bl	GPIO_Config
 197 0058 1948     		ldr	r0, .L17+28
 198 005a FFF7FEFF 		bl	puts
 199 005e 1420     		movs	r0, #20
 200 0060 FFF7FEFF 		bl	delay_ms
 201 0064 FFF7FEFF 		bl	MPU_Init
 202 0068 78B9     		cbnz	r0, .L15
 203 006a 1648     		ldr	r0, .L17+32
 204 006c FFF7FEFF 		bl	puts
 205 0070 FFF7FEFF 		bl	mpu_dmp_init
 206 0074 88B9     		cbnz	r0, .L16
 207 0076 1448     		ldr	r0, .L17+36
 208 0078 FFF7FEFF 		bl	puts
 209 007c FFF7FEFF 		bl	EXIT15_Init
 210 0080 1248     		ldr	r0, .L17+40
 211 0082 FFF7FEFF 		bl	puts
 212 0086 0020     		movs	r0, #0
 213              	.L10:
 214 0088 08BD     		pop	{r3, pc}
 215              	.L15:
 216 008a FFF7FEFF 		bl	MPU_Init
 217 008e 0146     		mov	r1, r0
 218 0090 0F48     		ldr	r0, .L17+44
 219 0092 FFF7FEFF 		bl	printf
 220 0096 0120     		movs	r0, #1
 221 0098 F6E7     		b	.L10
 222              	.L16:
 223 009a 0E48     		ldr	r0, .L17+48
 224 009c FFF7FEFF 		bl	puts
 225 00a0 0220     		movs	r0, #2
 226 00a2 F1E7     		b	.L10
 227              	.L18:
 228              		.align	2
 229              	.L17:
 230 00a4 00000000 		.word	.LC0
 231 00a8 1C000000 		.word	.LC1
 232 00ac 30000000 		.word	.LC2
 233 00b0 44000000 		.word	.LC3
 234 00b4 58000000 		.word	.LC4
 235 00b8 6C000000 		.word	.LC5
 236 00bc 00140240 		.word	1073878016
 237 00c0 80000000 		.word	.LC6
 238 00c4 B8000000 		.word	.LC8
 239 00c8 18010000 		.word	.LC10
 240 00cc 34010000 		.word	.LC11
ARM GAS  C:\Users\ktkuru\AppData\Local\Temp\ccgiQoMH.s 			page 6


 241 00d0 94000000 		.word	.LC7
 242 00d4 D0000000 		.word	.LC9
 244              		.section	.text.TIM2_Init,"ax",%progbits
 245              		.align	1
 246              		.global	TIM2_Init
 247              		.syntax unified
 248              		.thumb
 249              		.thumb_func
 251              	TIM2_Init:
 252              		@ args = 0, pretend = 0, frame = 16
 253              		@ frame_needed = 0, uses_anonymous_args = 0
 254 0000 10B5     		push	{r4, lr}
 255 0002 84B0     		sub	sp, sp, #16
 256 0004 0446     		mov	r4, r0
 257 0006 0121     		movs	r1, #1
 258 0008 0846     		mov	r0, r1
 259 000a FFF7FEFF 		bl	RCC_APB1PeriphClockCmd
 260 000e 4FF47A73 		mov	r3, #1000
 261 0012 03FB04F4 		mul	r4, r3, r4
 262 0016 013C     		subs	r4, r4, #1
 263 0018 0294     		str	r4, [sp, #8]
 264 001a 5323     		movs	r3, #83
 265 001c ADF80430 		strh	r3, [sp, #4]	@ movhi
 266 0020 0023     		movs	r3, #0
 267 0022 ADF80C30 		strh	r3, [sp, #12]	@ movhi
 268 0026 ADF80630 		strh	r3, [sp, #6]	@ movhi
 269 002a 01A9     		add	r1, sp, #4
 270 002c 4FF08040 		mov	r0, #1073741824
 271 0030 FFF7FEFF 		bl	TIM_TimeBaseInit
 272 0034 0122     		movs	r2, #1
 273 0036 1146     		mov	r1, r2
 274 0038 4FF08040 		mov	r0, #1073741824
 275 003c FFF7FEFF 		bl	TIM_ITConfig
 276 0040 0121     		movs	r1, #1
 277 0042 4FF08040 		mov	r0, #1073741824
 278 0046 FFF7FEFF 		bl	TIM_Cmd
 279 004a 04B0     		add	sp, sp, #16
 280              		@ sp needed
 281 004c 10BD     		pop	{r4, pc}
 283              		.section	.text.ADC_Config,"ax",%progbits
 284              		.align	1
 285              		.global	ADC_Config
 286              		.syntax unified
 287              		.thumb
 288              		.thumb_func
 290              	ADC_Config:
 291              		@ args = 0, pretend = 0, frame = 56
 292              		@ frame_needed = 0, uses_anonymous_args = 0
 293 0000 70B5     		push	{r4, r5, r6, lr}
 294 0002 8EB0     		sub	sp, sp, #56
 295 0004 0121     		movs	r1, #1
 296 0006 4FF48070 		mov	r0, #256
 297 000a FFF7FEFF 		bl	RCC_APB2PeriphClockCmd
 298 000e 0121     		movs	r1, #1
 299 0010 0846     		mov	r0, r1
 300 0012 FFF7FEFF 		bl	RCC_AHB1PeriphClockCmd
 301 0016 0223     		movs	r3, #2
ARM GAS  C:\Users\ktkuru\AppData\Local\Temp\ccgiQoMH.s 			page 7


 302 0018 0293     		str	r3, [sp, #8]
 303 001a 0323     		movs	r3, #3
 304 001c 8DF80C30 		strb	r3, [sp, #12]
 305 0020 0025     		movs	r5, #0
 306 0022 8DF80F50 		strb	r5, [sp, #15]
 307 0026 02A9     		add	r1, sp, #8
 308 0028 1D48     		ldr	r0, .L23
 309 002a FFF7FEFF 		bl	GPIO_Init
 310 002e 0895     		str	r5, [sp, #32]
 311 0030 8DF82450 		strb	r5, [sp, #36]
 312 0034 0124     		movs	r4, #1
 313 0036 8DF82540 		strb	r4, [sp, #37]
 314 003a 0A95     		str	r5, [sp, #40]
 315 003c 0C95     		str	r5, [sp, #48]
 316 003e 8DF83440 		strb	r4, [sp, #52]
 317 0042 184E     		ldr	r6, .L23+4
 318 0044 08A9     		add	r1, sp, #32
 319 0046 3046     		mov	r0, r6
 320 0048 FFF7FEFF 		bl	ADC_Init
 321 004c 0723     		movs	r3, #7
 322 004e 2246     		mov	r2, r4
 323 0050 2146     		mov	r1, r4
 324 0052 3046     		mov	r0, r6
 325 0054 FFF7FEFF 		bl	ADC_RegularChannelConfig
 326 0058 0495     		str	r5, [sp, #16]
 327 005a 4FF48033 		mov	r3, #65536
 328 005e 0593     		str	r3, [sp, #20]
 329 0060 0695     		str	r5, [sp, #24]
 330 0062 0795     		str	r5, [sp, #28]
 331 0064 04A8     		add	r0, sp, #16
 332 0066 FFF7FEFF 		bl	ADC_CommonInit
 333 006a 2146     		mov	r1, r4
 334 006c 3046     		mov	r0, r6
 335 006e FFF7FEFF 		bl	ADC_Cmd
 336 0072 3046     		mov	r0, r6
 337 0074 FFF7FEFF 		bl	ADC_SoftwareStartConv
 338 0078 2246     		mov	r2, r4
 339 007a 40F20521 		movw	r1, #517
 340 007e 3046     		mov	r0, r6
 341 0080 FFF7FEFF 		bl	ADC_ITConfig
 342 0084 1223     		movs	r3, #18
 343 0086 8DF80430 		strb	r3, [sp, #4]
 344 008a 8DF80540 		strb	r4, [sp, #5]
 345 008e 8DF80640 		strb	r4, [sp, #6]
 346 0092 8DF80740 		strb	r4, [sp, #7]
 347 0096 01A8     		add	r0, sp, #4
 348 0098 FFF7FEFF 		bl	NVIC_Init
 349 009c 0EB0     		add	sp, sp, #56
 350              		@ sp needed
 351 009e 70BD     		pop	{r4, r5, r6, pc}
 352              	.L24:
 353              		.align	2
 354              	.L23:
 355 00a0 00000240 		.word	1073872896
 356 00a4 00200140 		.word	1073815552
 358              		.global	__aeabi_f2d
 359              		.global	__aeabi_ddiv
ARM GAS  C:\Users\ktkuru\AppData\Local\Temp\ccgiQoMH.s 			page 8


 360              		.global	__aeabi_dmul
 361              		.global	__aeabi_d2uiz
 362              		.section	.text.ADCvalue_convert,"ax",%progbits
 363              		.align	1
 364              		.global	ADCvalue_convert
 365              		.syntax unified
 366              		.thumb
 367              		.thumb_func
 369              	ADCvalue_convert:
 370              		@ args = 0, pretend = 0, frame = 0
 371              		@ frame_needed = 0, uses_anonymous_args = 0
 372 0000 08B5     		push	{r3, lr}
 373 0002 07EE900A 		vmov	s15, r0	@ int
 374 0006 F8EE677A 		vcvt.f32.u32	s15, s15
 375 000a 17EE900A 		vmov	r0, s15
 376 000e FFF7FEFF 		bl	__aeabi_f2d
 377 0012 08A3     		adr	r3, .L27+4
 378 0014 D3E90023 		ldrd	r2, [r3]
 379 0018 FFF7FEFF 		bl	__aeabi_ddiv
 380 001c 0022     		movs	r2, #0
 381 001e 044B     		ldr	r3, .L27
 382 0020 FFF7FEFF 		bl	__aeabi_dmul
 383 0024 FFF7FEFF 		bl	__aeabi_d2uiz
 384 0028 80B2     		uxth	r0, r0
 385 002a 08BD     		pop	{r3, pc}
 386              	.L28:
 387 002c AFF30080 		.align	3
 388              	.L27:
 389 0030 00807640 		.word	1081507840
 390 0034 00000000 		.word	0
 391 0038 004EA840 		.word	1084771840
 393              		.section	.rodata.ADC_IRQHandler.str1.4,"aMS",%progbits,1
 394              		.align	2
 395              	.LC12:
 396 0000 41444320 		.ascii	"ADC value: %d\012\000"
 396      76616C75 
 396      653A2025 
 396      640A00
 397              		.section	.text.ADC_IRQHandler,"ax",%progbits
 398              		.align	1
 399              		.global	ADC_IRQHandler
 400              		.syntax unified
 401              		.thumb
 402              		.thumb_func
 404              	ADC_IRQHandler:
 405              		@ args = 0, pretend = 0, frame = 0
 406              		@ frame_needed = 0, uses_anonymous_args = 0
 407 0000 10B5     		push	{r4, lr}
 408 0002 40F20521 		movw	r1, #517
 409 0006 0D48     		ldr	r0, .L33
 410 0008 FFF7FEFF 		bl	ADC_GetITStatus
 411 000c 00B9     		cbnz	r0, .L32
 412              	.L29:
 413 000e 10BD     		pop	{r4, pc}
 414              	.L32:
 415 0010 0A4C     		ldr	r4, .L33
 416 0012 40F20521 		movw	r1, #517
ARM GAS  C:\Users\ktkuru\AppData\Local\Temp\ccgiQoMH.s 			page 9


 417 0016 2046     		mov	r0, r4
 418 0018 FFF7FEFF 		bl	ADC_ClearITPendingBit
 419 001c 2046     		mov	r0, r4
 420 001e FFF7FEFF 		bl	ADC_GetConversionValue
 421 0022 074B     		ldr	r3, .L33+4
 422 0024 1880     		strh	r0, [r3]	@ movhi
 423 0026 074B     		ldr	r3, .L33+8
 424 0028 4FF46162 		mov	r2, #3600
 425 002c 5A63     		str	r2, [r3, #52]
 426 002e FFF7FEFF 		bl	ADCvalue_convert
 427 0032 0146     		mov	r1, r0
 428 0034 0448     		ldr	r0, .L33+12
 429 0036 FFF7FEFF 		bl	printf
 430 003a E8E7     		b	.L29
 431              	.L34:
 432              		.align	2
 433              	.L33:
 434 003c 00200140 		.word	1073815552
 435 0040 00000000 		.word	adcValue.0
 436 0044 00000140 		.word	1073807360
 437 0048 00000000 		.word	.LC12
 439              		.section	.text.function_goto,"ax",%progbits
 440              		.align	1
 441              		.global	function_goto
 442              		.syntax unified
 443              		.thumb
 444              		.thumb_func
 446              	function_goto:
 447              		@ args = 0, pretend = 0, frame = 0
 448              		@ frame_needed = 0, uses_anonymous_args = 0
 449              		@ link register save eliminated.
 450              		.syntax unified
 451              	@ 246 "HARDWARE/BSP/bsp.c" 1
 452 0000 0046     		mov r0,r0 
 453 0002 0047     		bx r0     
 454              		
 455              	@ 0 "" 2
 456              		.thumb
 457              		.syntax unified
 458 0004 7047     		bx	lr
 460              		.section	.bss.adcValue.0,"aw",%nobits
 461              		.align	1
 464              	adcValue.0:
 465 0000 0000     		.space	2
 466              		.ident	"GCC: (Arm GNU Toolchain 13.3.Rel1 (Build arm-13.24)) 13.3.1 20240614"
ARM GAS  C:\Users\ktkuru\AppData\Local\Temp\ccgiQoMH.s 			page 10


DEFINED SYMBOLS
                            *ABS*:00000000 bsp.c
C:\Users\ktkuru\AppData\Local\Temp\ccgiQoMH.s:18     .text.LED_Init:00000000 $t
C:\Users\ktkuru\AppData\Local\Temp\ccgiQoMH.s:24     .text.LED_Init:00000000 LED_Init
C:\Users\ktkuru\AppData\Local\Temp\ccgiQoMH.s:46     .text.LED_Init:00000024 $d
C:\Users\ktkuru\AppData\Local\Temp\ccgiQoMH.s:50     .text.GPIO_Config:00000000 $t
C:\Users\ktkuru\AppData\Local\Temp\ccgiQoMH.s:56     .text.GPIO_Config:00000000 GPIO_Config
C:\Users\ktkuru\AppData\Local\Temp\ccgiQoMH.s:75     .text.EXIT15_Init:00000000 $t
C:\Users\ktkuru\AppData\Local\Temp\ccgiQoMH.s:81     .text.EXIT15_Init:00000000 EXIT15_Init
C:\Users\ktkuru\AppData\Local\Temp\ccgiQoMH.s:119    .text.EXIT15_Init:00000058 $d
C:\Users\ktkuru\AppData\Local\Temp\ccgiQoMH.s:122    .rodata.BSP_Init.str1.4:00000000 $d
C:\Users\ktkuru\AppData\Local\Temp\ccgiQoMH.s:160    .text.BSP_Init:00000000 $t
C:\Users\ktkuru\AppData\Local\Temp\ccgiQoMH.s:166    .text.BSP_Init:00000000 BSP_Init
C:\Users\ktkuru\AppData\Local\Temp\ccgiQoMH.s:230    .text.BSP_Init:000000a4 $d
C:\Users\ktkuru\AppData\Local\Temp\ccgiQoMH.s:245    .text.TIM2_Init:00000000 $t
C:\Users\ktkuru\AppData\Local\Temp\ccgiQoMH.s:251    .text.TIM2_Init:00000000 TIM2_Init
C:\Users\ktkuru\AppData\Local\Temp\ccgiQoMH.s:284    .text.ADC_Config:00000000 $t
C:\Users\ktkuru\AppData\Local\Temp\ccgiQoMH.s:290    .text.ADC_Config:00000000 ADC_Config
C:\Users\ktkuru\AppData\Local\Temp\ccgiQoMH.s:355    .text.ADC_Config:000000a0 $d
C:\Users\ktkuru\AppData\Local\Temp\ccgiQoMH.s:363    .text.ADCvalue_convert:00000000 $t
C:\Users\ktkuru\AppData\Local\Temp\ccgiQoMH.s:369    .text.ADCvalue_convert:00000000 ADCvalue_convert
C:\Users\ktkuru\AppData\Local\Temp\ccgiQoMH.s:389    .text.ADCvalue_convert:00000030 $d
C:\Users\ktkuru\AppData\Local\Temp\ccgiQoMH.s:394    .rodata.ADC_IRQHandler.str1.4:00000000 $d
C:\Users\ktkuru\AppData\Local\Temp\ccgiQoMH.s:398    .text.ADC_IRQHandler:00000000 $t
C:\Users\ktkuru\AppData\Local\Temp\ccgiQoMH.s:404    .text.ADC_IRQHandler:00000000 ADC_IRQHandler
C:\Users\ktkuru\AppData\Local\Temp\ccgiQoMH.s:434    .text.ADC_IRQHandler:0000003c $d
C:\Users\ktkuru\AppData\Local\Temp\ccgiQoMH.s:464    .bss.adcValue.0:00000000 adcValue.0
C:\Users\ktkuru\AppData\Local\Temp\ccgiQoMH.s:440    .text.function_goto:00000000 $t
C:\Users\ktkuru\AppData\Local\Temp\ccgiQoMH.s:446    .text.function_goto:00000000 function_goto
C:\Users\ktkuru\AppData\Local\Temp\ccgiQoMH.s:461    .bss.adcValue.0:00000000 $d

UNDEFINED SYMBOLS
GPIO_Init
RCC_AHB1PeriphClockCmd
RCC_APB2PeriphClockCmd
SYSCFG_EXTILineConfig
EXTI_Init
usart1_init
usart2_init
puts
delay_init
BSP_NVIC_IT_Config
Motor_PWM_TIM8_Init
OLED_Init
delay_ms
MPU_Init
mpu_dmp_init
printf
RCC_APB1PeriphClockCmd
TIM_TimeBaseInit
TIM_ITConfig
TIM_Cmd
ADC_Init
ADC_RegularChannelConfig
ADC_CommonInit
ADC_Cmd
ADC_SoftwareStartConv
ARM GAS  C:\Users\ktkuru\AppData\Local\Temp\ccgiQoMH.s 			page 11


ADC_ITConfig
NVIC_Init
__aeabi_f2d
__aeabi_ddiv
__aeabi_dmul
__aeabi_d2uiz
ADC_GetITStatus
ADC_ClearITPendingBit
ADC_GetConversionValue
