ARM GAS  C:\Users\ktkuru\AppData\Local\Temp\ccFsEoyc.s 			page 1


   1              		.cpu cortex-m4
   2              		.arch armv7e-m
   3              		.fpu fpv4-sp-d16
   4              		.eabi_attribute 27, 1
   5              		.eabi_attribute 28, 1
   6              		.eabi_attribute 20, 1
   7              		.eabi_attribute 21, 1
   8              		.eabi_attribute 23, 3
   9              		.eabi_attribute 24, 1
  10              		.eabi_attribute 25, 1
  11              		.eabi_attribute 26, 1
  12              		.eabi_attribute 30, 1
  13              		.eabi_attribute 34, 1
  14              		.eabi_attribute 18, 4
  15              		.file	"bsp.c"
  16              		.text
  17              		.section	.text.LED_Init,"ax",%progbits
  18              		.align	1
  19              		.global	LED_Init
  20              		.syntax unified
  21              		.thumb
  22              		.thumb_func
  24              	LED_Init:
  25              		@ args = 0, pretend = 0, frame = 0
  26              		@ frame_needed = 0, uses_anonymous_args = 0
  27              		@ link register save eliminated.
  28 0000 084A     		ldr	r2, .L2
  29 0002 136B     		ldr	r3, [r2, #48]
  30 0004 43F02003 		orr	r3, r3, #32
  31 0008 1363     		str	r3, [r2, #48]
  32 000a 074B     		ldr	r3, .L2+4
  33 000c 1A68     		ldr	r2, [r3]
  34 000e 42F48022 		orr	r2, r2, #262144
  35 0012 1A60     		str	r2, [r3]
  36 0014 DA68     		ldr	r2, [r3, #12]
  37 0016 DA60     		str	r2, [r3, #12]
  38 0018 1A8B     		ldrh	r2, [r3, #24]
  39 001a 92B2     		uxth	r2, r2
  40 001c 42F40072 		orr	r2, r2, #512
  41 0020 1A83     		strh	r2, [r3, #24]	@ movhi
  42 0022 7047     		bx	lr
  43              	.L3:
  44              		.align	2
  45              	.L2:
  46 0024 00380240 		.word	1073887232
  47 0028 00140240 		.word	1073878016
  49              		.section	.text.GPIO_Config,"ax",%progbits
  50              		.align	1
  51              		.global	GPIO_Config
  52              		.syntax unified
  53              		.thumb
  54              		.thumb_func
  56              	GPIO_Config:
  57              		@ args = 0, pretend = 0, frame = 8
  58              		@ frame_needed = 0, uses_anonymous_args = 0
  59 0000 00B5     		push	{lr}
  60 0002 83B0     		sub	sp, sp, #12
ARM GAS  C:\Users\ktkuru\AppData\Local\Temp\ccFsEoyc.s 			page 2


  61 0004 0091     		str	r1, [sp]
  62 0006 8DF80420 		strb	r2, [sp, #4]
  63 000a 8DF80730 		strb	r3, [sp, #7]
  64 000e 0323     		movs	r3, #3
  65 0010 8DF80530 		strb	r3, [sp, #5]
  66 0014 0023     		movs	r3, #0
  67 0016 8DF80630 		strb	r3, [sp, #6]
  68 001a 6946     		mov	r1, sp
  69 001c FFF7FEFF 		bl	GPIO_Init
  70 0020 03B0     		add	sp, sp, #12
  71              		@ sp needed
  72 0022 5DF804FB 		ldr	pc, [sp], #4
  74              		.section	.text.EXIT15_Init,"ax",%progbits
  75              		.align	1
  76              		.global	EXIT15_Init
  77              		.syntax unified
  78              		.thumb
  79              		.thumb_func
  81              	EXIT15_Init:
  82              		@ args = 0, pretend = 0, frame = 16
  83              		@ frame_needed = 0, uses_anonymous_args = 0
  84 0000 70B5     		push	{r4, r5, r6, lr}
  85 0002 84B0     		sub	sp, sp, #16
  86 0004 0121     		movs	r1, #1
  87 0006 4020     		movs	r0, #64
  88 0008 FFF7FEFF 		bl	RCC_AHB1PeriphClockCmd
  89 000c 0121     		movs	r1, #1
  90 000e 4FF48040 		mov	r0, #16384
  91 0012 FFF7FEFF 		bl	RCC_APB2PeriphClockCmd
  92 0016 0F21     		movs	r1, #15
  93 0018 0620     		movs	r0, #6
  94 001a FFF7FEFF 		bl	SYSCFG_EXTILineConfig
  95 001e 4FF40046 		mov	r6, #32768
  96 0022 0296     		str	r6, [sp, #8]
  97 0024 0025     		movs	r5, #0
  98 0026 8DF80C50 		strb	r5, [sp, #12]
  99 002a 0323     		movs	r3, #3
 100 002c 8DF80D30 		strb	r3, [sp, #13]
 101 0030 0124     		movs	r4, #1
 102 0032 8DF80F40 		strb	r4, [sp, #15]
 103 0036 02A9     		add	r1, sp, #8
 104 0038 0748     		ldr	r0, .L8
 105 003a FFF7FEFF 		bl	GPIO_Init
 106 003e 0096     		str	r6, [sp]
 107 0040 8DF80450 		strb	r5, [sp, #4]
 108 0044 0823     		movs	r3, #8
 109 0046 8DF80530 		strb	r3, [sp, #5]
 110 004a 8DF80640 		strb	r4, [sp, #6]
 111 004e 6846     		mov	r0, sp
 112 0050 FFF7FEFF 		bl	EXTI_Init
 113 0054 04B0     		add	sp, sp, #16
 114              		@ sp needed
 115 0056 70BD     		pop	{r4, r5, r6, pc}
 116              	.L9:
 117              		.align	2
 118              	.L8:
 119 0058 00180240 		.word	1073879040
ARM GAS  C:\Users\ktkuru\AppData\Local\Temp\ccFsEoyc.s 			page 3


 121              		.section	.text.TIM2_Init,"ax",%progbits
 122              		.align	1
 123              		.global	TIM2_Init
 124              		.syntax unified
 125              		.thumb
 126              		.thumb_func
 128              	TIM2_Init:
 129              		@ args = 0, pretend = 0, frame = 16
 130              		@ frame_needed = 0, uses_anonymous_args = 0
 131 0000 10B5     		push	{r4, lr}
 132 0002 84B0     		sub	sp, sp, #16
 133 0004 0446     		mov	r4, r0
 134 0006 0121     		movs	r1, #1
 135 0008 0846     		mov	r0, r1
 136 000a FFF7FEFF 		bl	RCC_APB1PeriphClockCmd
 137 000e 4FF47A73 		mov	r3, #1000
 138 0012 03FB04F4 		mul	r4, r3, r4
 139 0016 013C     		subs	r4, r4, #1
 140 0018 0294     		str	r4, [sp, #8]
 141 001a 5323     		movs	r3, #83
 142 001c ADF80430 		strh	r3, [sp, #4]	@ movhi
 143 0020 0024     		movs	r4, #0
 144 0022 ADF80C40 		strh	r4, [sp, #12]	@ movhi
 145 0026 ADF80640 		strh	r4, [sp, #6]	@ movhi
 146 002a 01A9     		add	r1, sp, #4
 147 002c 4FF08040 		mov	r0, #1073741824
 148 0030 FFF7FEFF 		bl	TIM_TimeBaseInit
 149 0034 0122     		movs	r2, #1
 150 0036 1146     		mov	r1, r2
 151 0038 4FF08040 		mov	r0, #1073741824
 152 003c FFF7FEFF 		bl	TIM_ITConfig
 153 0040 2146     		mov	r1, r4
 154 0042 4FF08040 		mov	r0, #1073741824
 155 0046 FFF7FEFF 		bl	TIM_Cmd
 156 004a 04B0     		add	sp, sp, #16
 157              		@ sp needed
 158 004c 10BD     		pop	{r4, pc}
 160              		.section	.rodata.BSP_Init.str1.4,"aMS",%progbits,1
 161              		.align	2
 162              	.LC0:
 163 0000 70657269 		.ascii	"peripheral init start......\000"
 163      70686572 
 163      616C2069 
 163      6E697420 
 163      73746172 
 164              		.align	2
 165              	.LC1:
 166 001c 2D3E4465 		.ascii	"->Delay Init done\000"
 166      6C617920 
 166      496E6974 
 166      20646F6E 
 166      6500
 167 002e 0000     		.align	2
 168              	.LC2:
 169 0030 2D3E484D 		.ascii	"->HMI Init done\000"
 169      4920496E 
 169      69742064 
ARM GAS  C:\Users\ktkuru\AppData\Local\Temp\ccFsEoyc.s 			page 4


 169      6F6E6500 
 170              		.align	2
 171              	.LC3:
 172 0040 2D3E4E56 		.ascii	"->NVIC Init  done\000"
 172      49432049 
 172      6E697420 
 172      20646F6E 
 172      6500
 173 0052 0000     		.align	2
 174              	.LC4:
 175 0054 2D3E4C45 		.ascii	"->LED Init  done\000"
 175      4420496E 
 175      69742020 
 175      646F6E65 
 175      00
 176 0065 000000   		.align	2
 177              	.LC5:
 178 0068 2D3E4D6F 		.ascii	"->Motor Init  done\000"
 178      746F7220 
 178      496E6974 
 178      2020646F 
 178      6E6500
 179 007b 00       		.align	2
 180              	.LC6:
 181 007c 77696174 		.ascii	"wiat for init\000"
 181      20666F72 
 181      20696E69 
 181      7400
 182 008a 0000     		.align	2
 183              	.LC7:
 184 008c 2D3E4F4C 		.ascii	"->OLED Init done\000"
 184      45442049 
 184      6E697420 
 184      646F6E65 
 184      00
 185 009d 000000   		.align	2
 186              	.LC8:
 187 00a0 2D3E4750 		.ascii	"->GPIOF Init done\000"
 187      494F4620 
 187      496E6974 
 187      20646F6E 
 187      6500
 188 00b2 0000     		.align	2
 189              	.LC9:
 190 00b4 2A2A2A2A 		.ascii	"****MPU6050 init failed return:%d\012\000"
 190      4D505536 
 190      30353020 
 190      696E6974 
 190      20666169 
 191 00d7 00       		.align	2
 192              	.LC10:
 193 00d8 2D3E4D50 		.ascii	"->MPU6050 init success\000"
 193      55363035 
 193      3020696E 
 193      69742073 
 193      75636365 
 194 00ef 00       		.align	2
ARM GAS  C:\Users\ktkuru\AppData\Local\Temp\ccFsEoyc.s 			page 5


 195              	.LC11:
 196 00f0 2A2A2A2A 		.ascii	"**************MPU6050 DMP init failed******>>Reset "
 196      2A2A2A2A 
 196      2A2A2A2A 
 196      2A2A4D50 
 196      55363035 
 197 0123 616E6420 		.ascii	"and Retry or Cheak\000"
 197      52657472 
 197      79206F72 
 197      20436865 
 197      616B00
 198 0136 0000     		.align	2
 199              	.LC12:
 200 0138 2D3E4D50 		.ascii	"->MPU6050 DMP init success\000"
 200      55363035 
 200      3020444D 
 200      5020696E 
 200      69742073 
 201 0153 00       		.align	2
 202              	.LC13:
 203 0154 2D3E4554 		.ascii	"->ETIT15 Init done\000"
 203      49543135 
 203      20496E69 
 203      7420646F 
 203      6E6500
 204 0167 00       		.align	2
 205              	.LC14:
 206 0168 2D3E5449 		.ascii	"->TIM2 Init done\000"
 206      4D322049 
 206      6E697420 
 206      646F6E65 
 206      00
 207              		.section	.text.BSP_Init,"ax",%progbits
 208              		.align	1
 209              		.global	BSP_Init
 210              		.syntax unified
 211              		.thumb
 212              		.thumb_func
 214              	BSP_Init:
 215              		@ args = 0, pretend = 0, frame = 0
 216              		@ frame_needed = 0, uses_anonymous_args = 0
 217 0000 08B5     		push	{r3, lr}
 218 0002 4FF4E130 		mov	r0, #115200
 219 0006 FFF7FEFF 		bl	usart1_init
 220 000a 4FF4E130 		mov	r0, #115200
 221 000e FFF7FEFF 		bl	usart2_init
 222 0012 2E48     		ldr	r0, .L19
 223 0014 FFF7FEFF 		bl	puts
 224 0018 5420     		movs	r0, #84
 225 001a FFF7FEFF 		bl	delay_init
 226 001e 2C48     		ldr	r0, .L19+4
 227 0020 FFF7FEFF 		bl	puts
 228 0024 2B48     		ldr	r0, .L19+8
 229 0026 FFF7FEFF 		bl	HMISendstart
 230 002a 2B48     		ldr	r0, .L19+12
 231 002c FFF7FEFF 		bl	puts
 232 0030 FFF7FEFF 		bl	BSP_NVIC_IT_Config
ARM GAS  C:\Users\ktkuru\AppData\Local\Temp\ccFsEoyc.s 			page 6


 233 0034 2948     		ldr	r0, .L19+16
 234 0036 FFF7FEFF 		bl	puts
 235 003a FFF7FEFF 		bl	LED_Init
 236 003e 2848     		ldr	r0, .L19+20
 237 0040 FFF7FEFF 		bl	puts
 238 0044 FFF7FEFF 		bl	Motor_PWM_TIM8_Init
 239 0048 2648     		ldr	r0, .L19+24
 240 004a FFF7FEFF 		bl	puts
 241 004e FFF7FEFF 		bl	OLED_Init
 242 0052 254B     		ldr	r3, .L19+28
 243 0054 0822     		movs	r2, #8
 244 0056 0021     		movs	r1, #0
 245 0058 0846     		mov	r0, r1
 246 005a FFF7FEFF 		bl	OLED_Printf
 247 005e FFF7FEFF 		bl	OLED_Update
 248 0062 2248     		ldr	r0, .L19+32
 249 0064 FFF7FEFF 		bl	puts
 250 0068 0023     		movs	r3, #0
 251 006a 0122     		movs	r2, #1
 252 006c FF21     		movs	r1, #255
 253 006e 2048     		ldr	r0, .L19+36
 254 0070 FFF7FEFF 		bl	GPIO_Config
 255 0074 1F48     		ldr	r0, .L19+40
 256 0076 FFF7FEFF 		bl	puts
 257 007a 1420     		movs	r0, #20
 258 007c FFF7FEFF 		bl	delay_ms
 259 0080 FFF7FEFF 		bl	MPU_Init
 260 0084 A8B9     		cbnz	r0, .L17
 261 0086 1C48     		ldr	r0, .L19+44
 262 0088 FFF7FEFF 		bl	puts
 263 008c FFF7FEFF 		bl	mpu_dmp_init
 264 0090 B8B9     		cbnz	r0, .L18
 265 0092 1A48     		ldr	r0, .L19+48
 266 0094 FFF7FEFF 		bl	puts
 267 0098 FFF7FEFF 		bl	EXIT15_Init
 268 009c 1848     		ldr	r0, .L19+52
 269 009e FFF7FEFF 		bl	puts
 270 00a2 0320     		movs	r0, #3
 271 00a4 FFF7FEFF 		bl	TIM2_Init
 272 00a8 1648     		ldr	r0, .L19+56
 273 00aa FFF7FEFF 		bl	puts
 274 00ae 0020     		movs	r0, #0
 275              	.L12:
 276 00b0 08BD     		pop	{r3, pc}
 277              	.L17:
 278 00b2 FFF7FEFF 		bl	MPU_Init
 279 00b6 0146     		mov	r1, r0
 280 00b8 1348     		ldr	r0, .L19+60
 281 00ba FFF7FEFF 		bl	printf
 282 00be 0120     		movs	r0, #1
 283 00c0 F6E7     		b	.L12
 284              	.L18:
 285 00c2 1248     		ldr	r0, .L19+64
 286 00c4 FFF7FEFF 		bl	puts
 287 00c8 0220     		movs	r0, #2
 288 00ca F1E7     		b	.L12
 289              	.L20:
ARM GAS  C:\Users\ktkuru\AppData\Local\Temp\ccFsEoyc.s 			page 7


 290              		.align	2
 291              	.L19:
 292 00cc 00000000 		.word	.LC0
 293 00d0 1C000000 		.word	.LC1
 294 00d4 00440040 		.word	1073759232
 295 00d8 30000000 		.word	.LC2
 296 00dc 40000000 		.word	.LC3
 297 00e0 54000000 		.word	.LC4
 298 00e4 68000000 		.word	.LC5
 299 00e8 7C000000 		.word	.LC6
 300 00ec 8C000000 		.word	.LC7
 301 00f0 00140240 		.word	1073878016
 302 00f4 A0000000 		.word	.LC8
 303 00f8 D8000000 		.word	.LC10
 304 00fc 38010000 		.word	.LC12
 305 0100 54010000 		.word	.LC13
 306 0104 68010000 		.word	.LC14
 307 0108 B4000000 		.word	.LC9
 308 010c F0000000 		.word	.LC11
 310              		.section	.text.ADC_Config,"ax",%progbits
 311              		.align	1
 312              		.global	ADC_Config
 313              		.syntax unified
 314              		.thumb
 315              		.thumb_func
 317              	ADC_Config:
 318              		@ args = 0, pretend = 0, frame = 56
 319              		@ frame_needed = 0, uses_anonymous_args = 0
 320 0000 70B5     		push	{r4, r5, r6, lr}
 321 0002 8EB0     		sub	sp, sp, #56
 322 0004 0121     		movs	r1, #1
 323 0006 4FF48070 		mov	r0, #256
 324 000a FFF7FEFF 		bl	RCC_APB2PeriphClockCmd
 325 000e 0121     		movs	r1, #1
 326 0010 0846     		mov	r0, r1
 327 0012 FFF7FEFF 		bl	RCC_AHB1PeriphClockCmd
 328 0016 0223     		movs	r3, #2
 329 0018 0293     		str	r3, [sp, #8]
 330 001a 0323     		movs	r3, #3
 331 001c 8DF80C30 		strb	r3, [sp, #12]
 332 0020 0025     		movs	r5, #0
 333 0022 8DF80F50 		strb	r5, [sp, #15]
 334 0026 02A9     		add	r1, sp, #8
 335 0028 1D48     		ldr	r0, .L23
 336 002a FFF7FEFF 		bl	GPIO_Init
 337 002e 0895     		str	r5, [sp, #32]
 338 0030 8DF82450 		strb	r5, [sp, #36]
 339 0034 0124     		movs	r4, #1
 340 0036 8DF82540 		strb	r4, [sp, #37]
 341 003a 0A95     		str	r5, [sp, #40]
 342 003c 0C95     		str	r5, [sp, #48]
 343 003e 8DF83440 		strb	r4, [sp, #52]
 344 0042 184E     		ldr	r6, .L23+4
 345 0044 08A9     		add	r1, sp, #32
 346 0046 3046     		mov	r0, r6
 347 0048 FFF7FEFF 		bl	ADC_Init
 348 004c 0723     		movs	r3, #7
ARM GAS  C:\Users\ktkuru\AppData\Local\Temp\ccFsEoyc.s 			page 8


 349 004e 2246     		mov	r2, r4
 350 0050 2146     		mov	r1, r4
 351 0052 3046     		mov	r0, r6
 352 0054 FFF7FEFF 		bl	ADC_RegularChannelConfig
 353 0058 0495     		str	r5, [sp, #16]
 354 005a 4FF48033 		mov	r3, #65536
 355 005e 0593     		str	r3, [sp, #20]
 356 0060 0695     		str	r5, [sp, #24]
 357 0062 0795     		str	r5, [sp, #28]
 358 0064 04A8     		add	r0, sp, #16
 359 0066 FFF7FEFF 		bl	ADC_CommonInit
 360 006a 2146     		mov	r1, r4
 361 006c 3046     		mov	r0, r6
 362 006e FFF7FEFF 		bl	ADC_Cmd
 363 0072 3046     		mov	r0, r6
 364 0074 FFF7FEFF 		bl	ADC_SoftwareStartConv
 365 0078 2246     		mov	r2, r4
 366 007a 40F20521 		movw	r1, #517
 367 007e 3046     		mov	r0, r6
 368 0080 FFF7FEFF 		bl	ADC_ITConfig
 369 0084 1223     		movs	r3, #18
 370 0086 8DF80430 		strb	r3, [sp, #4]
 371 008a 8DF80540 		strb	r4, [sp, #5]
 372 008e 8DF80640 		strb	r4, [sp, #6]
 373 0092 8DF80740 		strb	r4, [sp, #7]
 374 0096 01A8     		add	r0, sp, #4
 375 0098 FFF7FEFF 		bl	NVIC_Init
 376 009c 0EB0     		add	sp, sp, #56
 377              		@ sp needed
 378 009e 70BD     		pop	{r4, r5, r6, pc}
 379              	.L24:
 380              		.align	2
 381              	.L23:
 382 00a0 00000240 		.word	1073872896
 383 00a4 00200140 		.word	1073815552
 385              		.global	__aeabi_f2d
 386              		.global	__aeabi_ddiv
 387              		.global	__aeabi_dmul
 388              		.global	__aeabi_d2uiz
 389              		.section	.text.ADCvalue_convert,"ax",%progbits
 390              		.align	1
 391              		.global	ADCvalue_convert
 392              		.syntax unified
 393              		.thumb
 394              		.thumb_func
 396              	ADCvalue_convert:
 397              		@ args = 0, pretend = 0, frame = 0
 398              		@ frame_needed = 0, uses_anonymous_args = 0
 399 0000 08B5     		push	{r3, lr}
 400 0002 07EE900A 		vmov	s15, r0	@ int
 401 0006 F8EE677A 		vcvt.f32.u32	s15, s15
 402 000a 17EE900A 		vmov	r0, s15
 403 000e FFF7FEFF 		bl	__aeabi_f2d
 404 0012 08A3     		adr	r3, .L27+4
 405 0014 D3E90023 		ldrd	r2, [r3]
 406 0018 FFF7FEFF 		bl	__aeabi_ddiv
 407 001c 0022     		movs	r2, #0
ARM GAS  C:\Users\ktkuru\AppData\Local\Temp\ccFsEoyc.s 			page 9


 408 001e 044B     		ldr	r3, .L27
 409 0020 FFF7FEFF 		bl	__aeabi_dmul
 410 0024 FFF7FEFF 		bl	__aeabi_d2uiz
 411 0028 80B2     		uxth	r0, r0
 412 002a 08BD     		pop	{r3, pc}
 413              	.L28:
 414 002c AFF30080 		.align	3
 415              	.L27:
 416 0030 00807640 		.word	1081507840
 417 0034 00000000 		.word	0
 418 0038 004EA840 		.word	1084771840
 420              		.section	.rodata.ADC_IRQHandler.str1.4,"aMS",%progbits,1
 421              		.align	2
 422              	.LC15:
 423 0000 41444320 		.ascii	"ADC value: %d\012\000"
 423      76616C75 
 423      653A2025 
 423      640A00
 424              		.section	.text.ADC_IRQHandler,"ax",%progbits
 425              		.align	1
 426              		.global	ADC_IRQHandler
 427              		.syntax unified
 428              		.thumb
 429              		.thumb_func
 431              	ADC_IRQHandler:
 432              		@ args = 0, pretend = 0, frame = 0
 433              		@ frame_needed = 0, uses_anonymous_args = 0
 434 0000 10B5     		push	{r4, lr}
 435 0002 40F20521 		movw	r1, #517
 436 0006 0D48     		ldr	r0, .L33
 437 0008 FFF7FEFF 		bl	ADC_GetITStatus
 438 000c 00B9     		cbnz	r0, .L32
 439              	.L29:
 440 000e 10BD     		pop	{r4, pc}
 441              	.L32:
 442 0010 0A4C     		ldr	r4, .L33
 443 0012 40F20521 		movw	r1, #517
 444 0016 2046     		mov	r0, r4
 445 0018 FFF7FEFF 		bl	ADC_ClearITPendingBit
 446 001c 2046     		mov	r0, r4
 447 001e FFF7FEFF 		bl	ADC_GetConversionValue
 448 0022 074B     		ldr	r3, .L33+4
 449 0024 1880     		strh	r0, [r3]	@ movhi
 450 0026 074B     		ldr	r3, .L33+8
 451 0028 4FF46162 		mov	r2, #3600
 452 002c 5A63     		str	r2, [r3, #52]
 453 002e FFF7FEFF 		bl	ADCvalue_convert
 454 0032 0146     		mov	r1, r0
 455 0034 0448     		ldr	r0, .L33+12
 456 0036 FFF7FEFF 		bl	printf
 457 003a E8E7     		b	.L29
 458              	.L34:
 459              		.align	2
 460              	.L33:
 461 003c 00200140 		.word	1073815552
 462 0040 00000000 		.word	adcValue.0
 463 0044 00000140 		.word	1073807360
ARM GAS  C:\Users\ktkuru\AppData\Local\Temp\ccFsEoyc.s 			page 10


 464 0048 00000000 		.word	.LC15
 466              		.section	.text.function_goto,"ax",%progbits
 467              		.align	1
 468              		.global	function_goto
 469              		.syntax unified
 470              		.thumb
 471              		.thumb_func
 473              	function_goto:
 474              		@ args = 0, pretend = 0, frame = 0
 475              		@ frame_needed = 0, uses_anonymous_args = 0
 476              		@ link register save eliminated.
 477              		.syntax unified
 478              	@ 245 "HARDWARE/BSP/bsp.c" 1
 479 0000 0046     		mov r0,r0 
 480 0002 0047     		bx r0     
 481              		
 482              	@ 0 "" 2
 483              		.thumb
 484              		.syntax unified
 485 0004 7047     		bx	lr
 487              		.section	.bss.adcValue.0,"aw",%nobits
 488              		.align	1
 491              	adcValue.0:
 492 0000 0000     		.space	2
 493              		.ident	"GCC: (Arm GNU Toolchain 13.3.Rel1 (Build arm-13.24)) 13.3.1 20240614"
ARM GAS  C:\Users\ktkuru\AppData\Local\Temp\ccFsEoyc.s 			page 11

