ARM GAS  C:\Users\ktkuru\AppData\Local\Temp\ccTpUHaP.s 			page 1


   1              		.cpu cortex-m4
   2              		.arch armv7e-m
   3              		.fpu fpv4-sp-d16
   4              		.eabi_attribute 27, 1
   5              		.eabi_attribute 28, 1
   6              		.eabi_attribute 20, 1
   7              		.eabi_attribute 21, 1
   8              		.eabi_attribute 23, 3
   9              		.eabi_attribute 24, 1
  10              		.eabi_attribute 25, 1
  11              		.eabi_attribute 26, 1
  12              		.eabi_attribute 30, 1
  13              		.eabi_attribute 34, 1
  14              		.eabi_attribute 18, 4
  15              		.file	"Control_Task.c"
  16              		.text
  17              		.section	.text.Task4_StopFast,"ax",%progbits
  18              		.align	1
  19              		.global	Task4_StopFast
  20              		.syntax unified
  21              		.thumb
  22              		.thumb_func
  24              	Task4_StopFast:
  25              		@ args = 0, pretend = 0, frame = 0
  26              		@ frame_needed = 0, uses_anonymous_args = 0
  27 0000 08B5     		push	{r3, lr}
  28 0002 0648     		ldr	r0, .L3
  29 0004 C368     		ldr	r3, [r0, #12]
  30 0006 064A     		ldr	r2, .L3+4
  31 0008 D2ED000A 		vldr.32	s1, [r2]
  32 000c 9FED050A 		vldr.32	s0, .L3+8
  33 0010 9847     		blx	r3
  34 0012 054B     		ldr	r3, .L3+12
  35 0014 83ED000A 		vstr.32	s0, [r3]
  36 0018 08BD     		pop	{r3, pc}
  37              	.L4:
  38 001a 00BF     		.align	2
  39              	.L3:
  40 001c 00000000 		.word	Taks4Pid.23
  41 0020 00000000 		.word	dis
  42 0024 00000000 		.word	0
  43 0028 00000000 		.word	Output.22
  45              		.global	__aeabi_f2d
  46              		.global	__aeabi_ddiv
  47              		.global	__aeabi_d2f
  48              		.global	__aeabi_dmul
  49              		.global	__aeabi_dadd
  50              		.global	__aeabi_dcmplt
  51              		.section	.text.Task1_LineMove,"ax",%progbits
  52              		.align	1
  53              		.global	Task1_LineMove
  54              		.syntax unified
  55              		.thumb
  56              		.thumb_func
  58              	Task1_LineMove:
  59              		@ args = 0, pretend = 0, frame = 0
  60              		@ frame_needed = 0, uses_anonymous_args = 0
ARM GAS  C:\Users\ktkuru\AppData\Local\Temp\ccTpUHaP.s 			page 2


  61 0000 38B5     		push	{r3, r4, r5, lr}
  62 0002 2DED028B 		vpush.64	{d8}
  63 0006 0446     		mov	r4, r0
  64 0008 10EE100A 		vmov	r0, s0
  65 000c FFF7FEFF 		bl	__aeabi_f2d
  66 0010 84A3     		adr	r3, .L23+76
  67 0012 D3E90023 		ldrd	r2, [r3]
  68 0016 FFF7FEFF 		bl	__aeabi_ddiv
  69 001a FFF7FEFF 		bl	__aeabi_d2f
  70 001e 00EE100A 		vmov	s0, r0
  71 0022 FFF7FEFF 		bl	atanf
  72 0026 DFED747A 		vldr.32	s15, .L23+32
  73 002a 60EE277A 		vmul.f32	s15, s0, s15
  74 002e 17EE900A 		vmov	r0, s15
  75 0032 FFF7FEFF 		bl	__aeabi_f2d
  76 0036 68A3     		adr	r3, .L23
  77 0038 D3E90023 		ldrd	r2, [r3]
  78 003c FFF7FEFF 		bl	__aeabi_ddiv
  79 0040 FFF7FEFF 		bl	__aeabi_d2f
  80 0044 08EE100A 		vmov	s16, r0
  81 0048 6C4B     		ldr	r3, .L23+36
  82 004a 1860     		str	r0, [r3]	@ float
  83 004c 6C4B     		ldr	r3, .L23+40
  84 004e 1868     		ldr	r0, [r3]	@ float
  85 0050 FFF7FEFF 		bl	__aeabi_f2d
  86 0054 62A3     		adr	r3, .L23+8
  87 0056 D3E90023 		ldrd	r2, [r3]
  88 005a FFF7FEFF 		bl	__aeabi_dmul
  89 005e 62A3     		adr	r3, .L23+16
  90 0060 D3E90023 		ldrd	r2, [r3]
  91 0064 FFF7FEFF 		bl	__aeabi_ddiv
  92 0068 FFF7FEFF 		bl	__aeabi_d2f
  93 006c 00EE100A 		vmov	s0, r0
  94 0070 FFF7FEFF 		bl	sinf
  95 0074 28EE000A 		vmul.f32	s0, s16, s0
  96 0078 624B     		ldr	r3, .L23+44
  97 007a 83ED000A 		vstr.32	s0, [r3]
  98 007e 002C     		cmp	r4, #0
  99 0080 44D1     		bne	.L6
 100 0082 614D     		ldr	r5, .L23+48
 101 0084 EB68     		ldr	r3, [r5, #12]
 102 0086 2846     		mov	r0, r5
 103 0088 604A     		ldr	r2, .L23+52
 104 008a D2ED000A 		vldr.32	s1, [r2]
 105 008e 9847     		blx	r3
 106 0090 5F4B     		ldr	r3, .L23+56
 107 0092 83ED000A 		vstr.32	s0, [r3]
 108 0096 EB68     		ldr	r3, [r5, #12]
 109 0098 2846     		mov	r0, r5
 110 009a 5E4A     		ldr	r2, .L23+60
 111 009c D2ED000A 		vldr.32	s1, [r2]
 112 00a0 9FED5D0A 		vldr.32	s0, .L23+64
 113 00a4 9847     		blx	r3
 114 00a6 5D4B     		ldr	r3, .L23+68
 115 00a8 83ED000A 		vstr.32	s0, [r3]
 116              	.L7:
 117 00ac 544D     		ldr	r5, .L23+40
ARM GAS  C:\Users\ktkuru\AppData\Local\Temp\ccTpUHaP.s 			page 3


 118 00ae 2868     		ldr	r0, [r5]	@ float
 119 00b0 FFF7FEFF 		bl	__aeabi_f2d
 120 00b4 4EA3     		adr	r3, .L23+24
 121 00b6 D3E90023 		ldrd	r2, [r3]
 122 00ba FFF7FEFF 		bl	__aeabi_dadd
 123 00be FFF7FEFF 		bl	__aeabi_d2f
 124 00c2 2860     		str	r0, [r5]	@ float
 125 00c4 FFF7FEFF 		bl	__aeabi_f2d
 126 00c8 47A3     		adr	r3, .L23+16
 127 00ca D3E90023 		ldrd	r2, [r3]
 128 00ce FFF7FEFF 		bl	__aeabi_dcmplt
 129 00d2 0028     		cmp	r0, #0
 130 00d4 78D0     		beq	.L19
 131 00d6 002C     		cmp	r4, #0
 132 00d8 48D1     		bne	.L10
 133 00da 4D4B     		ldr	r3, .L23+56
 134 00dc D3ED007A 		vldr.32	s15, [r3]
 135 00e0 F5EEC07A 		vcmpe.f32	s15, #0
 136 00e4 F1EE10FA 		vmrs	APSR_nzcv, FPSCR
 137 00e8 2DDD     		ble	.L20
 138 00ea 0121     		movs	r1, #1
 139 00ec 0420     		movs	r0, #4
 140 00ee FFF7FEFF 		bl	Motor_Cmd
 141 00f2 0021     		movs	r1, #0
 142 00f4 0320     		movs	r0, #3
 143 00f6 FFF7FEFF 		bl	Motor_Cmd
 144 00fa 454B     		ldr	r3, .L23+56
 145 00fc D3ED007A 		vldr.32	s15, [r3]
 146 0100 FCEEE77A 		vcvt.u32.f32	s15, s15
 147 0104 464B     		ldr	r3, .L23+72
 148 0106 C3ED107A 		vstr.32	s15, [r3, #64]	@ int
 149 010a 60E0     		b	.L5
 150              	.L6:
 151 010c 5A2C     		cmp	r4, #90
 152 010e CDD1     		bne	.L7
 153 0110 3D4D     		ldr	r5, .L23+48
 154 0112 EB68     		ldr	r3, [r5, #12]
 155 0114 3D4A     		ldr	r2, .L23+52
 156 0116 D2ED000A 		vldr.32	s1, [r2]
 157 011a 2846     		mov	r0, r5
 158 011c F1EE600A 		vneg.f32	s1, s1
 159 0120 9FED3D0A 		vldr.32	s0, .L23+64
 160 0124 9847     		blx	r3
 161 0126 3A4B     		ldr	r3, .L23+56
 162 0128 83ED000A 		vstr.32	s0, [r3]
 163 012c EB68     		ldr	r3, [r5, #12]
 164 012e 2846     		mov	r0, r5
 165 0130 384A     		ldr	r2, .L23+60
 166 0132 D2ED000A 		vldr.32	s1, [r2]
 167 0136 334A     		ldr	r2, .L23+44
 168 0138 92ED000A 		vldr.32	s0, [r2]
 169 013c 9847     		blx	r3
 170 013e 374B     		ldr	r3, .L23+68
 171 0140 83ED000A 		vstr.32	s0, [r3]
 172 0144 B2E7     		b	.L7
 173              	.L20:
 174 0146 0021     		movs	r1, #0
ARM GAS  C:\Users\ktkuru\AppData\Local\Temp\ccTpUHaP.s 			page 4


 175 0148 0420     		movs	r0, #4
 176 014a FFF7FEFF 		bl	Motor_Cmd
 177 014e 0121     		movs	r1, #1
 178 0150 0320     		movs	r0, #3
 179 0152 FFF7FEFF 		bl	Motor_Cmd
 180 0156 2E4B     		ldr	r3, .L23+56
 181 0158 D3ED007A 		vldr.32	s15, [r3]
 182 015c F1EE677A 		vneg.f32	s15, s15
 183 0160 FCEEE77A 		vcvt.u32.f32	s15, s15
 184 0164 2E4B     		ldr	r3, .L23+72
 185 0166 C3ED0F7A 		vstr.32	s15, [r3, #60]	@ int
 186 016a 30E0     		b	.L5
 187              	.L10:
 188 016c 5A2C     		cmp	r4, #90
 189 016e 2ED1     		bne	.L5
 190 0170 2A4B     		ldr	r3, .L23+68
 191 0172 D3ED007A 		vldr.32	s15, [r3]
 192 0176 F5EEC07A 		vcmpe.f32	s15, #0
 193 017a F1EE10FA 		vmrs	APSR_nzcv, FPSCR
 194 017e 10DD     		ble	.L21
 195 0180 0021     		movs	r1, #0
 196 0182 0220     		movs	r0, #2
 197 0184 FFF7FEFF 		bl	Motor_Cmd
 198 0188 0121     		movs	r1, #1
 199 018a 0846     		mov	r0, r1
 200 018c FFF7FEFF 		bl	Motor_Cmd
 201 0190 224B     		ldr	r3, .L23+68
 202 0192 D3ED007A 		vldr.32	s15, [r3]
 203 0196 FCEEE77A 		vcvt.u32.f32	s15, s15
 204 019a 214B     		ldr	r3, .L23+72
 205 019c C3ED0D7A 		vstr.32	s15, [r3, #52]	@ int
 206 01a0 15E0     		b	.L5
 207              	.L21:
 208 01a2 0121     		movs	r1, #1
 209 01a4 0220     		movs	r0, #2
 210 01a6 FFF7FEFF 		bl	Motor_Cmd
 211 01aa 0021     		movs	r1, #0
 212 01ac 0120     		movs	r0, #1
 213 01ae FFF7FEFF 		bl	Motor_Cmd
 214 01b2 1A4B     		ldr	r3, .L23+68
 215 01b4 D3ED007A 		vldr.32	s15, [r3]
 216 01b8 F1EE677A 		vneg.f32	s15, s15
 217 01bc FCEEE77A 		vcvt.u32.f32	s15, s15
 218 01c0 174B     		ldr	r3, .L23+72
 219 01c2 C3ED0E7A 		vstr.32	s15, [r3, #56]	@ int
 220 01c6 02E0     		b	.L5
 221              	.L19:
 222 01c8 0D4B     		ldr	r3, .L23+40
 223 01ca 0022     		movs	r2, #0
 224 01cc 1A60     		str	r2, [r3]	@ float
 225              	.L5:
 226 01ce BDEC028B 		vldm	sp!, {d8}
 227 01d2 38BD     		pop	{r3, r4, r5, pc}
 228              	.L24:
 229 01d4 AFF30080 		.align	3
 230              	.L23:
 231 01d8 4AD8124D 		.word	1293080650
ARM GAS  C:\Users\ktkuru\AppData\Local\Temp\ccTpUHaP.s 			page 5


 232 01dc FB210940 		.word	1074340347
 233 01e0 4AD8124D 		.word	1293080650
 234 01e4 FB211940 		.word	1075388923
 235 01e8 0C022B87 		.word	-2027224564
 236 01ec 16D9FA3F 		.word	1073404182
 237 01f0 49940733 		.word	856134729
 238 01f4 B78C853F 		.word	1065716919
 239 01f8 00003443 		.word	1127481344
 240 01fc 00000000 		.word	A.21
 241 0200 00000000 		.word	time.20
 242 0204 00000000 		.word	target_angle
 243 0208 00000000 		.word	Taks1Pid.19
 244 020c 00000000 		.word	roll
 245 0210 00000000 		.word	VOutput.18
 246 0214 00000000 		.word	pitch
 247 0218 00000000 		.word	0
 248 021c 00000000 		.word	LOutput.17
 249 0220 00040140 		.word	1073808384
 250 0224 85EB51B8 		.word	-1202590843
 251 0228 1E85EB3F 		.word	1072399646
 253              		.global	__aeabi_dsub
 254              		.section	.rodata.Task3_AngleMove.str1.4,"aMS",%progbits,1
 255              		.align	2
 256              	.LC0:
 257 0000 25662C25 		.ascii	"%f,%f\015\012\000"
 257      660D0A00 
 258              		.section	.text.Task3_AngleMove,"ax",%progbits
 259              		.align	1
 260              		.global	Task3_AngleMove
 261              		.syntax unified
 262              		.thumb
 263              		.thumb_func
 265              	Task3_AngleMove:
 266              		@ args = 0, pretend = 0, frame = 0
 267              		@ frame_needed = 0, uses_anonymous_args = 0
 268 0000 F0B5     		push	{r4, r5, r6, r7, lr}
 269 0002 2DED048B 		vpush.64	{d8, d9}
 270 0006 83B0     		sub	sp, sp, #12
 271 0008 B0EE608A 		vmov.f32	s16, s1
 272 000c DFEDC07A 		vldr.32	s15, .L48+56
 273 0010 B4EEE70A 		vcmpe.f32	s0, s15
 274 0014 F1EE10FA 		vmrs	APSR_nzcv, FPSCR
 275 0018 40F3B880 		ble	.L40
 276 001c 10EE100A 		vmov	r0, s0
 277 0020 FFF7FEFF 		bl	__aeabi_f2d
 278 0024 0446     		mov	r4, r0
 279 0026 0D46     		mov	r5, r1
 280 0028 0246     		mov	r2, r0
 281 002a 0B46     		mov	r3, r1
 282 002c AAA1     		adr	r1, .L48
 283 002e D1E90001 		ldrd	r0, [r1]
 284 0032 FFF7FEFF 		bl	__aeabi_dsub
 285 0036 0022     		movs	r2, #0
 286 0038 B64B     		ldr	r3, .L48+60
 287 003a FFF7FEFF 		bl	__aeabi_ddiv
 288 003e 0246     		mov	r2, r0
 289 0040 0B46     		mov	r3, r1
ARM GAS  C:\Users\ktkuru\AppData\Local\Temp\ccTpUHaP.s 			page 6


 290 0042 2046     		mov	r0, r4
 291 0044 2946     		mov	r1, r5
 292 0046 FFF7FEFF 		bl	__aeabi_dadd
 293 004a FFF7FEFF 		bl	__aeabi_d2f
 294 004e 07EE900A 		vmov	s15, r0
 295 0052 9FEDB10A 		vldr.32	s0, .L48+64
 296 0056 30EE670A 		vsub.f32	s0, s0, s15
 297 005a 0226     		movs	r6, #2
 298              	.L28:
 299 005c 10EE100A 		vmov	r0, s0
 300 0060 FFF7FEFF 		bl	__aeabi_f2d
 301 0064 9EA3     		adr	r3, .L48+8
 302 0066 D3E90023 		ldrd	r2, [r3]
 303 006a FFF7FEFF 		bl	__aeabi_dmul
 304 006e 0022     		movs	r2, #0
 305 0070 AA4B     		ldr	r3, .L48+68
 306 0072 FFF7FEFF 		bl	__aeabi_ddiv
 307 0076 FFF7FEFF 		bl	__aeabi_d2f
 308 007a 09EE100A 		vmov	s18, r0
 309 007e B0EE490A 		vmov.f32	s0, s18
 310 0082 FFF7FEFF 		bl	cosf
 311 0086 60EE087A 		vmul.f32	s15, s0, s16
 312 008a 17EE900A 		vmov	r0, s15
 313 008e FFF7FEFF 		bl	__aeabi_f2d
 314 0092 95A3     		adr	r3, .L48+16
 315 0094 D3E90023 		ldrd	r2, [r3]
 316 0098 FFF7FEFF 		bl	__aeabi_ddiv
 317 009c FFF7FEFF 		bl	__aeabi_d2f
 318 00a0 00EE100A 		vmov	s0, r0
 319 00a4 FFF7FEFF 		bl	atanf
 320 00a8 10EE100A 		vmov	r0, s0
 321 00ac FFF7FEFF 		bl	__aeabi_f2d
 322 00b0 8BA3     		adr	r3, .L48+8
 323 00b2 D3E90023 		ldrd	r2, [r3]
 324 00b6 FFF7FEFF 		bl	__aeabi_ddiv
 325 00ba 0022     		movs	r2, #0
 326 00bc 974B     		ldr	r3, .L48+68
 327 00be FFF7FEFF 		bl	__aeabi_dmul
 328 00c2 FFF7FEFF 		bl	__aeabi_d2f
 329 00c6 08EE900A 		vmov	s17, r0
 330 00ca 954B     		ldr	r3, .L48+72
 331 00cc 1860     		str	r0, [r3]	@ float
 332 00ce B0EE490A 		vmov.f32	s0, s18
 333 00d2 FFF7FEFF 		bl	sinf
 334 00d6 60EE087A 		vmul.f32	s15, s0, s16
 335 00da 17EE900A 		vmov	r0, s15
 336 00de FFF7FEFF 		bl	__aeabi_f2d
 337 00e2 81A3     		adr	r3, .L48+16
 338 00e4 D3E90023 		ldrd	r2, [r3]
 339 00e8 FFF7FEFF 		bl	__aeabi_ddiv
 340 00ec FFF7FEFF 		bl	__aeabi_d2f
 341 00f0 00EE100A 		vmov	s0, r0
 342 00f4 FFF7FEFF 		bl	atanf
 343 00f8 10EE100A 		vmov	r0, s0
 344 00fc FFF7FEFF 		bl	__aeabi_f2d
 345 0100 77A3     		adr	r3, .L48+8
 346 0102 D3E90023 		ldrd	r2, [r3]
ARM GAS  C:\Users\ktkuru\AppData\Local\Temp\ccTpUHaP.s 			page 7


 347 0106 FFF7FEFF 		bl	__aeabi_ddiv
 348 010a 0022     		movs	r2, #0
 349 010c 834B     		ldr	r3, .L48+68
 350 010e FFF7FEFF 		bl	__aeabi_dmul
 351 0112 FFF7FEFF 		bl	__aeabi_d2f
 352 0116 08EE100A 		vmov	s16, r0
 353 011a 824B     		ldr	r3, .L48+76
 354 011c 1860     		str	r0, [r3]	@ float
 355 011e 824B     		ldr	r3, .L48+80
 356 0120 1868     		ldr	r0, [r3]	@ float
 357 0122 FFF7FEFF 		bl	__aeabi_f2d
 358 0126 72A3     		adr	r3, .L48+24
 359 0128 D3E90023 		ldrd	r2, [r3]
 360 012c FFF7FEFF 		bl	__aeabi_ddiv
 361 0130 71A3     		adr	r3, .L48+32
 362 0132 D3E90023 		ldrd	r2, [r3]
 363 0136 FFF7FEFF 		bl	__aeabi_dmul
 364 013a FFF7FEFF 		bl	__aeabi_d2f
 365 013e 00EE100A 		vmov	s0, r0
 366 0142 FFF7FEFF 		bl	sinf
 367 0146 68EE808A 		vmul.f32	s17, s17, s0
 368 014a 784B     		ldr	r3, .L48+84
 369 014c C3ED008A 		vstr.32	s17, [r3]
 370 0150 28EE008A 		vmul.f32	s16, s16, s0
 371 0154 764B     		ldr	r3, .L48+88
 372 0156 83ED008A 		vstr.32	s16, [r3]
 373 015a 764B     		ldr	r3, .L48+92
 374 015c 1868     		ldr	r0, [r3]	@ float
 375 015e FFF7FEFF 		bl	__aeabi_f2d
 376 0162 0446     		mov	r4, r0
 377 0164 0D46     		mov	r5, r1
 378 0166 744B     		ldr	r3, .L48+96
 379 0168 1868     		ldr	r0, [r3]	@ float
 380 016a FFF7FEFF 		bl	__aeabi_f2d
 381 016e CDE90001 		strd	r0, [sp]
 382 0172 2246     		mov	r2, r4
 383 0174 2B46     		mov	r3, r5
 384 0176 7148     		ldr	r0, .L48+100
 385 0178 FFF7FEFF 		bl	printf
 386 017c 012E     		cmp	r6, #1
 387 017e 20D0     		beq	.L44
 388 0180 022E     		cmp	r6, #2
 389 0182 5BD0     		beq	.L45
 390              	.L25:
 391 0184 03B0     		add	sp, sp, #12
 392              		@ sp needed
 393 0186 BDEC048B 		vldm	sp!, {d8-d9}
 394 018a F0BD     		pop	{r4, r5, r6, r7, pc}
 395              	.L40:
 396 018c DFED607A 		vldr.32	s15, .L48+56
 397 0190 B4EEE70A 		vcmpe.f32	s0, s15
 398 0194 F1EE10FA 		vmrs	APSR_nzcv, FPSCR
 399 0198 7FF560AF 		bpl	.L28
 400 019c 10EE100A 		vmov	r0, s0
 401 01a0 FFF7FEFF 		bl	__aeabi_f2d
 402 01a4 56A3     		adr	r3, .L48+40
 403 01a6 D3E90023 		ldrd	r2, [r3]
ARM GAS  C:\Users\ktkuru\AppData\Local\Temp\ccTpUHaP.s 			page 8


 404 01aa FFF7FEFF 		bl	__aeabi_dmul
 405 01ae 0022     		movs	r2, #0
 406 01b0 634B     		ldr	r3, .L48+104
 407 01b2 FFF7FEFF 		bl	__aeabi_dadd
 408 01b6 FFF7FEFF 		bl	__aeabi_d2f
 409 01ba 00EE100A 		vmov	s0, r0
 410 01be 0126     		movs	r6, #1
 411 01c0 4CE7     		b	.L28
 412              	.L44:
 413 01c2 6048     		ldr	r0, .L48+108
 414 01c4 C368     		ldr	r3, [r0, #12]
 415 01c6 604A     		ldr	r2, .L48+112
 416 01c8 D2ED000A 		vldr.32	s1, [r2]
 417 01cc 574A     		ldr	r2, .L48+84
 418 01ce 92ED000A 		vldr.32	s0, [r2]
 419 01d2 9847     		blx	r3
 420 01d4 574B     		ldr	r3, .L48+92
 421 01d6 83ED000A 		vstr.32	s0, [r3]
 422 01da 5C48     		ldr	r0, .L48+116
 423 01dc C368     		ldr	r3, [r0, #12]
 424 01de 5C4A     		ldr	r2, .L48+120
 425 01e0 D2ED000A 		vldr.32	s1, [r2]
 426 01e4 F1EE600A 		vneg.f32	s1, s1
 427 01e8 514A     		ldr	r2, .L48+88
 428 01ea 92ED000A 		vldr.32	s0, [r2]
 429 01ee 9847     		blx	r3
 430 01f0 B0EE408A 		vmov.f32	s16, s0
 431 01f4 504B     		ldr	r3, .L48+96
 432 01f6 83ED000A 		vstr.32	s0, [r3]
 433 01fa 4B4C     		ldr	r4, .L48+80
 434 01fc 2068     		ldr	r0, [r4]	@ float
 435 01fe FFF7FEFF 		bl	__aeabi_f2d
 436 0202 41A3     		adr	r3, .L48+48
 437 0204 D3E90023 		ldrd	r2, [r3]
 438 0208 FFF7FEFF 		bl	__aeabi_dadd
 439 020c FFF7FEFF 		bl	__aeabi_d2f
 440 0210 2060     		str	r0, [r4]	@ float
 441 0212 FFF7FEFF 		bl	__aeabi_f2d
 442 0216 36A3     		adr	r3, .L48+24
 443 0218 D3E90023 		ldrd	r2, [r3]
 444 021c FFF7FEFF 		bl	__aeabi_dcmplt
 445 0220 18B9     		cbnz	r0, .L46
 446 0222 414B     		ldr	r3, .L48+80
 447 0224 0022     		movs	r2, #0
 448 0226 1A60     		str	r2, [r3]	@ float
 449 0228 ACE7     		b	.L25
 450              	.L46:
 451 022a 0120     		movs	r0, #1
 452 022c F0EE480A 		vmov.f32	s1, s16
 453 0230 404B     		ldr	r3, .L48+92
 454 0232 93ED000A 		vldr.32	s0, [r3]
 455 0236 FFF7FEFF 		bl	T3Motor_CmdCombination
 456 023a A3E7     		b	.L25
 457              	.L45:
 458 023c 4148     		ldr	r0, .L48+108
 459 023e C368     		ldr	r3, [r0, #12]
 460 0240 414A     		ldr	r2, .L48+112
ARM GAS  C:\Users\ktkuru\AppData\Local\Temp\ccTpUHaP.s 			page 9


 461 0242 D2ED000A 		vldr.32	s1, [r2]
 462 0246 F1EE600A 		vneg.f32	s1, s1
 463 024a 384A     		ldr	r2, .L48+84
 464 024c 92ED000A 		vldr.32	s0, [r2]
 465 0250 9847     		blx	r3
 466 0252 384D     		ldr	r5, .L48+92
 467 0254 85ED000A 		vstr.32	s0, [r5]
 468 0258 3C48     		ldr	r0, .L48+116
 469 025a C368     		ldr	r3, [r0, #12]
 470 025c 3C4A     		ldr	r2, .L48+120
 471 025e D2ED000A 		vldr.32	s1, [r2]
 472 0262 F1EE600A 		vneg.f32	s1, s1
 473 0266 324A     		ldr	r2, .L48+88
 474 0268 92ED000A 		vldr.32	s0, [r2]
 475 026c 9847     		blx	r3
 476 026e 10EE104A 		vmov	r4, s0
 477 0272 314B     		ldr	r3, .L48+96
 478 0274 83ED000A 		vstr.32	s0, [r3]
 479 0278 2868     		ldr	r0, [r5]	@ float
 480 027a FFF7FEFF 		bl	__aeabi_f2d
 481 027e 0646     		mov	r6, r0
 482 0280 0F46     		mov	r7, r1
 483 0282 2046     		mov	r0, r4	@ float
 484 0284 FFF7FEFF 		bl	__aeabi_f2d
 485 0288 CDE90001 		strd	r0, [sp]
 486 028c 3246     		mov	r2, r6
 487 028e 3B46     		mov	r3, r7
 488 0290 2A48     		ldr	r0, .L48+100
 489 0292 FFF7FEFF 		bl	printf
 490 0296 244C     		ldr	r4, .L48+80
 491 0298 2068     		ldr	r0, [r4]	@ float
 492 029a FFF7FEFF 		bl	__aeabi_f2d
 493 029e 1AA3     		adr	r3, .L48+48
 494 02a0 D3E90023 		ldrd	r2, [r3]
 495 02a4 FFF7FEFF 		bl	__aeabi_dadd
 496 02a8 FFF7FEFF 		bl	__aeabi_d2f
 497 02ac 2060     		str	r0, [r4]	@ float
 498 02ae FFF7FEFF 		bl	__aeabi_f2d
 499 02b2 0FA3     		adr	r3, .L48+24
 500 02b4 D3E90023 		ldrd	r2, [r3]
 501 02b8 FFF7FEFF 		bl	__aeabi_dcmplt
 502 02bc 18B9     		cbnz	r0, .L47
 503 02be 1A4B     		ldr	r3, .L48+80
 504 02c0 0022     		movs	r2, #0
 505 02c2 1A60     		str	r2, [r3]	@ float
 506 02c4 5EE7     		b	.L25
 507              	.L47:
 508 02c6 0020     		movs	r0, #0
 509 02c8 1B4B     		ldr	r3, .L48+96
 510 02ca D3ED000A 		vldr.32	s1, [r3]
 511 02ce 95ED000A 		vldr.32	s0, [r5]
 512 02d2 FFF7FEFF 		bl	T3Motor_CmdCombination
 513 02d6 55E7     		b	.L25
 514              	.L49:
 515              		.align	3
 516              	.L48:
 517 02d8 00000000 		.word	0
ARM GAS  C:\Users\ktkuru\AppData\Local\Temp\ccTpUHaP.s 			page 10


 518 02dc 00946140 		.word	1080136704
 519 02e0 4AD8124D 		.word	1293080650
 520 02e4 FB210940 		.word	1074340347
 521 02e8 85EB51B8 		.word	-1202590843
 522 02ec 1E85EB3F 		.word	1072399646
 523 02f0 0C022B87 		.word	-2027224564
 524 02f4 16D9FA3F 		.word	1073404182
 525 02f8 4AD8124D 		.word	1293080650
 526 02fc FB211940 		.word	1075388923
 527 0300 2C9FE579 		.word	2045091628
 528 0304 7077E73F 		.word	1072134000
 529 0308 C35B316D 		.word	1831951299
 530 030c 4958853F 		.word	1065703497
 531 0310 0000B442 		.word	1119092736
 532 0314 00000E40 		.word	1074659328
 533 0318 00003443 		.word	1127481344
 534 031c 00806640 		.word	1080459264
 535 0320 00000000 		.word	target_roll.16
 536 0324 00000000 		.word	target_pitch.15
 537 0328 00000000 		.word	time.14
 538 032c 00000000 		.word	Vtarget_angle.13
 539 0330 00000000 		.word	Ltarget_angle.12
 540 0334 00000000 		.word	VOutput.11
 541 0338 00000000 		.word	LOutput.10
 542 033c 00000000 		.word	.LC0
 543 0340 00003140 		.word	1076953088
 544 0344 00000000 		.word	Taks3Pid.9
 545 0348 00000000 		.word	roll
 546 034c 00000000 		.word	Taks3Pid2.8
 547 0350 00000000 		.word	pitch
 549              		.section	.text.EXTI15_10_IRQHandler,"ax",%progbits
 550              		.align	1
 551              		.global	EXTI15_10_IRQHandler
 552              		.syntax unified
 553              		.thumb
 554              		.thumb_func
 556              	EXTI15_10_IRQHandler:
 557              		@ args = 0, pretend = 0, frame = 8
 558              		@ frame_needed = 0, uses_anonymous_args = 0
 559 0000 30B5     		push	{r4, r5, lr}
 560 0002 83B0     		sub	sp, sp, #12
 561 0004 4FF40040 		mov	r0, #32768
 562 0008 FFF7FEFF 		bl	EXTI_GetITStatus
 563 000c 08B9     		cbnz	r0, .L55
 564              	.L50:
 565 000e 03B0     		add	sp, sp, #12
 566              		@ sp needed
 567 0010 30BD     		pop	{r4, r5, pc}
 568              	.L55:
 569 0012 4FF40040 		mov	r0, #32768
 570 0016 FFF7FEFF 		bl	EXTI_ClearITPendingBit
 571 001a 174C     		ldr	r4, .L56
 572 001c 174D     		ldr	r5, .L56+4
 573 001e 184A     		ldr	r2, .L56+8
 574 0020 2146     		mov	r1, r4
 575 0022 2846     		mov	r0, r5
 576 0024 FFF7FEFF 		bl	mpu_dmp_get_data
ARM GAS  C:\Users\ktkuru\AppData\Local\Temp\ccTpUHaP.s 			page 11


 577 0028 D5ED000A 		vldr.32	s1, [r5]
 578 002c 94ED000A 		vldr.32	s0, [r4]
 579 0030 FFF7FEFF 		bl	GetPolar
 580 0034 134B     		ldr	r3, .L56+12
 581 0036 93ED000A 		vldr.32	s0, [r3]
 582 003a DFED137A 		vldr.32	s15, .L56+16
 583 003e B4EE670A 		vcmp.f32	s0, s15
 584 0042 F1EE10FA 		vmrs	APSR_nzcv, FPSCR
 585 0046 04D0     		beq	.L52
 586 0048 B5EE400A 		vcmp.f32	s0, #0
 587 004c F1EE10FA 		vmrs	APSR_nzcv, FPSCR
 588 0050 0BD1     		bne	.L53
 589              	.L52:
 590 0052 FCEEC07A 		vcvt.u32.f32	s15, s0
 591 0056 CDED017A 		vstr.32	s15, [sp, #4]	@ int
 592 005a 9DF80400 		ldrb	r0, [sp, #4]	@ zero_extendqisi2
 593 005e 0B4B     		ldr	r3, .L56+20
 594 0060 93ED000A 		vldr.32	s0, [r3]
 595 0064 FFF7FEFF 		bl	Task1_LineMove
 596 0068 D1E7     		b	.L50
 597              	.L53:
 598 006a 084B     		ldr	r3, .L56+20
 599 006c D3ED000A 		vldr.32	s1, [r3]
 600 0070 FFF7FEFF 		bl	Task3_AngleMove
 601 0074 CBE7     		b	.L50
 602              	.L57:
 603 0076 00BF     		.align	2
 604              	.L56:
 605 0078 00000000 		.word	roll
 606 007c 00000000 		.word	pitch
 607 0080 00000000 		.word	yaw
 608 0084 00000000 		.word	Target_angle
 609 0088 0000B442 		.word	1119092736
 610 008c 00000000 		.word	Target_dis
 612              		.section	.text.Task5_CircleMove,"ax",%progbits
 613              		.align	1
 614              		.global	Task5_CircleMove
 615              		.syntax unified
 616              		.thumb
 617              		.thumb_func
 619              	Task5_CircleMove:
 620              		@ args = 0, pretend = 0, frame = 0
 621              		@ frame_needed = 0, uses_anonymous_args = 0
 622 0000 F0B5     		push	{r4, r5, r6, r7, lr}
 623 0002 2DED028B 		vpush.64	{d8}
 624 0006 83B0     		sub	sp, sp, #12
 625 0008 10EE100A 		vmov	r0, s0
 626 000c FFF7FEFF 		bl	__aeabi_f2d
 627 0010 9DA3     		adr	r3, .L77+96
 628 0012 D3E90023 		ldrd	r2, [r3]
 629 0016 FFF7FEFF 		bl	__aeabi_ddiv
 630 001a FFF7FEFF 		bl	__aeabi_d2f
 631 001e 00EE100A 		vmov	s0, r0
 632 0022 FFF7FEFF 		bl	asinf
 633 0026 DFED8A7A 		vldr.32	s15, .L77+40
 634 002a 60EE277A 		vmul.f32	s15, s0, s15
 635 002e 17EE900A 		vmov	r0, s15
ARM GAS  C:\Users\ktkuru\AppData\Local\Temp\ccTpUHaP.s 			page 12


 636 0032 FFF7FEFF 		bl	__aeabi_f2d
 637 0036 7CA3     		adr	r3, .L77
 638 0038 D3E90023 		ldrd	r2, [r3]
 639 003c FFF7FEFF 		bl	__aeabi_ddiv
 640 0040 FFF7FEFF 		bl	__aeabi_d2f
 641 0044 08EE100A 		vmov	s16, r0
 642 0048 824B     		ldr	r3, .L77+44
 643 004a 1860     		str	r0, [r3]	@ float
 644 004c 824C     		ldr	r4, .L77+48
 645 004e 2068     		ldr	r0, [r4]	@ float
 646 0050 FFF7FEFF 		bl	__aeabi_f2d
 647 0054 76A3     		adr	r3, .L77+8
 648 0056 D3E90023 		ldrd	r2, [r3]
 649 005a FFF7FEFF 		bl	__aeabi_ddiv
 650 005e 76A3     		adr	r3, .L77+16
 651 0060 D3E90023 		ldrd	r2, [r3]
 652 0064 FFF7FEFF 		bl	__aeabi_dmul
 653 0068 0646     		mov	r6, r0
 654 006a 0F46     		mov	r7, r1
 655 006c FFF7FEFF 		bl	__aeabi_d2f
 656 0070 00EE100A 		vmov	s0, r0
 657 0074 FFF7FEFF 		bl	sinf
 658 0078 28EE000A 		vmul.f32	s0, s16, s0
 659 007c 774D     		ldr	r5, .L77+52
 660 007e 85ED000A 		vstr.32	s0, [r5]
 661 0082 6FA3     		adr	r3, .L77+24
 662 0084 D3E90023 		ldrd	r2, [r3]
 663 0088 3046     		mov	r0, r6
 664 008a 3946     		mov	r1, r7
 665 008c FFF7FEFF 		bl	__aeabi_dsub
 666 0090 FFF7FEFF 		bl	__aeabi_d2f
 667 0094 00EE100A 		vmov	s0, r0
 668 0098 FFF7FEFF 		bl	sinf
 669 009c 28EE008A 		vmul.f32	s16, s16, s0
 670 00a0 6F4E     		ldr	r6, .L77+56
 671 00a2 86ED008A 		vstr.32	s16, [r6]
 672 00a6 6F4B     		ldr	r3, .L77+60
 673 00a8 1868     		ldr	r0, [r3]	@ float
 674 00aa FFF7FEFF 		bl	__aeabi_f2d
 675 00ae 0246     		mov	r2, r0
 676 00b0 0B46     		mov	r3, r1
 677 00b2 0021     		movs	r1, #0
 678 00b4 0091     		str	r1, [sp]
 679 00b6 6C48     		ldr	r0, .L77+64
 680 00b8 FFF7FEFF 		bl	printf
 681 00bc 6B48     		ldr	r0, .L77+68
 682 00be C368     		ldr	r3, [r0, #12]
 683 00c0 6B4A     		ldr	r2, .L77+72
 684 00c2 D2ED000A 		vldr.32	s1, [r2]
 685 00c6 95ED000A 		vldr.32	s0, [r5]
 686 00ca 9847     		blx	r3
 687 00cc 694B     		ldr	r3, .L77+76
 688 00ce 83ED000A 		vstr.32	s0, [r3]
 689 00d2 6948     		ldr	r0, .L77+80
 690 00d4 C368     		ldr	r3, [r0, #12]
 691 00d6 694A     		ldr	r2, .L77+84
 692 00d8 D2ED000A 		vldr.32	s1, [r2]
ARM GAS  C:\Users\ktkuru\AppData\Local\Temp\ccTpUHaP.s 			page 13


 693 00dc 96ED000A 		vldr.32	s0, [r6]
 694 00e0 9847     		blx	r3
 695 00e2 674B     		ldr	r3, .L77+88
 696 00e4 83ED000A 		vstr.32	s0, [r3]
 697 00e8 2068     		ldr	r0, [r4]	@ float
 698 00ea FFF7FEFF 		bl	__aeabi_f2d
 699 00ee 56A3     		adr	r3, .L77+32
 700 00f0 D3E90023 		ldrd	r2, [r3]
 701 00f4 FFF7FEFF 		bl	__aeabi_dadd
 702 00f8 FFF7FEFF 		bl	__aeabi_d2f
 703 00fc 2060     		str	r0, [r4]	@ float
 704 00fe FFF7FEFF 		bl	__aeabi_f2d
 705 0102 4BA3     		adr	r3, .L77+8
 706 0104 D3E90023 		ldrd	r2, [r3]
 707 0108 FFF7FEFF 		bl	__aeabi_dcmplt
 708 010c 0028     		cmp	r0, #0
 709 010e 00F08280 		beq	.L72
 710 0112 584B     		ldr	r3, .L77+76
 711 0114 D3ED007A 		vldr.32	s15, [r3]
 712 0118 F5EEC07A 		vcmpe.f32	s15, #0
 713 011c F1EE10FA 		vmrs	APSR_nzcv, FPSCR
 714 0120 3BDD     		ble	.L73
 715 0122 0121     		movs	r1, #1
 716 0124 0420     		movs	r0, #4
 717 0126 FFF7FEFF 		bl	Motor_Cmd
 718 012a 0021     		movs	r1, #0
 719 012c 0320     		movs	r0, #3
 720 012e FFF7FEFF 		bl	Motor_Cmd
 721 0132 504B     		ldr	r3, .L77+76
 722 0134 D3ED007A 		vldr.32	s15, [r3]
 723 0138 FCEEE77A 		vcvt.u32.f32	s15, s15
 724 013c 514B     		ldr	r3, .L77+92
 725 013e C3ED107A 		vstr.32	s15, [r3, #64]	@ int
 726 0142 4F4B     		ldr	r3, .L77+88
 727 0144 D3ED007A 		vldr.32	s15, [r3]
 728 0148 F5EEC07A 		vcmpe.f32	s15, #0
 729 014c F1EE10FA 		vmrs	APSR_nzcv, FPSCR
 730 0150 10DD     		ble	.L74
 731 0152 0121     		movs	r1, #1
 732 0154 0220     		movs	r0, #2
 733 0156 FFF7FEFF 		bl	Motor_Cmd
 734 015a 0021     		movs	r1, #0
 735 015c 0120     		movs	r0, #1
 736 015e FFF7FEFF 		bl	Motor_Cmd
 737 0162 474B     		ldr	r3, .L77+88
 738 0164 D3ED007A 		vldr.32	s15, [r3]
 739 0168 FCEEE77A 		vcvt.u32.f32	s15, s15
 740 016c 454B     		ldr	r3, .L77+92
 741 016e C3ED0E7A 		vstr.32	s15, [r3, #56]	@ int
 742 0172 53E0     		b	.L58
 743              	.L74:
 744 0174 0021     		movs	r1, #0
 745 0176 0220     		movs	r0, #2
 746 0178 FFF7FEFF 		bl	Motor_Cmd
 747 017c 0121     		movs	r1, #1
 748 017e 0846     		mov	r0, r1
 749 0180 FFF7FEFF 		bl	Motor_Cmd
ARM GAS  C:\Users\ktkuru\AppData\Local\Temp\ccTpUHaP.s 			page 14


 750 0184 3E4B     		ldr	r3, .L77+88
 751 0186 D3ED007A 		vldr.32	s15, [r3]
 752 018a F1EE677A 		vneg.f32	s15, s15
 753 018e FCEEE77A 		vcvt.u32.f32	s15, s15
 754 0192 3C4B     		ldr	r3, .L77+92
 755 0194 C3ED0D7A 		vstr.32	s15, [r3, #52]	@ int
 756 0198 40E0     		b	.L58
 757              	.L73:
 758 019a 0021     		movs	r1, #0
 759 019c 0420     		movs	r0, #4
 760 019e FFF7FEFF 		bl	Motor_Cmd
 761 01a2 0121     		movs	r1, #1
 762 01a4 0320     		movs	r0, #3
 763 01a6 FFF7FEFF 		bl	Motor_Cmd
 764 01aa 324B     		ldr	r3, .L77+76
 765 01ac D3ED007A 		vldr.32	s15, [r3]
 766 01b0 F1EE677A 		vneg.f32	s15, s15
 767 01b4 FCEEE77A 		vcvt.u32.f32	s15, s15
 768 01b8 324B     		ldr	r3, .L77+92
 769 01ba C3ED0F7A 		vstr.32	s15, [r3, #60]	@ int
 770 01be 304B     		ldr	r3, .L77+88
 771 01c0 D3ED007A 		vldr.32	s15, [r3]
 772 01c4 F5EEC07A 		vcmpe.f32	s15, #0
 773 01c8 F1EE10FA 		vmrs	APSR_nzcv, FPSCR
 774 01cc 10DD     		ble	.L75
 775 01ce 0121     		movs	r1, #1
 776 01d0 0220     		movs	r0, #2
 777 01d2 FFF7FEFF 		bl	Motor_Cmd
 778 01d6 0021     		movs	r1, #0
 779 01d8 0120     		movs	r0, #1
 780 01da FFF7FEFF 		bl	Motor_Cmd
 781 01de 284B     		ldr	r3, .L77+88
 782 01e0 D3ED007A 		vldr.32	s15, [r3]
 783 01e4 FCEEE77A 		vcvt.u32.f32	s15, s15
 784 01e8 264B     		ldr	r3, .L77+92
 785 01ea C3ED0E7A 		vstr.32	s15, [r3, #56]	@ int
 786 01ee 15E0     		b	.L58
 787              	.L75:
 788 01f0 0021     		movs	r1, #0
 789 01f2 0220     		movs	r0, #2
 790 01f4 FFF7FEFF 		bl	Motor_Cmd
 791 01f8 0121     		movs	r1, #1
 792 01fa 0846     		mov	r0, r1
 793 01fc FFF7FEFF 		bl	Motor_Cmd
 794 0200 1F4B     		ldr	r3, .L77+88
 795 0202 D3ED007A 		vldr.32	s15, [r3]
 796 0206 F1EE677A 		vneg.f32	s15, s15
 797 020a FCEEE77A 		vcvt.u32.f32	s15, s15
 798 020e 1D4B     		ldr	r3, .L77+92
 799 0210 C3ED0D7A 		vstr.32	s15, [r3, #52]	@ int
 800 0214 02E0     		b	.L58
 801              	.L72:
 802 0216 104B     		ldr	r3, .L77+48
 803 0218 0022     		movs	r2, #0
 804 021a 1A60     		str	r2, [r3]	@ float
 805              	.L58:
 806 021c 03B0     		add	sp, sp, #12
ARM GAS  C:\Users\ktkuru\AppData\Local\Temp\ccTpUHaP.s 			page 15


 807              		@ sp needed
 808 021e BDEC028B 		vldm	sp!, {d8}
 809 0222 F0BD     		pop	{r4, r5, r6, r7, pc}
 810              	.L78:
 811 0224 AFF30080 		.align	3
 812              	.L77:
 813 0228 4AD8124D 		.word	1293080650
 814 022c FB210940 		.word	1074340347
 815 0230 0C022B87 		.word	-2027224564
 816 0234 16D9FA3F 		.word	1073404182
 817 0238 4AD8124D 		.word	1293080650
 818 023c FB211940 		.word	1075388923
 819 0240 4AD8124D 		.word	1293080650
 820 0244 FB21F93F 		.word	1073291771
 821 0248 7B14AE47 		.word	1202590843
 822 024c E17A743F 		.word	1064598241
 823 0250 00003443 		.word	1127481344
 824 0254 00000000 		.word	A.7
 825 0258 00000000 		.word	time.6
 826 025c 00000000 		.word	Vtarget_angle.5
 827 0260 00000000 		.word	Ltarget_angle.4
 828 0264 00000000 		.word	dis
 829 0268 00000000 		.word	.LC0
 830 026c 00000000 		.word	Taks5Pid.3
 831 0270 00000000 		.word	roll
 832 0274 00000000 		.word	VOutput.2
 833 0278 00000000 		.word	Taks5Pid2.1
 834 027c 00000000 		.word	pitch
 835 0280 00000000 		.word	LOutput.0
 836 0284 00040140 		.word	1073808384
 837 0288 85EB51B8 		.word	-1202590843
 838 028c 1E85EB3F 		.word	1072399646
 840              		.section	.bss.LOutput.0,"aw",%nobits
 841              		.align	2
 844              	LOutput.0:
 845 0000 00000000 		.space	4
 846              		.section	.data.Taks5Pid2.1,"aw"
 847              		.align	2
 850              	Taks5Pid2.1:
 851 0000 00009643 		.word	1133903872
 852 0004 00000000 		.word	0
 853 0008 00000000 		.word	0
 854 000c 00000000 		.word	PidControl_LineMove
 855              		.section	.bss.VOutput.2,"aw",%nobits
 856              		.align	2
 859              	VOutput.2:
 860 0000 00000000 		.space	4
 861              		.section	.data.Taks5Pid.3,"aw"
 862              		.align	2
 865              	Taks5Pid.3:
 866 0000 00009643 		.word	1133903872
 867 0004 00000000 		.word	0
 868 0008 00000000 		.word	0
 869 000c 00000000 		.word	PidControl_LineMove
 870              		.section	.bss.Ltarget_angle.4,"aw",%nobits
 871              		.align	2
 874              	Ltarget_angle.4:
ARM GAS  C:\Users\ktkuru\AppData\Local\Temp\ccTpUHaP.s 			page 16


 875 0000 00000000 		.space	4
 876              		.section	.bss.Vtarget_angle.5,"aw",%nobits
 877              		.align	2
 880              	Vtarget_angle.5:
 881 0000 00000000 		.space	4
 882              		.section	.bss.time.6,"aw",%nobits
 883              		.align	2
 886              	time.6:
 887 0000 00000000 		.space	4
 888              		.section	.bss.A.7,"aw",%nobits
 889              		.align	2
 892              	A.7:
 893 0000 00000000 		.space	4
 894              		.section	.data.Taks3Pid2.8,"aw"
 895              		.align	2
 898              	Taks3Pid2.8:
 899 0000 0080D943 		.word	1138327552
 900 0004 00000000 		.word	0
 901 0008 000048C2 		.word	-1035468800
 902 000c 00000000 		.word	PidControl_LineMove
 903              		.section	.data.Taks3Pid.9,"aw"
 904              		.align	2
 907              	Taks3Pid.9:
 908 0000 0080D943 		.word	1138327552
 909 0004 00000000 		.word	0
 910 0008 000048C2 		.word	-1035468800
 911 000c 00000000 		.word	PidControl_LineMove
 912              		.section	.bss.LOutput.10,"aw",%nobits
 913              		.align	2
 916              	LOutput.10:
 917 0000 00000000 		.space	4
 918              		.section	.bss.VOutput.11,"aw",%nobits
 919              		.align	2
 922              	VOutput.11:
 923 0000 00000000 		.space	4
 924              		.section	.bss.Ltarget_angle.12,"aw",%nobits
 925              		.align	2
 928              	Ltarget_angle.12:
 929 0000 00000000 		.space	4
 930              		.section	.bss.Vtarget_angle.13,"aw",%nobits
 931              		.align	2
 934              	Vtarget_angle.13:
 935 0000 00000000 		.space	4
 936              		.section	.bss.time.14,"aw",%nobits
 937              		.align	2
 940              	time.14:
 941 0000 00000000 		.space	4
 942              		.section	.bss.target_pitch.15,"aw",%nobits
 943              		.align	2
 946              	target_pitch.15:
 947 0000 00000000 		.space	4
 948              		.section	.bss.target_roll.16,"aw",%nobits
 949              		.align	2
 952              	target_roll.16:
 953 0000 00000000 		.space	4
 954              		.section	.bss.LOutput.17,"aw",%nobits
 955              		.align	2
ARM GAS  C:\Users\ktkuru\AppData\Local\Temp\ccTpUHaP.s 			page 17


 958              	LOutput.17:
 959 0000 00000000 		.space	4
 960              		.section	.bss.VOutput.18,"aw",%nobits
 961              		.align	2
 964              	VOutput.18:
 965 0000 00000000 		.space	4
 966              		.section	.data.Taks1Pid.19,"aw"
 967              		.align	2
 970              	Taks1Pid.19:
 971 0000 00802C44 		.word	1143767040
 972 0004 00000000 		.word	0
 973 0008 0000C8C3 		.word	-1010302976
 974 000c 00000000 		.word	PidControl_LineMove
 975              		.section	.bss.time.20,"aw",%nobits
 976              		.align	2
 979              	time.20:
 980 0000 00000000 		.space	4
 981              		.section	.bss.A.21,"aw",%nobits
 982              		.align	2
 985              	A.21:
 986 0000 00000000 		.space	4
 987              		.section	.bss.Output.22,"aw",%nobits
 988              		.align	2
 991              	Output.22:
 992 0000 00000000 		.space	4
 993              		.section	.data.Taks4Pid.23,"aw"
 994              		.align	2
 997              	Taks4Pid.23:
 998 0000 00006144 		.word	1147207680
 999 0004 000080BF 		.word	-1082130432
 1000 0008 00000000 		.word	0
 1001 000c 00000000 		.word	PidControl_Stop
 1002              		.global	target_angle
 1003              		.section	.bss.target_angle,"aw",%nobits
 1004              		.align	2
 1007              	target_angle:
 1008 0000 00000000 		.space	4
 1009              		.global	Target_angle
 1010              		.section	.bss.Target_angle,"aw",%nobits
 1011              		.align	2
 1014              	Target_angle:
 1015 0000 00000000 		.space	4
 1016              		.global	Target_dis
 1017              		.section	.data.Target_dis,"aw"
 1018              		.align	2
 1021              	Target_dis:
 1022 0000 CDCC4C3E 		.word	1045220557
 1023              		.ident	"GCC: (Arm GNU Toolchain 13.3.Rel1 (Build arm-13.24)) 13.3.1 20240614"
ARM GAS  C:\Users\ktkuru\AppData\Local\Temp\ccTpUHaP.s 			page 18


DEFINED SYMBOLS
                            *ABS*:00000000 Control_Task.c
C:\Users\ktkuru\AppData\Local\Temp\ccTpUHaP.s:18     .text.Task4_StopFast:00000000 $t
C:\Users\ktkuru\AppData\Local\Temp\ccTpUHaP.s:24     .text.Task4_StopFast:00000000 Task4_StopFast
C:\Users\ktkuru\AppData\Local\Temp\ccTpUHaP.s:40     .text.Task4_StopFast:0000001c $d
C:\Users\ktkuru\AppData\Local\Temp\ccTpUHaP.s:997    .data.Taks4Pid.23:00000000 Taks4Pid.23
C:\Users\ktkuru\AppData\Local\Temp\ccTpUHaP.s:991    .bss.Output.22:00000000 Output.22
C:\Users\ktkuru\AppData\Local\Temp\ccTpUHaP.s:52     .text.Task1_LineMove:00000000 $t
C:\Users\ktkuru\AppData\Local\Temp\ccTpUHaP.s:58     .text.Task1_LineMove:00000000 Task1_LineMove
C:\Users\ktkuru\AppData\Local\Temp\ccTpUHaP.s:231    .text.Task1_LineMove:000001d8 $d
C:\Users\ktkuru\AppData\Local\Temp\ccTpUHaP.s:985    .bss.A.21:00000000 A.21
C:\Users\ktkuru\AppData\Local\Temp\ccTpUHaP.s:979    .bss.time.20:00000000 time.20
C:\Users\ktkuru\AppData\Local\Temp\ccTpUHaP.s:1007   .bss.target_angle:00000000 target_angle
C:\Users\ktkuru\AppData\Local\Temp\ccTpUHaP.s:970    .data.Taks1Pid.19:00000000 Taks1Pid.19
C:\Users\ktkuru\AppData\Local\Temp\ccTpUHaP.s:964    .bss.VOutput.18:00000000 VOutput.18
C:\Users\ktkuru\AppData\Local\Temp\ccTpUHaP.s:958    .bss.LOutput.17:00000000 LOutput.17
C:\Users\ktkuru\AppData\Local\Temp\ccTpUHaP.s:255    .rodata.Task3_AngleMove.str1.4:00000000 $d
C:\Users\ktkuru\AppData\Local\Temp\ccTpUHaP.s:259    .text.Task3_AngleMove:00000000 $t
C:\Users\ktkuru\AppData\Local\Temp\ccTpUHaP.s:265    .text.Task3_AngleMove:00000000 Task3_AngleMove
C:\Users\ktkuru\AppData\Local\Temp\ccTpUHaP.s:517    .text.Task3_AngleMove:000002d8 $d
C:\Users\ktkuru\AppData\Local\Temp\ccTpUHaP.s:952    .bss.target_roll.16:00000000 target_roll.16
C:\Users\ktkuru\AppData\Local\Temp\ccTpUHaP.s:946    .bss.target_pitch.15:00000000 target_pitch.15
C:\Users\ktkuru\AppData\Local\Temp\ccTpUHaP.s:940    .bss.time.14:00000000 time.14
C:\Users\ktkuru\AppData\Local\Temp\ccTpUHaP.s:934    .bss.Vtarget_angle.13:00000000 Vtarget_angle.13
C:\Users\ktkuru\AppData\Local\Temp\ccTpUHaP.s:928    .bss.Ltarget_angle.12:00000000 Ltarget_angle.12
C:\Users\ktkuru\AppData\Local\Temp\ccTpUHaP.s:922    .bss.VOutput.11:00000000 VOutput.11
C:\Users\ktkuru\AppData\Local\Temp\ccTpUHaP.s:916    .bss.LOutput.10:00000000 LOutput.10
C:\Users\ktkuru\AppData\Local\Temp\ccTpUHaP.s:907    .data.Taks3Pid.9:00000000 Taks3Pid.9
C:\Users\ktkuru\AppData\Local\Temp\ccTpUHaP.s:898    .data.Taks3Pid2.8:00000000 Taks3Pid2.8
C:\Users\ktkuru\AppData\Local\Temp\ccTpUHaP.s:550    .text.EXTI15_10_IRQHandler:00000000 $t
C:\Users\ktkuru\AppData\Local\Temp\ccTpUHaP.s:556    .text.EXTI15_10_IRQHandler:00000000 EXTI15_10_IRQHandler
C:\Users\ktkuru\AppData\Local\Temp\ccTpUHaP.s:605    .text.EXTI15_10_IRQHandler:00000078 $d
C:\Users\ktkuru\AppData\Local\Temp\ccTpUHaP.s:1014   .bss.Target_angle:00000000 Target_angle
C:\Users\ktkuru\AppData\Local\Temp\ccTpUHaP.s:1021   .data.Target_dis:00000000 Target_dis
C:\Users\ktkuru\AppData\Local\Temp\ccTpUHaP.s:613    .text.Task5_CircleMove:00000000 $t
C:\Users\ktkuru\AppData\Local\Temp\ccTpUHaP.s:619    .text.Task5_CircleMove:00000000 Task5_CircleMove
C:\Users\ktkuru\AppData\Local\Temp\ccTpUHaP.s:813    .text.Task5_CircleMove:00000228 $d
C:\Users\ktkuru\AppData\Local\Temp\ccTpUHaP.s:892    .bss.A.7:00000000 A.7
C:\Users\ktkuru\AppData\Local\Temp\ccTpUHaP.s:886    .bss.time.6:00000000 time.6
C:\Users\ktkuru\AppData\Local\Temp\ccTpUHaP.s:880    .bss.Vtarget_angle.5:00000000 Vtarget_angle.5
C:\Users\ktkuru\AppData\Local\Temp\ccTpUHaP.s:874    .bss.Ltarget_angle.4:00000000 Ltarget_angle.4
C:\Users\ktkuru\AppData\Local\Temp\ccTpUHaP.s:865    .data.Taks5Pid.3:00000000 Taks5Pid.3
C:\Users\ktkuru\AppData\Local\Temp\ccTpUHaP.s:859    .bss.VOutput.2:00000000 VOutput.2
C:\Users\ktkuru\AppData\Local\Temp\ccTpUHaP.s:850    .data.Taks5Pid2.1:00000000 Taks5Pid2.1
C:\Users\ktkuru\AppData\Local\Temp\ccTpUHaP.s:844    .bss.LOutput.0:00000000 LOutput.0
C:\Users\ktkuru\AppData\Local\Temp\ccTpUHaP.s:841    .bss.LOutput.0:00000000 $d
C:\Users\ktkuru\AppData\Local\Temp\ccTpUHaP.s:847    .data.Taks5Pid2.1:00000000 $d
C:\Users\ktkuru\AppData\Local\Temp\ccTpUHaP.s:856    .bss.VOutput.2:00000000 $d
C:\Users\ktkuru\AppData\Local\Temp\ccTpUHaP.s:862    .data.Taks5Pid.3:00000000 $d
C:\Users\ktkuru\AppData\Local\Temp\ccTpUHaP.s:871    .bss.Ltarget_angle.4:00000000 $d
C:\Users\ktkuru\AppData\Local\Temp\ccTpUHaP.s:877    .bss.Vtarget_angle.5:00000000 $d
C:\Users\ktkuru\AppData\Local\Temp\ccTpUHaP.s:883    .bss.time.6:00000000 $d
C:\Users\ktkuru\AppData\Local\Temp\ccTpUHaP.s:889    .bss.A.7:00000000 $d
C:\Users\ktkuru\AppData\Local\Temp\ccTpUHaP.s:895    .data.Taks3Pid2.8:00000000 $d
C:\Users\ktkuru\AppData\Local\Temp\ccTpUHaP.s:904    .data.Taks3Pid.9:00000000 $d
C:\Users\ktkuru\AppData\Local\Temp\ccTpUHaP.s:913    .bss.LOutput.10:00000000 $d
C:\Users\ktkuru\AppData\Local\Temp\ccTpUHaP.s:919    .bss.VOutput.11:00000000 $d
ARM GAS  C:\Users\ktkuru\AppData\Local\Temp\ccTpUHaP.s 			page 19


C:\Users\ktkuru\AppData\Local\Temp\ccTpUHaP.s:925    .bss.Ltarget_angle.12:00000000 $d
C:\Users\ktkuru\AppData\Local\Temp\ccTpUHaP.s:931    .bss.Vtarget_angle.13:00000000 $d
C:\Users\ktkuru\AppData\Local\Temp\ccTpUHaP.s:937    .bss.time.14:00000000 $d
C:\Users\ktkuru\AppData\Local\Temp\ccTpUHaP.s:943    .bss.target_pitch.15:00000000 $d
C:\Users\ktkuru\AppData\Local\Temp\ccTpUHaP.s:949    .bss.target_roll.16:00000000 $d
C:\Users\ktkuru\AppData\Local\Temp\ccTpUHaP.s:955    .bss.LOutput.17:00000000 $d
C:\Users\ktkuru\AppData\Local\Temp\ccTpUHaP.s:961    .bss.VOutput.18:00000000 $d
C:\Users\ktkuru\AppData\Local\Temp\ccTpUHaP.s:967    .data.Taks1Pid.19:00000000 $d
C:\Users\ktkuru\AppData\Local\Temp\ccTpUHaP.s:976    .bss.time.20:00000000 $d
C:\Users\ktkuru\AppData\Local\Temp\ccTpUHaP.s:982    .bss.A.21:00000000 $d
C:\Users\ktkuru\AppData\Local\Temp\ccTpUHaP.s:988    .bss.Output.22:00000000 $d
C:\Users\ktkuru\AppData\Local\Temp\ccTpUHaP.s:994    .data.Taks4Pid.23:00000000 $d
C:\Users\ktkuru\AppData\Local\Temp\ccTpUHaP.s:1004   .bss.target_angle:00000000 $d
C:\Users\ktkuru\AppData\Local\Temp\ccTpUHaP.s:1011   .bss.Target_angle:00000000 $d
C:\Users\ktkuru\AppData\Local\Temp\ccTpUHaP.s:1018   .data.Target_dis:00000000 $d

UNDEFINED SYMBOLS
dis
__aeabi_f2d
__aeabi_ddiv
__aeabi_d2f
__aeabi_dmul
__aeabi_dadd
__aeabi_dcmplt
atanf
sinf
Motor_Cmd
roll
pitch
__aeabi_dsub
cosf
printf
T3Motor_CmdCombination
EXTI_GetITStatus
EXTI_ClearITPendingBit
mpu_dmp_get_data
GetPolar
yaw
asinf
PidControl_LineMove
PidControl_Stop
