ARM GAS  C:\Users\ktkuru\AppData\Local\Temp\ccfUPDLe.s 			page 1


   1              		.cpu cortex-m4
   2              		.arch armv7e-m
   3              		.fpu fpv4-sp-d16
   4              		.eabi_attribute 27, 1
   5              		.eabi_attribute 28, 1
   6              		.eabi_attribute 20, 1
   7              		.eabi_attribute 21, 1
   8              		.eabi_attribute 23, 3
   9              		.eabi_attribute 24, 1
  10              		.eabi_attribute 25, 1
  11              		.eabi_attribute 26, 1
  12              		.eabi_attribute 30, 1
  13              		.eabi_attribute 34, 1
  14              		.eabi_attribute 18, 4
  15              		.file	"Control_Task.c"
  16              		.text
  17              		.section	.text.Task4_StopFast,"ax",%progbits
  18              		.align	1
  19              		.global	Task4_StopFast
  20              		.syntax unified
  21              		.thumb
  22              		.thumb_func
  24              	Task4_StopFast:
  25              		@ args = 0, pretend = 0, frame = 0
  26              		@ frame_needed = 0, uses_anonymous_args = 0
  27 0000 08B5     		push	{r3, lr}
  28 0002 064B     		ldr	r3, .L3
  29 0004 D3ED000A 		vldr.32	s1, [r3]
  30 0008 9FED050A 		vldr.32	s0, .L3+4
  31 000c FFF7FEFF 		bl	PidControl_Stop
  32 0010 044B     		ldr	r3, .L3+8
  33 0012 83ED000A 		vstr.32	s0, [r3]
  34 0016 FFF7FEFF 		bl	PWM_Allocation
  35 001a 08BD     		pop	{r3, pc}
  36              	.L4:
  37              		.align	2
  38              	.L3:
  39 001c 00000000 		.word	dis
  40 0020 00000000 		.word	0
  41 0024 00000000 		.word	Output.8
  43              		.global	__aeabi_f2d
  44              		.global	__aeabi_ddiv
  45              		.global	__aeabi_d2f
  46              		.global	__aeabi_dmul
  47              		.section	.rodata.Task1_LineMove.str1.4,"aMS",%progbits,1
  48              		.align	2
  49              	.LC0:
  50 0000 25662C25 		.ascii	"%f,%f\015\012\000"
  50      660D0A00 
  51              		.global	__aeabi_dadd
  52              		.global	__aeabi_dcmplt
  53              		.section	.text.Task1_LineMove,"ax",%progbits
  54              		.align	1
  55              		.global	Task1_LineMove
  56              		.syntax unified
  57              		.thumb
  58              		.thumb_func
ARM GAS  C:\Users\ktkuru\AppData\Local\Temp\ccfUPDLe.s 			page 2


  60              	Task1_LineMove:
  61              		@ args = 0, pretend = 0, frame = 0
  62              		@ frame_needed = 0, uses_anonymous_args = 0
  63 0000 2DE9F041 		push	{r4, r5, r6, r7, r8, lr}
  64 0004 2DED028B 		vpush.64	{d8}
  65 0008 82B0     		sub	sp, sp, #8
  66 000a 10EE100A 		vmov	r0, s0
  67 000e FFF7FEFF 		bl	__aeabi_f2d
  68 0012 62A3     		adr	r3, .L16+68
  69 0014 D3E90023 		ldrd	r2, [r3]
  70 0018 FFF7FEFF 		bl	__aeabi_ddiv
  71 001c FFF7FEFF 		bl	__aeabi_d2f
  72 0020 00EE100A 		vmov	s0, r0
  73 0024 FFF7FEFF 		bl	atanf
  74 0028 DFED537A 		vldr.32	s15, .L16+32
  75 002c 60EE277A 		vmul.f32	s15, s0, s15
  76 0030 17EE900A 		vmov	r0, s15
  77 0034 FFF7FEFF 		bl	__aeabi_f2d
  78 0038 47A3     		adr	r3, .L16
  79 003a D3E90023 		ldrd	r2, [r3]
  80 003e FFF7FEFF 		bl	__aeabi_ddiv
  81 0042 FFF7FEFF 		bl	__aeabi_d2f
  82 0046 08EE100A 		vmov	s16, r0
  83 004a 4C4B     		ldr	r3, .L16+36
  84 004c 1860     		str	r0, [r3]	@ float
  85 004e 4C4C     		ldr	r4, .L16+40
  86 0050 2068     		ldr	r0, [r4]	@ float
  87 0052 FFF7FEFF 		bl	__aeabi_f2d
  88 0056 42A3     		adr	r3, .L16+8
  89 0058 D3E90023 		ldrd	r2, [r3]
  90 005c FFF7FEFF 		bl	__aeabi_dmul
  91 0060 41A3     		adr	r3, .L16+16
  92 0062 D3E90023 		ldrd	r2, [r3]
  93 0066 FFF7FEFF 		bl	__aeabi_ddiv
  94 006a FFF7FEFF 		bl	__aeabi_d2f
  95 006e 00EE100A 		vmov	s0, r0
  96 0072 FFF7FEFF 		bl	sinf
  97 0076 28EE008A 		vmul.f32	s16, s16, s0
  98 007a 424D     		ldr	r5, .L16+44
  99 007c 85ED008A 		vstr.32	s16, [r5]
 100 0080 18EE100A 		vmov	r0, s16
 101 0084 FFF7FEFF 		bl	__aeabi_f2d
 102 0088 0646     		mov	r6, r0
 103 008a 0F46     		mov	r7, r1
 104 008c DFF81481 		ldr	r8, .L16+76
 105 0090 D8F80000 		ldr	r0, [r8]	@ float
 106 0094 FFF7FEFF 		bl	__aeabi_f2d
 107 0098 CDE90001 		strd	r0, [sp]
 108 009c 3246     		mov	r2, r6
 109 009e 3B46     		mov	r3, r7
 110 00a0 3948     		ldr	r0, .L16+48
 111 00a2 FFF7FEFF 		bl	printf
 112 00a6 394B     		ldr	r3, .L16+52
 113 00a8 D3ED000A 		vldr.32	s1, [r3]
 114 00ac 95ED000A 		vldr.32	s0, [r5]
 115 00b0 FFF7FEFF 		bl	PidControl_LineMove
 116 00b4 364B     		ldr	r3, .L16+56
ARM GAS  C:\Users\ktkuru\AppData\Local\Temp\ccfUPDLe.s 			page 3


 117 00b6 83ED000A 		vstr.32	s0, [r3]
 118 00ba D8ED000A 		vldr.32	s1, [r8]
 119 00be 95ED000A 		vldr.32	s0, [r5]
 120 00c2 FFF7FEFF 		bl	PidControl_LineMove
 121 00c6 B0EE408A 		vmov.f32	s16, s0
 122 00ca 324B     		ldr	r3, .L16+60
 123 00cc 83ED000A 		vstr.32	s0, [r3]
 124 00d0 2068     		ldr	r0, [r4]	@ float
 125 00d2 FFF7FEFF 		bl	__aeabi_f2d
 126 00d6 26A3     		adr	r3, .L16+24
 127 00d8 D3E90023 		ldrd	r2, [r3]
 128 00dc FFF7FEFF 		bl	__aeabi_dadd
 129 00e0 FFF7FEFF 		bl	__aeabi_d2f
 130 00e4 2060     		str	r0, [r4]	@ float
 131 00e6 FFF7FEFF 		bl	__aeabi_f2d
 132 00ea 1FA3     		adr	r3, .L16+16
 133 00ec D3E90023 		ldrd	r2, [r3]
 134 00f0 FFF7FEFF 		bl	__aeabi_dcmplt
 135 00f4 40B3     		cbz	r0, .L13
 136 00f6 B5EEC08A 		vcmpe.f32	s16, #0
 137 00fa F1EE10FA 		vmrs	APSR_nzcv, FPSCR
 138 00fe 10DD     		ble	.L14
 139 0100 0121     		movs	r1, #1
 140 0102 0320     		movs	r0, #3
 141 0104 FFF7FEFF 		bl	Motor_Cmd
 142 0108 0021     		movs	r1, #0
 143 010a 0420     		movs	r0, #4
 144 010c FFF7FEFF 		bl	Motor_Cmd
 145 0110 204B     		ldr	r3, .L16+60
 146 0112 D3ED007A 		vldr.32	s15, [r3]
 147 0116 FCEEE77A 		vcvt.u32.f32	s15, s15
 148 011a 1F4B     		ldr	r3, .L16+64
 149 011c C3ED0F7A 		vstr.32	s15, [r3, #60]	@ int
 150 0120 15E0     		b	.L5
 151              	.L14:
 152 0122 0021     		movs	r1, #0
 153 0124 0320     		movs	r0, #3
 154 0126 FFF7FEFF 		bl	Motor_Cmd
 155 012a 0121     		movs	r1, #1
 156 012c 0420     		movs	r0, #4
 157 012e FFF7FEFF 		bl	Motor_Cmd
 158 0132 184B     		ldr	r3, .L16+60
 159 0134 D3ED007A 		vldr.32	s15, [r3]
 160 0138 F1EE677A 		vneg.f32	s15, s15
 161 013c FCEEE77A 		vcvt.u32.f32	s15, s15
 162 0140 154B     		ldr	r3, .L16+64
 163 0142 C3ED107A 		vstr.32	s15, [r3, #64]	@ int
 164 0146 02E0     		b	.L5
 165              	.L13:
 166 0148 0D4B     		ldr	r3, .L16+40
 167 014a 0022     		movs	r2, #0
 168 014c 1A60     		str	r2, [r3]	@ float
 169              	.L5:
 170 014e 02B0     		add	sp, sp, #8
 171              		@ sp needed
 172 0150 BDEC028B 		vldm	sp!, {d8}
 173 0154 BDE8F081 		pop	{r4, r5, r6, r7, r8, pc}
ARM GAS  C:\Users\ktkuru\AppData\Local\Temp\ccfUPDLe.s 			page 4


 174              	.L17:
 175              		.align	3
 176              	.L16:
 177 0158 4AD8124D 		.word	1293080650
 178 015c FB210940 		.word	1074340347
 179 0160 4AD8124D 		.word	1293080650
 180 0164 FB211940 		.word	1075388923
 181 0168 0C022B87 		.word	-2027224564
 182 016c 16D9FA3F 		.word	1073404182
 183 0170 C35B316D 		.word	1831951299
 184 0174 4958853F 		.word	1065703497
 185 0178 00003443 		.word	1127481344
 186 017c 00000000 		.word	A.7
 187 0180 00000000 		.word	time.6
 188 0184 00000000 		.word	target_angle
 189 0188 00000000 		.word	.LC0
 190 018c 00000000 		.word	roll
 191 0190 00000000 		.word	VOutput.5
 192 0194 00000000 		.word	LOutput.4
 193 0198 00040140 		.word	1073808384
 194 019c 85EB51B8 		.word	-1202590843
 195 01a0 1E85EB3F 		.word	1072399646
 196 01a4 00000000 		.word	pitch
 198              		.section	.text.EXTI15_10_IRQHandler,"ax",%progbits
 199              		.align	1
 200              		.global	EXTI15_10_IRQHandler
 201              		.syntax unified
 202              		.thumb
 203              		.thumb_func
 205              	EXTI15_10_IRQHandler:
 206              		@ args = 0, pretend = 0, frame = 0
 207              		@ frame_needed = 0, uses_anonymous_args = 0
 208 0000 38B5     		push	{r3, r4, r5, lr}
 209 0002 4FF40040 		mov	r0, #32768
 210 0006 FFF7FEFF 		bl	EXTI_GetITStatus
 211 000a 00B9     		cbnz	r0, .L21
 212              	.L18:
 213 000c 38BD     		pop	{r3, r4, r5, pc}
 214              	.L21:
 215 000e 4FF40040 		mov	r0, #32768
 216 0012 FFF7FEFF 		bl	EXTI_ClearITPendingBit
 217 0016 094C     		ldr	r4, .L22
 218 0018 094D     		ldr	r5, .L22+4
 219 001a 0A4A     		ldr	r2, .L22+8
 220 001c 2146     		mov	r1, r4
 221 001e 2846     		mov	r0, r5
 222 0020 FFF7FEFF 		bl	mpu_dmp_get_data
 223 0024 D5ED000A 		vldr.32	s1, [r5]
 224 0028 94ED000A 		vldr.32	s0, [r4]
 225 002c FFF7FEFF 		bl	GetPolar
 226 0030 054B     		ldr	r3, .L22+12
 227 0032 93ED000A 		vldr.32	s0, [r3]
 228 0036 FFF7FEFF 		bl	Task1_LineMove
 229 003a E7E7     		b	.L18
 230              	.L23:
 231              		.align	2
 232              	.L22:
ARM GAS  C:\Users\ktkuru\AppData\Local\Temp\ccfUPDLe.s 			page 5


 233 003c 00000000 		.word	roll
 234 0040 00000000 		.word	pitch
 235 0044 00000000 		.word	yaw
 236 0048 00000000 		.word	Target_dis
 238              		.section	.text.Task3_AngleMove,"ax",%progbits
 239              		.align	1
 240              		.global	Task3_AngleMove
 241              		.syntax unified
 242              		.thumb
 243              		.thumb_func
 245              	Task3_AngleMove:
 246              		@ args = 0, pretend = 0, frame = 0
 247              		@ frame_needed = 0, uses_anonymous_args = 0
 248 0000 30B5     		push	{r4, r5, lr}
 249 0002 2DED028B 		vpush.64	{d8}
 250 0006 83B0     		sub	sp, sp, #12
 251 0008 144B     		ldr	r3, .L26
 252 000a 154A     		ldr	r2, .L26+4
 253 000c 1A60     		str	r2, [r3]	@ float
 254 000e 154C     		ldr	r4, .L26+8
 255 0010 9FED158A 		vldr.32	s16, .L26+12
 256 0014 84ED008A 		vstr.32	s16, [r4]
 257 0018 144D     		ldr	r5, .L26+16
 258 001a 2868     		ldr	r0, [r5]	@ float
 259 001c FFF7FEFF 		bl	__aeabi_f2d
 260 0020 CDE90001 		strd	r0, [sp]
 261 0024 0022     		movs	r2, #0
 262 0026 0023     		movs	r3, #0
 263 0028 1148     		ldr	r0, .L26+20
 264 002a FFF7FEFF 		bl	printf
 265 002e D5ED000A 		vldr.32	s1, [r5]
 266 0032 94ED000A 		vldr.32	s0, [r4]
 267 0036 FFF7FEFF 		bl	PidControl_LineMove
 268 003a 0E4B     		ldr	r3, .L26+24
 269 003c 83ED000A 		vstr.32	s0, [r3]
 270 0040 0D4B     		ldr	r3, .L26+28
 271 0042 D3ED000A 		vldr.32	s1, [r3]
 272 0046 B0EE480A 		vmov.f32	s0, s16
 273 004a FFF7FEFF 		bl	PidControl_LineMove
 274 004e 0B4B     		ldr	r3, .L26+32
 275 0050 83ED000A 		vstr.32	s0, [r3]
 276 0054 03B0     		add	sp, sp, #12
 277              		@ sp needed
 278 0056 BDEC028B 		vldm	sp!, {d8}
 279 005a 30BD     		pop	{r4, r5, pc}
 280              	.L27:
 281              		.align	2
 282              	.L26:
 283 005c 00000000 		.word	A.3
 284 0060 15AC8141 		.word	1099017237
 285 0064 00000000 		.word	target_angle
 286 0068 00000000 		.word	0
 287 006c 00000000 		.word	roll
 288 0070 00000000 		.word	.LC0
 289 0074 00000000 		.word	VOutput.1
 290 0078 00000000 		.word	pitch
 291 007c 00000000 		.word	LOutput.0
ARM GAS  C:\Users\ktkuru\AppData\Local\Temp\ccfUPDLe.s 			page 6


 293              		.section	.bss.LOutput.0,"aw",%nobits
 294              		.align	2
 297              	LOutput.0:
 298 0000 00000000 		.space	4
 299              		.section	.bss.VOutput.1,"aw",%nobits
 300              		.align	2
 303              	VOutput.1:
 304 0000 00000000 		.space	4
 305              		.section	.bss.A.3,"aw",%nobits
 306              		.align	2
 309              	A.3:
 310 0000 00000000 		.space	4
 311              		.section	.bss.LOutput.4,"aw",%nobits
 312              		.align	2
 315              	LOutput.4:
 316 0000 00000000 		.space	4
 317              		.section	.bss.VOutput.5,"aw",%nobits
 318              		.align	2
 321              	VOutput.5:
 322 0000 00000000 		.space	4
 323              		.section	.bss.time.6,"aw",%nobits
 324              		.align	2
 327              	time.6:
 328 0000 00000000 		.space	4
 329              		.section	.bss.A.7,"aw",%nobits
 330              		.align	2
 333              	A.7:
 334 0000 00000000 		.space	4
 335              		.section	.bss.Output.8,"aw",%nobits
 336              		.align	2
 339              	Output.8:
 340 0000 00000000 		.space	4
 341              		.global	target_angle
 342              		.section	.bss.target_angle,"aw",%nobits
 343              		.align	2
 346              	target_angle:
 347 0000 00000000 		.space	4
 348              		.global	Target_dis
 349              		.section	.data.Target_dis,"aw"
 350              		.align	2
 353              	Target_dis:
 354 0000 9A99193E 		.word	1041865114
 355              		.global	T1LKd
 356              		.section	.data.T1LKd,"aw"
 357              		.align	2
 360              	T1LKd:
 361 0000 0000AFC3 		.word	-1011941376
 362              		.global	T1LKi
 363              		.section	.bss.T1LKi,"aw",%nobits
 364              		.align	2
 367              	T1LKi:
 368 0000 00000000 		.space	4
 369              		.global	T1LKp
 370              		.section	.data.T1LKp,"aw"
 371              		.align	2
 374              	T1LKp:
 375 0000 00803B44 		.word	1144750080
ARM GAS  C:\Users\ktkuru\AppData\Local\Temp\ccfUPDLe.s 			page 7


 376              		.global	T4SKd
 377              		.section	.bss.T4SKd,"aw",%nobits
 378              		.align	2
 381              	T4SKd:
 382 0000 00000000 		.space	4
 383              		.global	T4SKi
 384              		.section	.data.T4SKi,"aw"
 385              		.align	2
 388              	T4SKi:
 389 0000 000080BF 		.word	-1082130432
 390              		.global	T4SKp
 391              		.section	.data.T4SKp,"aw"
 392              		.align	2
 395              	T4SKp:
 396 0000 00006144 		.word	1147207680
 397              		.ident	"GCC: (Arm GNU Toolchain 13.3.Rel1 (Build arm-13.24)) 13.3.1 20240614"
ARM GAS  C:\Users\ktkuru\AppData\Local\Temp\ccfUPDLe.s 			page 8


DEFINED SYMBOLS
                            *ABS*:00000000 Control_Task.c
C:\Users\ktkuru\AppData\Local\Temp\ccfUPDLe.s:18     .text.Task4_StopFast:00000000 $t
C:\Users\ktkuru\AppData\Local\Temp\ccfUPDLe.s:24     .text.Task4_StopFast:00000000 Task4_StopFast
C:\Users\ktkuru\AppData\Local\Temp\ccfUPDLe.s:39     .text.Task4_StopFast:0000001c $d
C:\Users\ktkuru\AppData\Local\Temp\ccfUPDLe.s:339    .bss.Output.8:00000000 Output.8
C:\Users\ktkuru\AppData\Local\Temp\ccfUPDLe.s:48     .rodata.Task1_LineMove.str1.4:00000000 $d
C:\Users\ktkuru\AppData\Local\Temp\ccfUPDLe.s:54     .text.Task1_LineMove:00000000 $t
C:\Users\ktkuru\AppData\Local\Temp\ccfUPDLe.s:60     .text.Task1_LineMove:00000000 Task1_LineMove
C:\Users\ktkuru\AppData\Local\Temp\ccfUPDLe.s:177    .text.Task1_LineMove:00000158 $d
C:\Users\ktkuru\AppData\Local\Temp\ccfUPDLe.s:333    .bss.A.7:00000000 A.7
C:\Users\ktkuru\AppData\Local\Temp\ccfUPDLe.s:327    .bss.time.6:00000000 time.6
C:\Users\ktkuru\AppData\Local\Temp\ccfUPDLe.s:346    .bss.target_angle:00000000 target_angle
C:\Users\ktkuru\AppData\Local\Temp\ccfUPDLe.s:321    .bss.VOutput.5:00000000 VOutput.5
C:\Users\ktkuru\AppData\Local\Temp\ccfUPDLe.s:315    .bss.LOutput.4:00000000 LOutput.4
C:\Users\ktkuru\AppData\Local\Temp\ccfUPDLe.s:199    .text.EXTI15_10_IRQHandler:00000000 $t
C:\Users\ktkuru\AppData\Local\Temp\ccfUPDLe.s:205    .text.EXTI15_10_IRQHandler:00000000 EXTI15_10_IRQHandler
C:\Users\ktkuru\AppData\Local\Temp\ccfUPDLe.s:233    .text.EXTI15_10_IRQHandler:0000003c $d
C:\Users\ktkuru\AppData\Local\Temp\ccfUPDLe.s:353    .data.Target_dis:00000000 Target_dis
C:\Users\ktkuru\AppData\Local\Temp\ccfUPDLe.s:239    .text.Task3_AngleMove:00000000 $t
C:\Users\ktkuru\AppData\Local\Temp\ccfUPDLe.s:245    .text.Task3_AngleMove:00000000 Task3_AngleMove
C:\Users\ktkuru\AppData\Local\Temp\ccfUPDLe.s:283    .text.Task3_AngleMove:0000005c $d
C:\Users\ktkuru\AppData\Local\Temp\ccfUPDLe.s:309    .bss.A.3:00000000 A.3
C:\Users\ktkuru\AppData\Local\Temp\ccfUPDLe.s:303    .bss.VOutput.1:00000000 VOutput.1
C:\Users\ktkuru\AppData\Local\Temp\ccfUPDLe.s:297    .bss.LOutput.0:00000000 LOutput.0
C:\Users\ktkuru\AppData\Local\Temp\ccfUPDLe.s:294    .bss.LOutput.0:00000000 $d
C:\Users\ktkuru\AppData\Local\Temp\ccfUPDLe.s:300    .bss.VOutput.1:00000000 $d
C:\Users\ktkuru\AppData\Local\Temp\ccfUPDLe.s:306    .bss.A.3:00000000 $d
C:\Users\ktkuru\AppData\Local\Temp\ccfUPDLe.s:312    .bss.LOutput.4:00000000 $d
C:\Users\ktkuru\AppData\Local\Temp\ccfUPDLe.s:318    .bss.VOutput.5:00000000 $d
C:\Users\ktkuru\AppData\Local\Temp\ccfUPDLe.s:324    .bss.time.6:00000000 $d
C:\Users\ktkuru\AppData\Local\Temp\ccfUPDLe.s:330    .bss.A.7:00000000 $d
C:\Users\ktkuru\AppData\Local\Temp\ccfUPDLe.s:336    .bss.Output.8:00000000 $d
C:\Users\ktkuru\AppData\Local\Temp\ccfUPDLe.s:343    .bss.target_angle:00000000 $d
C:\Users\ktkuru\AppData\Local\Temp\ccfUPDLe.s:350    .data.Target_dis:00000000 $d
C:\Users\ktkuru\AppData\Local\Temp\ccfUPDLe.s:360    .data.T1LKd:00000000 T1LKd
C:\Users\ktkuru\AppData\Local\Temp\ccfUPDLe.s:357    .data.T1LKd:00000000 $d
C:\Users\ktkuru\AppData\Local\Temp\ccfUPDLe.s:367    .bss.T1LKi:00000000 T1LKi
C:\Users\ktkuru\AppData\Local\Temp\ccfUPDLe.s:364    .bss.T1LKi:00000000 $d
C:\Users\ktkuru\AppData\Local\Temp\ccfUPDLe.s:374    .data.T1LKp:00000000 T1LKp
C:\Users\ktkuru\AppData\Local\Temp\ccfUPDLe.s:371    .data.T1LKp:00000000 $d
C:\Users\ktkuru\AppData\Local\Temp\ccfUPDLe.s:381    .bss.T4SKd:00000000 T4SKd
C:\Users\ktkuru\AppData\Local\Temp\ccfUPDLe.s:378    .bss.T4SKd:00000000 $d
C:\Users\ktkuru\AppData\Local\Temp\ccfUPDLe.s:388    .data.T4SKi:00000000 T4SKi
C:\Users\ktkuru\AppData\Local\Temp\ccfUPDLe.s:385    .data.T4SKi:00000000 $d
C:\Users\ktkuru\AppData\Local\Temp\ccfUPDLe.s:395    .data.T4SKp:00000000 T4SKp
C:\Users\ktkuru\AppData\Local\Temp\ccfUPDLe.s:392    .data.T4SKp:00000000 $d

UNDEFINED SYMBOLS
PidControl_Stop
PWM_Allocation
dis
__aeabi_f2d
__aeabi_ddiv
__aeabi_d2f
__aeabi_dmul
__aeabi_dadd
ARM GAS  C:\Users\ktkuru\AppData\Local\Temp\ccfUPDLe.s 			page 9


__aeabi_dcmplt
atanf
sinf
printf
PidControl_LineMove
Motor_Cmd
roll
pitch
EXTI_GetITStatus
EXTI_ClearITPendingBit
mpu_dmp_get_data
GetPolar
yaw
