ARM GAS  C:\Users\ktkuru\AppData\Local\Temp\ccj9OBwd.s 			page 1


   1              		.cpu cortex-m4
   2              		.arch armv7e-m
   3              		.fpu fpv4-sp-d16
   4              		.eabi_attribute 27, 1
   5              		.eabi_attribute 28, 1
   6              		.eabi_attribute 20, 1
   7              		.eabi_attribute 21, 1
   8              		.eabi_attribute 23, 3
   9              		.eabi_attribute 24, 1
  10              		.eabi_attribute 25, 1
  11              		.eabi_attribute 26, 1
  12              		.eabi_attribute 30, 1
  13              		.eabi_attribute 34, 1
  14              		.eabi_attribute 18, 4
  15              		.file	"Control_Task.c"
  16              		.text
  17              		.global	__aeabi_f2d
  18              		.section	.rodata.Task4_StopFast.str1.4,"aMS",%progbits,1
  19              		.align	2
  20              	.LC0:
  21 0000 4F757470 		.ascii	"Output:%f\012\000"
  21      75743A25 
  21      660A00
  22              		.section	.text.Task4_StopFast,"ax",%progbits
  23              		.align	1
  24              		.global	Task4_StopFast
  25              		.syntax unified
  26              		.thumb
  27              		.thumb_func
  29              	Task4_StopFast:
  30              		@ args = 0, pretend = 0, frame = 0
  31              		@ frame_needed = 0, uses_anonymous_args = 0
  32 0000 10B5     		push	{r4, lr}
  33 0002 104B     		ldr	r3, .L3
  34 0004 D3ED000A 		vldr.32	s1, [r3]
  35 0008 0F4B     		ldr	r3, .L3+4
  36 000a 93ED000A 		vldr.32	s0, [r3]
  37 000e FFF7FEFF 		bl	GetPolar
  38 0012 0E48     		ldr	r0, .L3+8
  39 0014 C368     		ldr	r3, [r0, #12]
  40 0016 0E4A     		ldr	r2, .L3+12
  41 0018 D2ED000A 		vldr.32	s1, [r2]
  42 001c 9FED0D0A 		vldr.32	s0, .L3+16
  43 0020 9847     		blx	r3
  44 0022 10EE100A 		vmov	r0, s0
  45 0026 0C4C     		ldr	r4, .L3+20
  46 0028 84ED000A 		vstr.32	s0, [r4]
  47 002c FFF7FEFF 		bl	__aeabi_f2d
  48 0030 0246     		mov	r2, r0
  49 0032 0B46     		mov	r3, r1
  50 0034 0948     		ldr	r0, .L3+24
  51 0036 FFF7FEFF 		bl	printf
  52 003a 94ED000A 		vldr.32	s0, [r4]
  53 003e FFF7FEFF 		bl	PWM_Allocation
  54 0042 10BD     		pop	{r4, pc}
  55              	.L4:
  56              		.align	2
ARM GAS  C:\Users\ktkuru\AppData\Local\Temp\ccj9OBwd.s 			page 2


  57              	.L3:
  58 0044 00000000 		.word	pitch
  59 0048 00000000 		.word	roll
  60 004c 00000000 		.word	Taks4Pid.30
  61 0050 00000000 		.word	dis
  62 0054 00000000 		.word	0
  63 0058 00000000 		.word	Output.29
  64 005c 00000000 		.word	.LC0
  66              		.global	__aeabi_ddiv
  67              		.global	__aeabi_d2f
  68              		.global	__aeabi_dmul
  69              		.global	__aeabi_dcmple
  70              		.global	__aeabi_dcmpge
  71              		.global	__aeabi_dadd
  72              		.global	__aeabi_dcmplt
  73              		.section	.text.Task1_LineMove,"ax",%progbits
  74              		.align	1
  75              		.global	Task1_LineMove
  76              		.syntax unified
  77              		.thumb
  78              		.thumb_func
  80              	Task1_LineMove:
  81              		@ args = 0, pretend = 0, frame = 0
  82              		@ frame_needed = 0, uses_anonymous_args = 0
  83 0000 D0B5     		push	{r4, r6, r7, lr}
  84 0002 2DED028B 		vpush.64	{d8}
  85 0006 0446     		mov	r4, r0
  86 0008 10EE100A 		vmov	r0, s0
  87 000c FFF7FEFF 		bl	__aeabi_f2d
  88 0010 0646     		mov	r6, r0
  89 0012 0F46     		mov	r7, r1
  90 0014 78A3     		adr	r3, .L23+96
  91 0016 D3E90023 		ldrd	r2, [r3]
  92 001a FFF7FEFF 		bl	__aeabi_ddiv
  93 001e FFF7FEFF 		bl	__aeabi_d2f
  94 0022 00EE100A 		vmov	s0, r0
  95 0026 FFF7FEFF 		bl	atanf
  96 002a DFED677A 		vldr.32	s15, .L23+48
  97 002e 60EE277A 		vmul.f32	s15, s0, s15
  98 0032 17EE900A 		vmov	r0, s15
  99 0036 FFF7FEFF 		bl	__aeabi_f2d
 100 003a 57A3     		adr	r3, .L23
 101 003c D3E90023 		ldrd	r2, [r3]
 102 0040 FFF7FEFF 		bl	__aeabi_ddiv
 103 0044 FFF7FEFF 		bl	__aeabi_d2f
 104 0048 08EE100A 		vmov	s16, r0
 105 004c 5F4B     		ldr	r3, .L23+52
 106 004e 1860     		str	r0, [r3]	@ float
 107 0050 5F4B     		ldr	r3, .L23+56
 108 0052 1868     		ldr	r0, [r3]	@ float
 109 0054 FFF7FEFF 		bl	__aeabi_f2d
 110 0058 51A3     		adr	r3, .L23+8
 111 005a D3E90023 		ldrd	r2, [r3]
 112 005e FFF7FEFF 		bl	__aeabi_dmul
 113 0062 51A3     		adr	r3, .L23+16
 114 0064 D3E90023 		ldrd	r2, [r3]
 115 0068 FFF7FEFF 		bl	__aeabi_ddiv
ARM GAS  C:\Users\ktkuru\AppData\Local\Temp\ccj9OBwd.s 			page 3


 116 006c FFF7FEFF 		bl	__aeabi_d2f
 117 0070 00EE100A 		vmov	s0, r0
 118 0074 FFF7FEFF 		bl	sinf
 119 0078 28EE008A 		vmul.f32	s16, s16, s0
 120 007c 554B     		ldr	r3, .L23+60
 121 007e 83ED008A 		vstr.32	s16, [r3]
 122 0082 FCB9     		cbnz	r4, .L6
 123 0084 4AA3     		adr	r3, .L23+24
 124 0086 D3E90023 		ldrd	r2, [r3]
 125 008a 3046     		mov	r0, r6
 126 008c 3946     		mov	r1, r7
 127 008e FFF7FEFF 		bl	__aeabi_dcmple
 128 0092 0028     		cmp	r0, #0
 129 0094 46D0     		beq	.L19
 130 0096 504E     		ldr	r6, .L23+64
 131 0098 F368     		ldr	r3, [r6, #12]
 132 009a 3046     		mov	r0, r6
 133 009c 4F4A     		ldr	r2, .L23+68
 134 009e D2ED000A 		vldr.32	s1, [r2]
 135 00a2 B0EE480A 		vmov.f32	s0, s16
 136 00a6 9847     		blx	r3
 137 00a8 4D4B     		ldr	r3, .L23+72
 138 00aa 83ED000A 		vstr.32	s0, [r3]
 139 00ae F368     		ldr	r3, [r6, #12]
 140 00b0 3046     		mov	r0, r6
 141 00b2 4C4A     		ldr	r2, .L23+76
 142 00b4 D2ED000A 		vldr.32	s1, [r2]
 143 00b8 9FED4B0A 		vldr.32	s0, .L23+80
 144 00bc 9847     		blx	r3
 145 00be 4B4B     		ldr	r3, .L23+84
 146 00c0 83ED000A 		vstr.32	s0, [r3]
 147              	.L6:
 148 00c4 424E     		ldr	r6, .L23+56
 149 00c6 3068     		ldr	r0, [r6]	@ float
 150 00c8 FFF7FEFF 		bl	__aeabi_f2d
 151 00cc 3AA3     		adr	r3, .L23+32
 152 00ce D3E90023 		ldrd	r2, [r3]
 153 00d2 FFF7FEFF 		bl	__aeabi_dadd
 154 00d6 FFF7FEFF 		bl	__aeabi_d2f
 155 00da 3060     		str	r0, [r6]	@ float
 156 00dc FFF7FEFF 		bl	__aeabi_f2d
 157 00e0 31A3     		adr	r3, .L23+16
 158 00e2 D3E90023 		ldrd	r2, [r3]
 159 00e6 FFF7FEFF 		bl	__aeabi_dcmplt
 160 00ea 0028     		cmp	r0, #0
 161 00ec 4ED0     		beq	.L20
 162 00ee 002C     		cmp	r4, #0
 163 00f0 4FD1     		bne	.L5
 164 00f2 3B4B     		ldr	r3, .L23+72
 165 00f4 D3ED007A 		vldr.32	s15, [r3]
 166 00f8 F5EEC07A 		vcmpe.f32	s15, #0
 167 00fc F1EE10FA 		vmrs	APSR_nzcv, FPSCR
 168 0100 31DD     		ble	.L21
 169 0102 0121     		movs	r1, #1
 170 0104 0420     		movs	r0, #4
 171 0106 FFF7FEFF 		bl	Motor_Cmd
 172 010a 0021     		movs	r1, #0
ARM GAS  C:\Users\ktkuru\AppData\Local\Temp\ccj9OBwd.s 			page 4


 173 010c 0320     		movs	r0, #3
 174 010e FFF7FEFF 		bl	Motor_Cmd
 175 0112 334B     		ldr	r3, .L23+72
 176 0114 D3ED007A 		vldr.32	s15, [r3]
 177 0118 FCEEE77A 		vcvt.u32.f32	s15, s15
 178 011c 344B     		ldr	r3, .L23+88
 179 011e C3ED107A 		vstr.32	s15, [r3, #64]	@ int
 180 0122 36E0     		b	.L5
 181              	.L19:
 182 0124 26A3     		adr	r3, .L23+40
 183 0126 D3E90023 		ldrd	r2, [r3]
 184 012a 3046     		mov	r0, r6
 185 012c 3946     		mov	r1, r7
 186 012e FFF7FEFF 		bl	__aeabi_dcmpge
 187 0132 0028     		cmp	r0, #0
 188 0134 C6D0     		beq	.L6
 189 0136 2F4E     		ldr	r6, .L23+92
 190 0138 F368     		ldr	r3, [r6, #12]
 191 013a 3046     		mov	r0, r6
 192 013c 274A     		ldr	r2, .L23+68
 193 013e D2ED000A 		vldr.32	s1, [r2]
 194 0142 B0EE480A 		vmov.f32	s0, s16
 195 0146 9847     		blx	r3
 196 0148 254B     		ldr	r3, .L23+72
 197 014a 83ED000A 		vstr.32	s0, [r3]
 198 014e F368     		ldr	r3, [r6, #12]
 199 0150 3046     		mov	r0, r6
 200 0152 244A     		ldr	r2, .L23+76
 201 0154 D2ED000A 		vldr.32	s1, [r2]
 202 0158 9FED230A 		vldr.32	s0, .L23+80
 203 015c 9847     		blx	r3
 204 015e 234B     		ldr	r3, .L23+84
 205 0160 83ED000A 		vstr.32	s0, [r3]
 206 0164 AEE7     		b	.L6
 207              	.L21:
 208 0166 0021     		movs	r1, #0
 209 0168 0420     		movs	r0, #4
 210 016a FFF7FEFF 		bl	Motor_Cmd
 211 016e 0121     		movs	r1, #1
 212 0170 0320     		movs	r0, #3
 213 0172 FFF7FEFF 		bl	Motor_Cmd
 214 0176 1A4B     		ldr	r3, .L23+72
 215 0178 D3ED007A 		vldr.32	s15, [r3]
 216 017c F1EE677A 		vneg.f32	s15, s15
 217 0180 FCEEE77A 		vcvt.u32.f32	s15, s15
 218 0184 1A4B     		ldr	r3, .L23+88
 219 0186 C3ED0F7A 		vstr.32	s15, [r3, #60]	@ int
 220 018a 02E0     		b	.L5
 221              	.L20:
 222 018c 104B     		ldr	r3, .L23+56
 223 018e 0022     		movs	r2, #0
 224 0190 1A60     		str	r2, [r3]	@ float
 225              	.L5:
 226 0192 BDEC028B 		vldm	sp!, {d8}
 227 0196 D0BD     		pop	{r4, r6, r7, pc}
 228              	.L24:
 229              		.align	3
ARM GAS  C:\Users\ktkuru\AppData\Local\Temp\ccj9OBwd.s 			page 5


 230              	.L23:
 231 0198 4AD8124D 		.word	1293080650
 232 019c FB210940 		.word	1074340347
 233 01a0 4AD8124D 		.word	1293080650
 234 01a4 FB211940 		.word	1075388923
 235 01a8 0C022B87 		.word	-2027224564
 236 01ac 16D9FA3F 		.word	1073404182
 237 01b0 7B14AE47 		.word	1202590843
 238 01b4 E17AC43F 		.word	1069841121
 239 01b8 A8734529 		.word	692417448
 240 01bc 2158853F 		.word	1065703457
 241 01c0 C3F5285C 		.word	1546188227
 242 01c4 8FC2C53F 		.word	1069925007
 243 01c8 00003443 		.word	1127481344
 244 01cc 00000000 		.word	A.28
 245 01d0 00000000 		.word	time.27
 246 01d4 00000000 		.word	target_angle
 247 01d8 00000000 		.word	Taks1Pid1.26
 248 01dc 00000000 		.word	roll
 249 01e0 00000000 		.word	VOutput.25
 250 01e4 00000000 		.word	pitch
 251 01e8 00000000 		.word	0
 252 01ec 00000000 		.word	LOutput.24
 253 01f0 00040140 		.word	1073808384
 254 01f4 00000000 		.word	Taks1Pid2.23
 255 01f8 85EB51B8 		.word	-1202590843
 256 01fc 1E85EB3F 		.word	1072399646
 258              		.section	.text.Task3_AngleMove,"ax",%progbits
 259              		.align	1
 260              		.global	Task3_AngleMove
 261              		.syntax unified
 262              		.thumb
 263              		.thumb_func
 265              	Task3_AngleMove:
 266              		@ args = 0, pretend = 0, frame = 0
 267              		@ frame_needed = 0, uses_anonymous_args = 0
 268 0000 10B5     		push	{r4, lr}
 269 0002 2DED048B 		vpush.64	{d8, d9}
 270 0006 B0EE608A 		vmov.f32	s16, s1
 271 000a DFEDB17A 		vldr.32	s15, .L151+32
 272 000e B4EEE70A 		vcmpe.f32	s0, s15
 273 0012 F1EE10FA 		vmrs	APSR_nzcv, FPSCR
 274 0016 1ED5     		bpl	.L120
 275 0018 DFEDAE7A 		vldr.32	s15, .L151+36
 276 001c B4EEE70A 		vcmpe.f32	s0, s15
 277 0020 F1EE10FA 		vmrs	APSR_nzcv, FPSCR
 278 0024 63DC     		bgt	.L81
 279              	.L28:
 280 0026 DFEDAC7A 		vldr.32	s15, .L151+40
 281 002a B4EEE70A 		vcmpe.f32	s0, s15
 282 002e F1EE10FA 		vmrs	APSR_nzcv, FPSCR
 283 0032 40F19080 		bpl	.L126
 284 0036 F3EE0F7A 		vmov.f32	s15, #3.1e+1
 285 003a B4EEE70A 		vcmpe.f32	s0, s15
 286 003e F1EE10FA 		vmrs	APSR_nzcv, FPSCR
 287 0042 57D8     		bhi	.L127
 288 0044 A54B     		ldr	r3, .L151+44
ARM GAS  C:\Users\ktkuru\AppData\Local\Temp\ccj9OBwd.s 			page 6


 289 0046 D3ED007A 		vldr.32	s15, [r3]	@ int
 290 004a F8EEE77A 		vcvt.f32.s32	s15, s15
 291 004e 30EE270A 		vadd.f32	s0, s0, s15
 292 0052 0124     		movs	r4, #1
 293 0054 86E0     		b	.L33
 294              	.L120:
 295 0056 DFEDA07A 		vldr.32	s15, .L151+40
 296 005a B4EEE70A 		vcmpe.f32	s0, s15
 297 005e F1EE10FA 		vmrs	APSR_nzcv, FPSCR
 298 0062 E0DD     		ble	.L28
 299 0064 DFED9E7A 		vldr.32	s15, .L151+48
 300 0068 37EEC00A 		vsub.f32	s0, s15, s0
 301 006c F3EE0F7A 		vmov.f32	s15, #3.1e+1
 302 0070 B4EEE70A 		vcmpe.f32	s0, s15
 303 0074 F1EE10FA 		vmrs	APSR_nzcv, FPSCR
 304 0078 08D8     		bhi	.L121
 305 007a 984B     		ldr	r3, .L151+44
 306 007c D3ED037A 		vldr.32	s15, [r3, #12]	@ int
 307 0080 F8EEE77A 		vcvt.f32.s32	s15, s15
 308 0084 30EE270A 		vadd.f32	s0, s0, s15
 309 0088 0224     		movs	r4, #2
 310 008a 6BE0     		b	.L33
 311              	.L121:
 312 008c F3EE0F7A 		vmov.f32	s15, #3.1e+1
 313 0090 B4EEE70A 		vcmpe.f32	s0, s15
 314 0094 F1EE10FA 		vmrs	APSR_nzcv, FPSCR
 315 0098 40F3FC80 		ble	.L122
 316 009c DFED917A 		vldr.32	s15, .L151+52
 317 00a0 B4EEE70A 		vcmpe.f32	s0, s15
 318 00a4 F1EE10FA 		vmrs	APSR_nzcv, FPSCR
 319 00a8 08D8     		bhi	.L123
 320 00aa 8C4B     		ldr	r3, .L151+44
 321 00ac D3ED047A 		vldr.32	s15, [r3, #16]	@ int
 322 00b0 F8EEE77A 		vcvt.f32.s32	s15, s15
 323 00b4 30EE270A 		vadd.f32	s0, s0, s15
 324 00b8 0224     		movs	r4, #2
 325 00ba 53E0     		b	.L33
 326              	.L123:
 327 00bc DFED897A 		vldr.32	s15, .L151+52
 328 00c0 B4EEE70A 		vcmpe.f32	s0, s15
 329 00c4 F1EE10FA 		vmrs	APSR_nzcv, FPSCR
 330 00c8 40F3E680 		ble	.L124
 331 00cc DFED867A 		vldr.32	s15, .L151+56
 332 00d0 B4EEE70A 		vcmpe.f32	s0, s15
 333 00d4 F1EE10FA 		vmrs	APSR_nzcv, FPSCR
 334 00d8 00F2E080 		bhi	.L125
 335 00dc 7F4B     		ldr	r3, .L151+44
 336 00de D3ED057A 		vldr.32	s15, [r3, #20]	@ int
 337 00e2 F8EEE77A 		vcvt.f32.s32	s15, s15
 338 00e6 30EE270A 		vadd.f32	s0, s0, s15
 339 00ea 0224     		movs	r4, #2
 340 00ec 3AE0     		b	.L33
 341              	.L81:
 342 00ee 9FED780A 		vldr.32	s0, .L151+32
 343 00f2 98E7     		b	.L28
 344              	.L127:
 345 00f4 F3EE0F7A 		vmov.f32	s15, #3.1e+1
ARM GAS  C:\Users\ktkuru\AppData\Local\Temp\ccj9OBwd.s 			page 7


 346 00f8 B4EEE70A 		vcmpe.f32	s0, s15
 347 00fc F1EE10FA 		vmrs	APSR_nzcv, FPSCR
 348 0100 40F3CE80 		ble	.L128
 349 0104 DFED777A 		vldr.32	s15, .L151+52
 350 0108 B4EEE70A 		vcmpe.f32	s0, s15
 351 010c F1EE10FA 		vmrs	APSR_nzcv, FPSCR
 352 0110 08D8     		bhi	.L129
 353 0112 724B     		ldr	r3, .L151+44
 354 0114 D3ED017A 		vldr.32	s15, [r3, #4]	@ int
 355 0118 F8EEE77A 		vcvt.f32.s32	s15, s15
 356 011c 30EE270A 		vadd.f32	s0, s0, s15
 357 0120 0124     		movs	r4, #1
 358 0122 1FE0     		b	.L33
 359              	.L129:
 360 0124 DFED6F7A 		vldr.32	s15, .L151+52
 361 0128 B4EEE70A 		vcmpe.f32	s0, s15
 362 012c F1EE10FA 		vmrs	APSR_nzcv, FPSCR
 363 0130 40F3B880 		ble	.L130
 364 0134 DFED6C7A 		vldr.32	s15, .L151+56
 365 0138 B4EEE70A 		vcmpe.f32	s0, s15
 366 013c F1EE10FA 		vmrs	APSR_nzcv, FPSCR
 367 0140 00F2B280 		bhi	.L131
 368 0144 654B     		ldr	r3, .L151+44
 369 0146 D3ED027A 		vldr.32	s15, [r3, #8]	@ int
 370 014a F8EEE77A 		vcvt.f32.s32	s15, s15
 371 014e 30EE270A 		vadd.f32	s0, s0, s15
 372 0152 0124     		movs	r4, #1
 373 0154 06E0     		b	.L33
 374              	.L126:
 375 0156 614B     		ldr	r3, .L151+44
 376 0158 D3ED067A 		vldr.32	s15, [r3, #24]	@ int
 377 015c F8EEE77A 		vcvt.f32.s32	s15, s15
 378 0160 30EE270A 		vadd.f32	s0, s0, s15
 379              	.L33:
 380 0164 10EE100A 		vmov	r0, s0
 381 0168 FFF7FEFF 		bl	__aeabi_f2d
 382 016c 50A3     		adr	r3, .L151
 383 016e D3E90023 		ldrd	r2, [r3]
 384 0172 FFF7FEFF 		bl	__aeabi_dmul
 385 0176 0022     		movs	r2, #0
 386 0178 5C4B     		ldr	r3, .L151+60
 387 017a FFF7FEFF 		bl	__aeabi_ddiv
 388 017e FFF7FEFF 		bl	__aeabi_d2f
 389 0182 08EE900A 		vmov	s17, r0
 390 0186 B0EE680A 		vmov.f32	s0, s17
 391 018a FFF7FEFF 		bl	cosf
 392 018e 60EE087A 		vmul.f32	s15, s0, s16
 393 0192 17EE900A 		vmov	r0, s15
 394 0196 FFF7FEFF 		bl	__aeabi_f2d
 395 019a 47A3     		adr	r3, .L151+8
 396 019c D3E90023 		ldrd	r2, [r3]
 397 01a0 FFF7FEFF 		bl	__aeabi_ddiv
 398 01a4 FFF7FEFF 		bl	__aeabi_d2f
 399 01a8 00EE100A 		vmov	s0, r0
 400 01ac FFF7FEFF 		bl	atanf
 401 01b0 10EE100A 		vmov	r0, s0
 402 01b4 FFF7FEFF 		bl	__aeabi_f2d
ARM GAS  C:\Users\ktkuru\AppData\Local\Temp\ccj9OBwd.s 			page 8


 403 01b8 3DA3     		adr	r3, .L151
 404 01ba D3E90023 		ldrd	r2, [r3]
 405 01be FFF7FEFF 		bl	__aeabi_ddiv
 406 01c2 0022     		movs	r2, #0
 407 01c4 494B     		ldr	r3, .L151+60
 408 01c6 FFF7FEFF 		bl	__aeabi_dmul
 409 01ca FFF7FEFF 		bl	__aeabi_d2f
 410 01ce 09EE100A 		vmov	s18, r0
 411 01d2 474B     		ldr	r3, .L151+64
 412 01d4 1860     		str	r0, [r3]	@ float
 413 01d6 B0EE680A 		vmov.f32	s0, s17
 414 01da FFF7FEFF 		bl	sinf
 415 01de 60EE087A 		vmul.f32	s15, s0, s16
 416 01e2 17EE900A 		vmov	r0, s15
 417 01e6 FFF7FEFF 		bl	__aeabi_f2d
 418 01ea 33A3     		adr	r3, .L151+8
 419 01ec D3E90023 		ldrd	r2, [r3]
 420 01f0 FFF7FEFF 		bl	__aeabi_ddiv
 421 01f4 FFF7FEFF 		bl	__aeabi_d2f
 422 01f8 00EE100A 		vmov	s0, r0
 423 01fc FFF7FEFF 		bl	atanf
 424 0200 10EE100A 		vmov	r0, s0
 425 0204 FFF7FEFF 		bl	__aeabi_f2d
 426 0208 29A3     		adr	r3, .L151
 427 020a D3E90023 		ldrd	r2, [r3]
 428 020e FFF7FEFF 		bl	__aeabi_ddiv
 429 0212 0022     		movs	r2, #0
 430 0214 354B     		ldr	r3, .L151+60
 431 0216 FFF7FEFF 		bl	__aeabi_dmul
 432 021a FFF7FEFF 		bl	__aeabi_d2f
 433 021e 08EE100A 		vmov	s16, r0
 434 0222 344B     		ldr	r3, .L151+68
 435 0224 1860     		str	r0, [r3]	@ float
 436 0226 344B     		ldr	r3, .L151+72
 437 0228 1868     		ldr	r0, [r3]	@ float
 438 022a FFF7FEFF 		bl	__aeabi_f2d
 439 022e 24A3     		adr	r3, .L151+16
 440 0230 D3E90023 		ldrd	r2, [r3]
 441 0234 FFF7FEFF 		bl	__aeabi_ddiv
 442 0238 23A3     		adr	r3, .L151+24
 443 023a D3E90023 		ldrd	r2, [r3]
 444 023e FFF7FEFF 		bl	__aeabi_dmul
 445 0242 FFF7FEFF 		bl	__aeabi_d2f
 446 0246 00EE100A 		vmov	s0, r0
 447 024a FFF7FEFF 		bl	sinf
 448 024e 29EE009A 		vmul.f32	s18, s18, s0
 449 0252 2A4B     		ldr	r3, .L151+76
 450 0254 83ED009A 		vstr.32	s18, [r3]
 451 0258 28EE008A 		vmul.f32	s16, s16, s0
 452 025c 284B     		ldr	r3, .L151+80
 453 025e 83ED008A 		vstr.32	s16, [r3]
 454 0262 DFED1F7A 		vldr.32	s15, .L151+48
 455 0266 68EEA77A 		vmul.f32	s15, s17, s15
 456 026a 17EE900A 		vmov	r0, s15
 457 026e FFF7FEFF 		bl	__aeabi_f2d
 458 0272 0FA3     		adr	r3, .L151
 459 0274 D3E90023 		ldrd	r2, [r3]
ARM GAS  C:\Users\ktkuru\AppData\Local\Temp\ccj9OBwd.s 			page 9


 460 0278 FFF7FEFF 		bl	__aeabi_ddiv
 461 027c FFF7FEFF 		bl	__aeabi_d2f
 462 0280 07EE900A 		vmov	s15, r0
 463 0284 012C     		cmp	r4, #1
 464 0286 3DD0     		beq	.L142
 465 0288 022C     		cmp	r4, #2
 466 028a 00F0A981 		beq	.L143
 467              	.L25:
 468 028e BDEC048B 		vldm	sp!, {d8-d9}
 469 0292 10BD     		pop	{r4, pc}
 470              	.L122:
 471 0294 0224     		movs	r4, #2
 472 0296 65E7     		b	.L33
 473              	.L124:
 474 0298 0224     		movs	r4, #2
 475 029a 63E7     		b	.L33
 476              	.L125:
 477 029c 0224     		movs	r4, #2
 478 029e 61E7     		b	.L33
 479              	.L128:
 480 02a0 0124     		movs	r4, #1
 481 02a2 5FE7     		b	.L33
 482              	.L130:
 483 02a4 0124     		movs	r4, #1
 484 02a6 5DE7     		b	.L33
 485              	.L131:
 486 02a8 0124     		movs	r4, #1
 487 02aa 5BE7     		b	.L33
 488              	.L152:
 489 02ac AFF30080 		.align	3
 490              	.L151:
 491 02b0 4AD8124D 		.word	1293080650
 492 02b4 FB210940 		.word	1074340347
 493 02b8 85EB51B8 		.word	-1202590843
 494 02bc 1E85EB3F 		.word	1072399646
 495 02c0 0C022B87 		.word	-2027224564
 496 02c4 16D9FA3F 		.word	1073404182
 497 02c8 4AD8124D 		.word	1293080650
 498 02cc FB211940 		.word	1075388923
 499 02d0 0000A242 		.word	1117913088
 500 02d4 00009E42 		.word	1117650944
 501 02d8 0000B442 		.word	1119092736
 502 02dc 00000000 		.word	de
 503 02e0 00003443 		.word	1127481344
 504 02e4 00003842 		.word	1110966272
 505 02e8 00007442 		.word	1114898432
 506 02ec 00806640 		.word	1080459264
 507 02f0 00000000 		.word	target_roll.22
 508 02f4 00000000 		.word	target_pitch.21
 509 02f8 00000000 		.word	time.20
 510 02fc 00000000 		.word	Vtarget_angle.19
 511 0300 00000000 		.word	Ltarget_angle.18
 512              	.L142:
 513 0304 A64B     		ldr	r3, .L153+40
 514 0306 1B68     		ldr	r3, [r3]
 515 0308 1E33     		adds	r3, r3, #30
 516 030a 07EE103A 		vmov	s14, r3	@ int
ARM GAS  C:\Users\ktkuru\AppData\Local\Temp\ccj9OBwd.s 			page 10


 517 030e B8EEC77A 		vcvt.f32.s32	s14, s14
 518 0312 B4EEE77A 		vcmpe.f32	s14, s15
 519 0316 F1EE10FA 		vmrs	APSR_nzcv, FPSCR
 520 031a 3BDB     		blt	.L132
 521 031c A148     		ldr	r0, .L153+44
 522 031e C368     		ldr	r3, [r0, #12]
 523 0320 A14A     		ldr	r2, .L153+48
 524 0322 D2ED000A 		vldr.32	s1, [r2]
 525 0326 B0EE490A 		vmov.f32	s0, s18
 526 032a 9847     		blx	r3
 527 032c 9F4B     		ldr	r3, .L153+52
 528 032e 83ED000A 		vstr.32	s0, [r3]
 529 0332 9F48     		ldr	r0, .L153+56
 530 0334 C368     		ldr	r3, [r0, #12]
 531 0336 9F4A     		ldr	r2, .L153+60
 532 0338 D2ED000A 		vldr.32	s1, [r2]
 533 033c F1EE600A 		vneg.f32	s1, s1
 534 0340 9D4A     		ldr	r2, .L153+64
 535 0342 92ED000A 		vldr.32	s0, [r2]
 536 0346 9847     		blx	r3
 537 0348 B0EE408A 		vmov.f32	s16, s0
 538 034c 9B4B     		ldr	r3, .L153+68
 539 034e 83ED000A 		vstr.32	s0, [r3]
 540 0352 9B4C     		ldr	r4, .L153+72
 541 0354 2068     		ldr	r0, [r4]	@ float
 542 0356 FFF7FEFF 		bl	__aeabi_f2d
 543 035a 87A3     		adr	r3, .L153
 544 035c D3E90023 		ldrd	r2, [r3]
 545 0360 FFF7FEFF 		bl	__aeabi_dadd
 546 0364 FFF7FEFF 		bl	__aeabi_d2f
 547 0368 2060     		str	r0, [r4]	@ float
 548 036a FFF7FEFF 		bl	__aeabi_f2d
 549 036e 84A3     		adr	r3, .L153+8
 550 0370 D3E90023 		ldrd	r2, [r3]
 551 0374 FFF7FEFF 		bl	__aeabi_dcmplt
 552 0378 18B9     		cbnz	r0, .L144
 553 037a 914B     		ldr	r3, .L153+72
 554 037c 0022     		movs	r2, #0
 555 037e 1A60     		str	r2, [r3]	@ float
 556 0380 85E7     		b	.L25
 557              	.L144:
 558 0382 0120     		movs	r0, #1
 559 0384 F0EE480A 		vmov.f32	s1, s16
 560 0388 884B     		ldr	r3, .L153+52
 561 038a 93ED000A 		vldr.32	s0, [r3]
 562 038e FFF7FEFF 		bl	T3Motor_CmdCombination
 563 0392 7CE7     		b	.L25
 564              	.L132:
 565 0394 B4EEE77A 		vcmpe.f32	s14, s15
 566 0398 F1EE10FA 		vmrs	APSR_nzcv, FPSCR
 567 039c 47D5     		bpl	.L54
 568 039e 804B     		ldr	r3, .L153+40
 569 03a0 5B68     		ldr	r3, [r3, #4]
 570 03a2 2D33     		adds	r3, r3, #45
 571 03a4 07EE103A 		vmov	s14, r3	@ int
 572 03a8 B8EEC77A 		vcvt.f32.s32	s14, s14
 573 03ac B4EEE77A 		vcmpe.f32	s14, s15
ARM GAS  C:\Users\ktkuru\AppData\Local\Temp\ccj9OBwd.s 			page 11


 574 03b0 F1EE10FA 		vmrs	APSR_nzcv, FPSCR
 575 03b4 3BDB     		blt	.L54
 576 03b6 8348     		ldr	r0, .L153+76
 577 03b8 C368     		ldr	r3, [r0, #12]
 578 03ba 7B4A     		ldr	r2, .L153+48
 579 03bc D2ED000A 		vldr.32	s1, [r2]
 580 03c0 B0EE490A 		vmov.f32	s0, s18
 581 03c4 9847     		blx	r3
 582 03c6 794B     		ldr	r3, .L153+52
 583 03c8 83ED000A 		vstr.32	s0, [r3]
 584 03cc 7E48     		ldr	r0, .L153+80
 585 03ce C368     		ldr	r3, [r0, #12]
 586 03d0 784A     		ldr	r2, .L153+60
 587 03d2 D2ED000A 		vldr.32	s1, [r2]
 588 03d6 F1EE600A 		vneg.f32	s1, s1
 589 03da 774A     		ldr	r2, .L153+64
 590 03dc 92ED000A 		vldr.32	s0, [r2]
 591 03e0 9847     		blx	r3
 592 03e2 B0EE408A 		vmov.f32	s16, s0
 593 03e6 754B     		ldr	r3, .L153+68
 594 03e8 83ED000A 		vstr.32	s0, [r3]
 595 03ec 744C     		ldr	r4, .L153+72
 596 03ee 2068     		ldr	r0, [r4]	@ float
 597 03f0 FFF7FEFF 		bl	__aeabi_f2d
 598 03f4 64A3     		adr	r3, .L153+16
 599 03f6 D3E90023 		ldrd	r2, [r3]
 600 03fa FFF7FEFF 		bl	__aeabi_dadd
 601 03fe FFF7FEFF 		bl	__aeabi_d2f
 602 0402 2060     		str	r0, [r4]	@ float
 603 0404 FFF7FEFF 		bl	__aeabi_f2d
 604 0408 5DA3     		adr	r3, .L153+8
 605 040a D3E90023 		ldrd	r2, [r3]
 606 040e FFF7FEFF 		bl	__aeabi_dcmplt
 607 0412 18B9     		cbnz	r0, .L145
 608 0414 6A4B     		ldr	r3, .L153+72
 609 0416 0022     		movs	r2, #0
 610 0418 1A60     		str	r2, [r3]	@ float
 611 041a 38E7     		b	.L25
 612              	.L145:
 613 041c 0120     		movs	r0, #1
 614 041e F0EE480A 		vmov.f32	s1, s16
 615 0422 624B     		ldr	r3, .L153+52
 616 0424 93ED000A 		vldr.32	s0, [r3]
 617 0428 FFF7FEFF 		bl	T3Motor_CmdCombination
 618 042c 2FE7     		b	.L25
 619              	.L54:
 620 042e 5C4B     		ldr	r3, .L153+40
 621 0430 5B68     		ldr	r3, [r3, #4]
 622 0432 2D33     		adds	r3, r3, #45
 623 0434 07EE103A 		vmov	s14, r3	@ int
 624 0438 B8EEC77A 		vcvt.f32.s32	s14, s14
 625 043c B4EEE77A 		vcmpe.f32	s14, s15
 626 0440 F1EE10FA 		vmrs	APSR_nzcv, FPSCR
 627 0444 47D5     		bpl	.L59
 628 0446 564B     		ldr	r3, .L153+40
 629 0448 9B68     		ldr	r3, [r3, #8]
 630 044a 3C33     		adds	r3, r3, #60
ARM GAS  C:\Users\ktkuru\AppData\Local\Temp\ccj9OBwd.s 			page 12


 631 044c 07EE103A 		vmov	s14, r3	@ int
 632 0450 B8EEC77A 		vcvt.f32.s32	s14, s14
 633 0454 B4EEE77A 		vcmpe.f32	s14, s15
 634 0458 F1EE10FA 		vmrs	APSR_nzcv, FPSCR
 635 045c 3BDB     		blt	.L59
 636 045e 5B48     		ldr	r0, .L153+84
 637 0460 C368     		ldr	r3, [r0, #12]
 638 0462 514A     		ldr	r2, .L153+48
 639 0464 D2ED000A 		vldr.32	s1, [r2]
 640 0468 B0EE490A 		vmov.f32	s0, s18
 641 046c 9847     		blx	r3
 642 046e 4F4B     		ldr	r3, .L153+52
 643 0470 83ED000A 		vstr.32	s0, [r3]
 644 0474 5648     		ldr	r0, .L153+88
 645 0476 C368     		ldr	r3, [r0, #12]
 646 0478 4E4A     		ldr	r2, .L153+60
 647 047a D2ED000A 		vldr.32	s1, [r2]
 648 047e F1EE600A 		vneg.f32	s1, s1
 649 0482 4D4A     		ldr	r2, .L153+64
 650 0484 92ED000A 		vldr.32	s0, [r2]
 651 0488 9847     		blx	r3
 652 048a B0EE408A 		vmov.f32	s16, s0
 653 048e 4B4B     		ldr	r3, .L153+68
 654 0490 83ED000A 		vstr.32	s0, [r3]
 655 0494 4A4C     		ldr	r4, .L153+72
 656 0496 2068     		ldr	r0, [r4]	@ float
 657 0498 FFF7FEFF 		bl	__aeabi_f2d
 658 049c 3CA3     		adr	r3, .L153+24
 659 049e D3E90023 		ldrd	r2, [r3]
 660 04a2 FFF7FEFF 		bl	__aeabi_dadd
 661 04a6 FFF7FEFF 		bl	__aeabi_d2f
 662 04aa 2060     		str	r0, [r4]	@ float
 663 04ac FFF7FEFF 		bl	__aeabi_f2d
 664 04b0 33A3     		adr	r3, .L153+8
 665 04b2 D3E90023 		ldrd	r2, [r3]
 666 04b6 FFF7FEFF 		bl	__aeabi_dcmplt
 667 04ba 18B9     		cbnz	r0, .L146
 668 04bc 404B     		ldr	r3, .L153+72
 669 04be 0022     		movs	r2, #0
 670 04c0 1A60     		str	r2, [r3]	@ float
 671 04c2 E4E6     		b	.L25
 672              	.L146:
 673 04c4 0120     		movs	r0, #1
 674 04c6 F0EE480A 		vmov.f32	s1, s16
 675 04ca 384B     		ldr	r3, .L153+52
 676 04cc 93ED000A 		vldr.32	s0, [r3]
 677 04d0 FFF7FEFF 		bl	T3Motor_CmdCombination
 678 04d4 DBE6     		b	.L25
 679              	.L59:
 680 04d6 324B     		ldr	r3, .L153+40
 681 04d8 9B68     		ldr	r3, [r3, #8]
 682 04da 3C33     		adds	r3, r3, #60
 683 04dc 07EE103A 		vmov	s14, r3	@ int
 684 04e0 B8EEC77A 		vcvt.f32.s32	s14, s14
 685 04e4 B4EEE77A 		vcmpe.f32	s14, s15
 686 04e8 F1EE10FA 		vmrs	APSR_nzcv, FPSCR
 687 04ec 7FF5CFAE 		bpl	.L25
ARM GAS  C:\Users\ktkuru\AppData\Local\Temp\ccj9OBwd.s 			page 13


 688 04f0 9FED387A 		vldr.32	s14, .L153+92
 689 04f4 F4EEC77A 		vcmpe.f32	s15, s14
 690 04f8 F1EE10FA 		vmrs	APSR_nzcv, FPSCR
 691 04fc 3FF6C7AE 		bhi	.L25
 692 0500 3548     		ldr	r0, .L153+96
 693 0502 C368     		ldr	r3, [r0, #12]
 694 0504 284A     		ldr	r2, .L153+48
 695 0506 D2ED000A 		vldr.32	s1, [r2]
 696 050a B0EE490A 		vmov.f32	s0, s18
 697 050e 9847     		blx	r3
 698 0510 264B     		ldr	r3, .L153+52
 699 0512 83ED000A 		vstr.32	s0, [r3]
 700 0516 3148     		ldr	r0, .L153+100
 701 0518 C368     		ldr	r3, [r0, #12]
 702 051a 264A     		ldr	r2, .L153+60
 703 051c D2ED000A 		vldr.32	s1, [r2]
 704 0520 F1EE600A 		vneg.f32	s1, s1
 705 0524 244A     		ldr	r2, .L153+64
 706 0526 92ED000A 		vldr.32	s0, [r2]
 707 052a 9847     		blx	r3
 708 052c B0EE408A 		vmov.f32	s16, s0
 709 0530 224B     		ldr	r3, .L153+68
 710 0532 83ED000A 		vstr.32	s0, [r3]
 711 0536 224C     		ldr	r4, .L153+72
 712 0538 2068     		ldr	r0, [r4]	@ float
 713 053a FFF7FEFF 		bl	__aeabi_f2d
 714 053e 16A3     		adr	r3, .L153+32
 715 0540 D3E90023 		ldrd	r2, [r3]
 716 0544 FFF7FEFF 		bl	__aeabi_dadd
 717 0548 FFF7FEFF 		bl	__aeabi_d2f
 718 054c 2060     		str	r0, [r4]	@ float
 719 054e FFF7FEFF 		bl	__aeabi_f2d
 720 0552 0BA3     		adr	r3, .L153+8
 721 0554 D3E90023 		ldrd	r2, [r3]
 722 0558 FFF7FEFF 		bl	__aeabi_dcmplt
 723 055c 18B9     		cbnz	r0, .L147
 724 055e 184B     		ldr	r3, .L153+72
 725 0560 0022     		movs	r2, #0
 726 0562 1A60     		str	r2, [r3]	@ float
 727 0564 93E6     		b	.L25
 728              	.L147:
 729 0566 0120     		movs	r0, #1
 730 0568 F0EE480A 		vmov.f32	s1, s16
 731 056c 0F4B     		ldr	r3, .L153+52
 732 056e 93ED000A 		vldr.32	s0, [r3]
 733 0572 FFF7FEFF 		bl	T3Motor_CmdCombination
 734 0576 8AE6     		b	.L25
 735              	.L154:
 736              		.align	3
 737              	.L153:
 738 0578 C35B316D 		.word	1831951299
 739 057c 4958853F 		.word	1065703497
 740 0580 0C022B87 		.word	-2027224564
 741 0584 16D9FA3F 		.word	1073404182
 742 0588 30B2AE1B 		.word	464433712
 743 058c 00BB843F 		.word	1065663232
 744 0590 9023E70E 		.word	250028944
ARM GAS  C:\Users\ktkuru\AppData\Local\Temp\ccj9OBwd.s 			page 14


 745 0594 ACF4843F 		.word	1065677996
 746 0598 F1941F02 		.word	35624177
 747 059c 582E853F 		.word	1065692760
 748 05a0 00000000 		.word	de
 749 05a4 00000000 		.word	Taks3Pid1.17
 750 05a8 00000000 		.word	roll
 751 05ac 00000000 		.word	VOutput.16
 752 05b0 00000000 		.word	Taks3Pid2.15
 753 05b4 00000000 		.word	pitch
 754 05b8 00000000 		.word	Ltarget_angle.18
 755 05bc 00000000 		.word	LOutput.14
 756 05c0 00000000 		.word	time.20
 757 05c4 00000000 		.word	Taks3Pid3.13
 758 05c8 00000000 		.word	Taks3Pid4.12
 759 05cc 00000000 		.word	Taks3Pid5.11
 760 05d0 00000000 		.word	Taks3Pid6.10
 761 05d4 0000A042 		.word	1117782016
 762 05d8 00000000 		.word	Taks3Pid7.9
 763 05dc 00000000 		.word	Taks3Pid8.8
 764              	.L143:
 765 05e0 814B     		ldr	r3, .L155+32
 766 05e2 DB68     		ldr	r3, [r3, #12]
 767 05e4 1E33     		adds	r3, r3, #30
 768 05e6 07EE103A 		vmov	s14, r3	@ int
 769 05ea B8EEC77A 		vcvt.f32.s32	s14, s14
 770 05ee B4EEE77A 		vcmpe.f32	s14, s15
 771 05f2 F1EE10FA 		vmrs	APSR_nzcv, FPSCR
 772 05f6 3DDB     		blt	.L137
 773 05f8 7C48     		ldr	r0, .L155+36
 774 05fa C368     		ldr	r3, [r0, #12]
 775 05fc 7C4A     		ldr	r2, .L155+40
 776 05fe D2ED000A 		vldr.32	s1, [r2]
 777 0602 F1EE600A 		vneg.f32	s1, s1
 778 0606 B0EE490A 		vmov.f32	s0, s18
 779 060a 9847     		blx	r3
 780 060c 794B     		ldr	r3, .L155+44
 781 060e 83ED000A 		vstr.32	s0, [r3]
 782 0612 7948     		ldr	r0, .L155+48
 783 0614 C368     		ldr	r3, [r0, #12]
 784 0616 794A     		ldr	r2, .L155+52
 785 0618 D2ED000A 		vldr.32	s1, [r2]
 786 061c F1EE600A 		vneg.f32	s1, s1
 787 0620 774A     		ldr	r2, .L155+56
 788 0622 92ED000A 		vldr.32	s0, [r2]
 789 0626 9847     		blx	r3
 790 0628 B0EE408A 		vmov.f32	s16, s0
 791 062c 754B     		ldr	r3, .L155+60
 792 062e 83ED000A 		vstr.32	s0, [r3]
 793 0632 754C     		ldr	r4, .L155+64
 794 0634 2068     		ldr	r0, [r4]	@ float
 795 0636 FFF7FEFF 		bl	__aeabi_f2d
 796 063a 63A3     		adr	r3, .L155
 797 063c D3E90023 		ldrd	r2, [r3]
 798 0640 FFF7FEFF 		bl	__aeabi_dadd
 799 0644 FFF7FEFF 		bl	__aeabi_d2f
 800 0648 2060     		str	r0, [r4]	@ float
 801 064a FFF7FEFF 		bl	__aeabi_f2d
ARM GAS  C:\Users\ktkuru\AppData\Local\Temp\ccj9OBwd.s 			page 15


 802 064e 60A3     		adr	r3, .L155+8
 803 0650 D3E90023 		ldrd	r2, [r3]
 804 0654 FFF7FEFF 		bl	__aeabi_dcmplt
 805 0658 18B9     		cbnz	r0, .L148
 806 065a 6B4B     		ldr	r3, .L155+64
 807 065c 0022     		movs	r2, #0
 808 065e 1A60     		str	r2, [r3]	@ float
 809 0660 15E6     		b	.L25
 810              	.L148:
 811 0662 0020     		movs	r0, #0
 812 0664 F0EE480A 		vmov.f32	s1, s16
 813 0668 624B     		ldr	r3, .L155+44
 814 066a 93ED000A 		vldr.32	s0, [r3]
 815 066e FFF7FEFF 		bl	T3Motor_CmdCombination
 816 0672 0CE6     		b	.L25
 817              	.L137:
 818 0674 B4EEE77A 		vcmpe.f32	s14, s15
 819 0678 F1EE10FA 		vmrs	APSR_nzcv, FPSCR
 820 067c 49D5     		bpl	.L72
 821 067e 5A4B     		ldr	r3, .L155+32
 822 0680 1B69     		ldr	r3, [r3, #16]
 823 0682 2D33     		adds	r3, r3, #45
 824 0684 07EE103A 		vmov	s14, r3	@ int
 825 0688 B8EEC77A 		vcvt.f32.s32	s14, s14
 826 068c B4EEE77A 		vcmpe.f32	s14, s15
 827 0690 F1EE10FA 		vmrs	APSR_nzcv, FPSCR
 828 0694 3DDB     		blt	.L72
 829 0696 5D48     		ldr	r0, .L155+68
 830 0698 C368     		ldr	r3, [r0, #12]
 831 069a 554A     		ldr	r2, .L155+40
 832 069c D2ED000A 		vldr.32	s1, [r2]
 833 06a0 F1EE600A 		vneg.f32	s1, s1
 834 06a4 B0EE490A 		vmov.f32	s0, s18
 835 06a8 9847     		blx	r3
 836 06aa 524B     		ldr	r3, .L155+44
 837 06ac 83ED000A 		vstr.32	s0, [r3]
 838 06b0 5748     		ldr	r0, .L155+72
 839 06b2 C368     		ldr	r3, [r0, #12]
 840 06b4 514A     		ldr	r2, .L155+52
 841 06b6 D2ED000A 		vldr.32	s1, [r2]
 842 06ba F1EE600A 		vneg.f32	s1, s1
 843 06be 504A     		ldr	r2, .L155+56
 844 06c0 92ED000A 		vldr.32	s0, [r2]
 845 06c4 9847     		blx	r3
 846 06c6 B0EE408A 		vmov.f32	s16, s0
 847 06ca 4E4B     		ldr	r3, .L155+60
 848 06cc 83ED000A 		vstr.32	s0, [r3]
 849 06d0 4D4C     		ldr	r4, .L155+64
 850 06d2 2068     		ldr	r0, [r4]	@ float
 851 06d4 FFF7FEFF 		bl	__aeabi_f2d
 852 06d8 3FA3     		adr	r3, .L155+16
 853 06da D3E90023 		ldrd	r2, [r3]
 854 06de FFF7FEFF 		bl	__aeabi_dadd
 855 06e2 FFF7FEFF 		bl	__aeabi_d2f
 856 06e6 2060     		str	r0, [r4]	@ float
 857 06e8 FFF7FEFF 		bl	__aeabi_f2d
 858 06ec 38A3     		adr	r3, .L155+8
ARM GAS  C:\Users\ktkuru\AppData\Local\Temp\ccj9OBwd.s 			page 16


 859 06ee D3E90023 		ldrd	r2, [r3]
 860 06f2 FFF7FEFF 		bl	__aeabi_dcmplt
 861 06f6 18B9     		cbnz	r0, .L149
 862 06f8 434B     		ldr	r3, .L155+64
 863 06fa 0022     		movs	r2, #0
 864 06fc 1A60     		str	r2, [r3]	@ float
 865 06fe C6E5     		b	.L25
 866              	.L149:
 867 0700 0020     		movs	r0, #0
 868 0702 F0EE480A 		vmov.f32	s1, s16
 869 0706 3B4B     		ldr	r3, .L155+44
 870 0708 93ED000A 		vldr.32	s0, [r3]
 871 070c FFF7FEFF 		bl	T3Motor_CmdCombination
 872 0710 BDE5     		b	.L25
 873              	.L72:
 874 0712 354B     		ldr	r3, .L155+32
 875 0714 1B69     		ldr	r3, [r3, #16]
 876 0716 2D33     		adds	r3, r3, #45
 877 0718 07EE103A 		vmov	s14, r3	@ int
 878 071c B8EEC77A 		vcvt.f32.s32	s14, s14
 879 0720 B4EEE77A 		vcmpe.f32	s14, s15
 880 0724 F1EE10FA 		vmrs	APSR_nzcv, FPSCR
 881 0728 7FF5B1AD 		bpl	.L25
 882 072c 2E4B     		ldr	r3, .L155+32
 883 072e 5B69     		ldr	r3, [r3, #20]
 884 0730 3C33     		adds	r3, r3, #60
 885 0732 07EE103A 		vmov	s14, r3	@ int
 886 0736 B8EEC77A 		vcvt.f32.s32	s14, s14
 887 073a B4EEE77A 		vcmpe.f32	s14, s15
 888 073e F1EE10FA 		vmrs	APSR_nzcv, FPSCR
 889 0742 FFF6A4AD 		blt	.L25
 890 0746 3348     		ldr	r0, .L155+76
 891 0748 C368     		ldr	r3, [r0, #12]
 892 074a 294A     		ldr	r2, .L155+40
 893 074c D2ED000A 		vldr.32	s1, [r2]
 894 0750 F1EE600A 		vneg.f32	s1, s1
 895 0754 B0EE490A 		vmov.f32	s0, s18
 896 0758 9847     		blx	r3
 897 075a 264B     		ldr	r3, .L155+44
 898 075c 83ED000A 		vstr.32	s0, [r3]
 899 0760 2D48     		ldr	r0, .L155+80
 900 0762 C368     		ldr	r3, [r0, #12]
 901 0764 254A     		ldr	r2, .L155+52
 902 0766 D2ED000A 		vldr.32	s1, [r2]
 903 076a F1EE600A 		vneg.f32	s1, s1
 904 076e 244A     		ldr	r2, .L155+56
 905 0770 92ED000A 		vldr.32	s0, [r2]
 906 0774 9847     		blx	r3
 907 0776 B0EE408A 		vmov.f32	s16, s0
 908 077a 224B     		ldr	r3, .L155+60
 909 077c 83ED000A 		vstr.32	s0, [r3]
 910 0780 214C     		ldr	r4, .L155+64
 911 0782 2068     		ldr	r0, [r4]	@ float
 912 0784 FFF7FEFF 		bl	__aeabi_f2d
 913 0788 15A3     		adr	r3, .L155+24
 914 078a D3E90023 		ldrd	r2, [r3]
 915 078e FFF7FEFF 		bl	__aeabi_dadd
ARM GAS  C:\Users\ktkuru\AppData\Local\Temp\ccj9OBwd.s 			page 17


 916 0792 FFF7FEFF 		bl	__aeabi_d2f
 917 0796 2060     		str	r0, [r4]	@ float
 918 0798 FFF7FEFF 		bl	__aeabi_f2d
 919 079c 0CA3     		adr	r3, .L155+8
 920 079e D3E90023 		ldrd	r2, [r3]
 921 07a2 FFF7FEFF 		bl	__aeabi_dcmplt
 922 07a6 18B9     		cbnz	r0, .L150
 923 07a8 174B     		ldr	r3, .L155+64
 924 07aa 0022     		movs	r2, #0
 925 07ac 1A60     		str	r2, [r3]	@ float
 926 07ae 6EE5     		b	.L25
 927              	.L150:
 928 07b0 0020     		movs	r0, #0
 929 07b2 F0EE480A 		vmov.f32	s1, s16
 930 07b6 0F4B     		ldr	r3, .L155+44
 931 07b8 93ED000A 		vldr.32	s0, [r3]
 932 07bc FFF7FEFF 		bl	T3Motor_CmdCombination
 933 07c0 65E5     		b	.L25
 934              	.L156:
 935 07c2 00BFAFF3 		.align	3
 935      0080
 936              	.L155:
 937 07c8 62EAF879 		.word	2046356066
 938 07cc 9D1E853F 		.word	1065688733
 939 07d0 0C022B87 		.word	-2027224564
 940 07d4 16D9FA3F 		.word	1073404182
 941 07d8 4595AB69 		.word	1772852549
 942 07dc 28FF843F 		.word	1065680680
 943 07e0 175CBDD4 		.word	-725787625
 944 07e4 1929853F 		.word	1065691417
 945 07e8 00000000 		.word	de
 946 07ec 00000000 		.word	Taks3Pid1.17
 947 07f0 00000000 		.word	roll
 948 07f4 00000000 		.word	VOutput.16
 949 07f8 00000000 		.word	Taks3Pid2.15
 950 07fc 00000000 		.word	pitch
 951 0800 00000000 		.word	Ltarget_angle.18
 952 0804 00000000 		.word	LOutput.14
 953 0808 00000000 		.word	time.20
 954 080c 00000000 		.word	Taks3Pid3.13
 955 0810 00000000 		.word	Taks3Pid4.12
 956 0814 00000000 		.word	Taks3Pid5.11
 957 0818 00000000 		.word	Taks3Pid6.10
 959              		.section	.text.EXTI15_10_IRQHandler,"ax",%progbits
 960              		.align	1
 961              		.global	EXTI15_10_IRQHandler
 962              		.syntax unified
 963              		.thumb
 964              		.thumb_func
 966              	EXTI15_10_IRQHandler:
 967              		@ args = 0, pretend = 0, frame = 8
 968              		@ frame_needed = 0, uses_anonymous_args = 0
 969 0000 00B5     		push	{lr}
 970 0002 83B0     		sub	sp, sp, #12
 971 0004 4FF40040 		mov	r0, #32768
 972 0008 FFF7FEFF 		bl	EXTI_GetITStatus
 973 000c 10B9     		cbnz	r0, .L166
ARM GAS  C:\Users\ktkuru\AppData\Local\Temp\ccj9OBwd.s 			page 18


 974              	.L157:
 975 000e 03B0     		add	sp, sp, #12
 976              		@ sp needed
 977 0010 5DF804FB 		ldr	pc, [sp], #4
 978              	.L166:
 979 0014 4FF40040 		mov	r0, #32768
 980 0018 FFF7FEFF 		bl	EXTI_ClearITPendingBit
 981 001c 1A4A     		ldr	r2, .L167
 982 001e 1B49     		ldr	r1, .L167+4
 983 0020 1B48     		ldr	r0, .L167+8
 984 0022 FFF7FEFF 		bl	mpu_dmp_get_data
 985 0026 1B4B     		ldr	r3, .L167+12
 986 0028 1B78     		ldrb	r3, [r3]	@ zero_extendqisi2
 987 002a 013B     		subs	r3, r3, #1
 988 002c 042B     		cmp	r3, #4
 989 002e 28D8     		bhi	.L159
 990 0030 01A2     		adr	r2, .L160
 991 0032 52F823F0 		ldr	pc, [r2, r3, lsl #2]
 992 0036 00BF     		.p2align 2
 993              	.L160:
 994 0038 4D000000 		.word	.L163+1
 995 003c 83000000 		.word	.L159+1
 996 0040 6B000000 		.word	.L162+1
 997 0044 7D000000 		.word	.L161+1
 998 0048 0F000000 		.word	.L157+1
 999              		.p2align 1
 1000              	.L163:
 1001 004c 124B     		ldr	r3, .L167+16
 1002 004e D3ED007A 		vldr.32	s15, [r3]
 1003 0052 FCEEE77A 		vcvt.u32.f32	s15, s15
 1004 0056 CDED017A 		vstr.32	s15, [sp, #4]	@ int
 1005 005a 9DF80400 		ldrb	r0, [sp, #4]	@ zero_extendqisi2
 1006 005e 0F4B     		ldr	r3, .L167+20
 1007 0060 93ED000A 		vldr.32	s0, [r3]
 1008 0064 FFF7FEFF 		bl	Task1_LineMove
 1009 0068 D1E7     		b	.L157
 1010              	.L162:
 1011 006a 0C4B     		ldr	r3, .L167+20
 1012 006c D3ED000A 		vldr.32	s1, [r3]
 1013 0070 094B     		ldr	r3, .L167+16
 1014 0072 93ED000A 		vldr.32	s0, [r3]
 1015 0076 FFF7FEFF 		bl	Task3_AngleMove
 1016 007a C8E7     		b	.L157
 1017              	.L161:
 1018 007c FFF7FEFF 		bl	Task4_StopFast
 1019 0080 C5E7     		b	.L157
 1020              	.L159:
 1021 0082 FFF7FEFF 		bl	StopAllMotor
 1022 0086 C2E7     		b	.L157
 1023              	.L168:
 1024              		.align	2
 1025              	.L167:
 1026 0088 00000000 		.word	yaw
 1027 008c 00000000 		.word	roll
 1028 0090 00000000 		.word	pitch
 1029 0094 00000000 		.word	mode
 1030 0098 00000000 		.word	Target_angle
ARM GAS  C:\Users\ktkuru\AppData\Local\Temp\ccj9OBwd.s 			page 19


 1031 009c 00000000 		.word	Target_dis
 1033              		.global	__aeabi_dcmpgt
 1034              		.section	.text.Task5_CircleMove,"ax",%progbits
 1035              		.align	1
 1036              		.global	Task5_CircleMove
 1037              		.syntax unified
 1038              		.thumb
 1039              		.thumb_func
 1041              	Task5_CircleMove:
 1042              		@ args = 0, pretend = 0, frame = 0
 1043              		@ frame_needed = 0, uses_anonymous_args = 0
 1044 0000 70B5     		push	{r4, r5, r6, lr}
 1045 0002 2DED048B 		vpush.64	{d8, d9}
 1046 0006 10EE104A 		vmov	r4, s0
 1047 000a 2046     		mov	r0, r4	@ float
 1048 000c FFF7FEFF 		bl	__aeabi_f2d
 1049 0010 B0A3     		adr	r3, .L199+116
 1050 0012 D3E90023 		ldrd	r2, [r3]
 1051 0016 FFF7FEFF 		bl	__aeabi_dcmpge
 1052 001a 00B1     		cbz	r0, .L170
 1053 001c 9E4C     		ldr	r4, .L199+56
 1054              	.L170:
 1055 001e 2046     		mov	r0, r4	@ float
 1056 0020 FFF7FEFF 		bl	__aeabi_f2d
 1057 0024 8EA3     		adr	r3, .L199
 1058 0026 D3E90023 		ldrd	r2, [r3]
 1059 002a FFF7FEFF 		bl	__aeabi_dadd
 1060 002e FFF7FEFF 		bl	__aeabi_d2f
 1061 0032 08EE100A 		vmov	s16, r0
 1062 0036 994B     		ldr	r3, .L199+60
 1063 0038 D3ED000A 		vldr.32	s1, [r3]
 1064 003c 984B     		ldr	r3, .L199+64
 1065 003e 93ED000A 		vldr.32	s0, [r3]
 1066 0042 FFF7FEFF 		bl	GetPolar
 1067 0046 B6EE0C0A 		vmov.f32	s0, #8.75e-1
 1068 004a 88EE000A 		vdiv.f32	s0, s16, s0
 1069 004e FFF7FEFF 		bl	asinf
 1070 0052 DFED947A 		vldr.32	s15, .L199+68
 1071 0056 60EE277A 		vmul.f32	s15, s0, s15
 1072 005a 17EE900A 		vmov	r0, s15
 1073 005e FFF7FEFF 		bl	__aeabi_f2d
 1074 0062 81A3     		adr	r3, .L199+8
 1075 0064 D3E90023 		ldrd	r2, [r3]
 1076 0068 FFF7FEFF 		bl	__aeabi_ddiv
 1077 006c FFF7FEFF 		bl	__aeabi_d2f
 1078 0070 08EE100A 		vmov	s16, r0
 1079 0074 8C4B     		ldr	r3, .L199+72
 1080 0076 1860     		str	r0, [r3]	@ float
 1081 0078 8C4C     		ldr	r4, .L199+76
 1082 007a D4ED008A 		vldr.32	s17, [r4]
 1083 007e 18EE900A 		vmov	r0, s17
 1084 0082 FFF7FEFF 		bl	__aeabi_f2d
 1085 0086 7AA3     		adr	r3, .L199+16
 1086 0088 D3E90023 		ldrd	r2, [r3]
 1087 008c FFF7FEFF 		bl	__aeabi_dmul
 1088 0090 FFF7FEFF 		bl	__aeabi_d2f
 1089 0094 09EE100A 		vmov	s18, r0
ARM GAS  C:\Users\ktkuru\AppData\Local\Temp\ccj9OBwd.s 			page 20


 1090 0098 B0EE490A 		vmov.f32	s0, s18
 1091 009c FFF7FEFF 		bl	sinf
 1092 00a0 68EE009A 		vmul.f32	s19, s16, s0
 1093 00a4 824B     		ldr	r3, .L199+80
 1094 00a6 C3ED009A 		vstr.32	s19, [r3]
 1095 00aa B0EE490A 		vmov.f32	s0, s18
 1096 00ae FFF7FEFF 		bl	cosf
 1097 00b2 28EE008A 		vmul.f32	s16, s16, s0
 1098 00b6 7F4B     		ldr	r3, .L199+84
 1099 00b8 83ED008A 		vstr.32	s16, [r3]
 1100 00bc 7E4B     		ldr	r3, .L199+88
 1101 00be D3ED007A 		vldr.32	s15, [r3]
 1102 00c2 78EEA78A 		vadd.f32	s17, s17, s15
 1103 00c6 C4ED008A 		vstr.32	s17, [r4]
 1104 00ca 18EE900A 		vmov	r0, s17
 1105 00ce FFF7FEFF 		bl	__aeabi_f2d
 1106 00d2 69A3     		adr	r3, .L199+24
 1107 00d4 D3E90023 		ldrd	r2, [r3]
 1108 00d8 FFF7FEFF 		bl	__aeabi_dcmpgt
 1109 00dc 0028     		cmp	r0, #0
 1110 00de 34D1     		bne	.L198
 1111 00e0 19EE100A 		vmov	r0, s18
 1112 00e4 FFF7FEFF 		bl	__aeabi_f2d
 1113 00e8 0446     		mov	r4, r0
 1114 00ea 0D46     		mov	r5, r1
 1115 00ec 64A3     		adr	r3, .L199+32
 1116 00ee D3E90023 		ldrd	r2, [r3]
 1117 00f2 FFF7FEFF 		bl	__aeabi_dcmplt
 1118 00f6 58B3     		cbz	r0, .L174
 1119 00f8 B5EEC09A 		vcmpe.f32	s18, #0
 1120 00fc F1EE10FA 		vmrs	APSR_nzcv, FPSCR
 1121 0100 26DB     		blt	.L174
 1122 0102 6E48     		ldr	r0, .L199+92
 1123 0104 C368     		ldr	r3, [r0, #12]
 1124 0106 6E4A     		ldr	r2, .L199+96
 1125 0108 D2ED000A 		vldr.32	s1, [r2]
 1126 010c B0EE690A 		vmov.f32	s0, s19
 1127 0110 9847     		blx	r3
 1128 0112 6C4B     		ldr	r3, .L199+100
 1129 0114 83ED000A 		vstr.32	s0, [r3]
 1130 0118 6B48     		ldr	r0, .L199+104
 1131 011a C368     		ldr	r3, [r0, #12]
 1132 011c 6B4A     		ldr	r2, .L199+108
 1133 011e D2ED000A 		vldr.32	s1, [r2]
 1134 0122 644A     		ldr	r2, .L199+84
 1135 0124 92ED000A 		vldr.32	s0, [r2]
 1136 0128 9847     		blx	r3
 1137 012a 694B     		ldr	r3, .L199+112
 1138 012c 83ED000A 		vstr.32	s0, [r3]
 1139 0130 0126     		movs	r6, #1
 1140              	.L177:
 1141 0132 674B     		ldr	r3, .L199+112
 1142 0134 D3ED000A 		vldr.32	s1, [r3]
 1143 0138 624B     		ldr	r3, .L199+100
 1144 013a 93ED000A 		vldr.32	s0, [r3]
 1145 013e 3046     		mov	r0, r6
 1146 0140 FFF7FEFF 		bl	T5Motor_CmdCombination
ARM GAS  C:\Users\ktkuru\AppData\Local\Temp\ccj9OBwd.s 			page 21


 1147              	.L169:
 1148 0144 BDEC048B 		vldm	sp!, {d8-d9}
 1149 0148 70BD     		pop	{r4, r5, r6, pc}
 1150              	.L198:
 1151 014a 0022     		movs	r2, #0
 1152 014c 2260     		str	r2, [r4]	@ float
 1153 014e F9E7     		b	.L169
 1154              	.L174:
 1155 0150 45A3     		adr	r3, .L199+8
 1156 0152 D3E90023 		ldrd	r2, [r3]
 1157 0156 2046     		mov	r0, r4
 1158 0158 2946     		mov	r1, r5
 1159 015a FFF7FEFF 		bl	__aeabi_dcmplt
 1160 015e 10B3     		cbz	r0, .L178
 1161 0160 47A3     		adr	r3, .L199+32
 1162 0162 D3E90023 		ldrd	r2, [r3]
 1163 0166 2046     		mov	r0, r4
 1164 0168 2946     		mov	r1, r5
 1165 016a FFF7FEFF 		bl	__aeabi_dcmpge
 1166 016e D0B1     		cbz	r0, .L178
 1167 0170 5248     		ldr	r0, .L199+92
 1168 0172 C368     		ldr	r3, [r0, #12]
 1169 0174 524A     		ldr	r2, .L199+96
 1170 0176 D2ED000A 		vldr.32	s1, [r2]
 1171 017a B0EE690A 		vmov.f32	s0, s19
 1172 017e 9847     		blx	r3
 1173 0180 504B     		ldr	r3, .L199+100
 1174 0182 83ED000A 		vstr.32	s0, [r3]
 1175 0186 5048     		ldr	r0, .L199+104
 1176 0188 C368     		ldr	r3, [r0, #12]
 1177 018a 504A     		ldr	r2, .L199+108
 1178 018c D2ED000A 		vldr.32	s1, [r2]
 1179 0190 F1EE600A 		vneg.f32	s1, s1
 1180 0194 474A     		ldr	r2, .L199+84
 1181 0196 92ED000A 		vldr.32	s0, [r2]
 1182 019a 9847     		blx	r3
 1183 019c 4C4B     		ldr	r3, .L199+112
 1184 019e 83ED000A 		vstr.32	s0, [r3]
 1185 01a2 0226     		movs	r6, #2
 1186 01a4 C5E7     		b	.L177
 1187              	.L178:
 1188 01a6 38A3     		adr	r3, .L199+40
 1189 01a8 D3E90023 		ldrd	r2, [r3]
 1190 01ac 2046     		mov	r0, r4
 1191 01ae 2946     		mov	r1, r5
 1192 01b0 FFF7FEFF 		bl	__aeabi_dcmplt
 1193 01b4 20B3     		cbz	r0, .L181
 1194 01b6 2CA3     		adr	r3, .L199+8
 1195 01b8 D3E90023 		ldrd	r2, [r3]
 1196 01bc 2046     		mov	r0, r4
 1197 01be 2946     		mov	r1, r5
 1198 01c0 FFF7FEFF 		bl	__aeabi_dcmpge
 1199 01c4 E0B1     		cbz	r0, .L181
 1200 01c6 3D48     		ldr	r0, .L199+92
 1201 01c8 C368     		ldr	r3, [r0, #12]
 1202 01ca 3D4A     		ldr	r2, .L199+96
 1203 01cc D2ED000A 		vldr.32	s1, [r2]
ARM GAS  C:\Users\ktkuru\AppData\Local\Temp\ccj9OBwd.s 			page 22


 1204 01d0 F1EE600A 		vneg.f32	s1, s1
 1205 01d4 B0EE690A 		vmov.f32	s0, s19
 1206 01d8 9847     		blx	r3
 1207 01da 3A4B     		ldr	r3, .L199+100
 1208 01dc 83ED000A 		vstr.32	s0, [r3]
 1209 01e0 3948     		ldr	r0, .L199+104
 1210 01e2 C368     		ldr	r3, [r0, #12]
 1211 01e4 394A     		ldr	r2, .L199+108
 1212 01e6 D2ED000A 		vldr.32	s1, [r2]
 1213 01ea F1EE600A 		vneg.f32	s1, s1
 1214 01ee 314A     		ldr	r2, .L199+84
 1215 01f0 92ED000A 		vldr.32	s0, [r2]
 1216 01f4 9847     		blx	r3
 1217 01f6 364B     		ldr	r3, .L199+112
 1218 01f8 83ED000A 		vstr.32	s0, [r3]
 1219 01fc 0326     		movs	r6, #3
 1220 01fe 98E7     		b	.L177
 1221              	.L181:
 1222 0200 23A3     		adr	r3, .L199+48
 1223 0202 D3E90023 		ldrd	r2, [r3]
 1224 0206 2046     		mov	r0, r4
 1225 0208 2946     		mov	r1, r5
 1226 020a FFF7FEFF 		bl	__aeabi_dcmplt
 1227 020e 0028     		cmp	r0, #0
 1228 0210 8FD0     		beq	.L177
 1229 0212 1DA3     		adr	r3, .L199+40
 1230 0214 D3E90023 		ldrd	r2, [r3]
 1231 0218 2046     		mov	r0, r4
 1232 021a 2946     		mov	r1, r5
 1233 021c FFF7FEFF 		bl	__aeabi_dcmpge
 1234 0220 0028     		cmp	r0, #0
 1235 0222 86D0     		beq	.L177
 1236 0224 2548     		ldr	r0, .L199+92
 1237 0226 C368     		ldr	r3, [r0, #12]
 1238 0228 254A     		ldr	r2, .L199+96
 1239 022a D2ED000A 		vldr.32	s1, [r2]
 1240 022e F1EE600A 		vneg.f32	s1, s1
 1241 0232 B0EE690A 		vmov.f32	s0, s19
 1242 0236 9847     		blx	r3
 1243 0238 224B     		ldr	r3, .L199+100
 1244 023a 83ED000A 		vstr.32	s0, [r3]
 1245 023e 2248     		ldr	r0, .L199+104
 1246 0240 C368     		ldr	r3, [r0, #12]
 1247 0242 224A     		ldr	r2, .L199+108
 1248 0244 D2ED000A 		vldr.32	s1, [r2]
 1249 0248 1A4A     		ldr	r2, .L199+84
 1250 024a 92ED000A 		vldr.32	s0, [r2]
 1251 024e 9847     		blx	r3
 1252 0250 1F4B     		ldr	r3, .L199+112
 1253 0252 83ED000A 		vstr.32	s0, [r3]
 1254 0256 0426     		movs	r6, #4
 1255 0258 6BE7     		b	.L177
 1256              	.L200:
 1257 025a 00BFAFF3 		.align	3
 1257      0080
 1258              	.L199:
 1259 0260 9A999999 		.word	-1717986918
ARM GAS  C:\Users\ktkuru\AppData\Local\Temp\ccj9OBwd.s 			page 23


 1260 0264 9999A93F 		.word	1068079513
 1261 0268 4AD8124D 		.word	1293080650
 1262 026c FB210940 		.word	1074340347
 1263 0270 7983A29B 		.word	-1683848327
 1264 0274 A1F40D40 		.word	1074656417
 1265 0278 0C022B87 		.word	-2027224564
 1266 027c 16D9FA3F 		.word	1073404182
 1267 0280 4AD8124D 		.word	1293080650
 1268 0284 FB21F93F 		.word	1073291771
 1269 0288 3822CE79 		.word	2043552312
 1270 028c 7CD91240 		.word	1074977148
 1271 0290 4AD8124D 		.word	1293080650
 1272 0294 FB211940 		.word	1075388923
 1273 0298 8FC2753E 		.word	1047904911
 1274 029c 00000000 		.word	pitch
 1275 02a0 00000000 		.word	roll
 1276 02a4 00003443 		.word	1127481344
 1277 02a8 00000000 		.word	A.7
 1278 02ac 00000000 		.word	time.6
 1279 02b0 00000000 		.word	Vtarget_angle.5
 1280 02b4 00000000 		.word	Ltarget_angle.4
 1281 02b8 00000000 		.word	timepp
 1282 02bc 00000000 		.word	Taks5Pid.3
 1283 02c0 00000000 		.word	absroll
 1284 02c4 00000000 		.word	VOutput.2
 1285 02c8 00000000 		.word	Taks5Pid2.1
 1286 02cc 00000000 		.word	abspitch
 1287 02d0 00000000 		.word	LOutput.0
 1288 02d4 B81E85EB 		.word	-343597384
 1289 02d8 51B8CE3F 		.word	1070512209
 1291              		.section	.text.TIM2_IRQHandler,"ax",%progbits
 1292              		.align	1
 1293              		.global	TIM2_IRQHandler
 1294              		.syntax unified
 1295              		.thumb
 1296              		.thumb_func
 1298              	TIM2_IRQHandler:
 1299              		@ args = 0, pretend = 0, frame = 0
 1300              		@ frame_needed = 0, uses_anonymous_args = 0
 1301 0000 08B5     		push	{r3, lr}
 1302 0002 0121     		movs	r1, #1
 1303 0004 4FF08040 		mov	r0, #1073741824
 1304 0008 FFF7FEFF 		bl	TIM_GetITStatus
 1305 000c 00B9     		cbnz	r0, .L204
 1306              	.L201:
 1307 000e 08BD     		pop	{r3, pc}
 1308              	.L204:
 1309 0010 0121     		movs	r1, #1
 1310 0012 4FF08040 		mov	r0, #1073741824
 1311 0016 FFF7FEFF 		bl	TIM_ClearITPendingBit
 1312 001a 034B     		ldr	r3, .L205
 1313 001c 93ED000A 		vldr.32	s0, [r3]
 1314 0020 FFF7FEFF 		bl	Task5_CircleMove
 1315 0024 F3E7     		b	.L201
 1316              	.L206:
 1317 0026 00BF     		.align	2
 1318              	.L205:
ARM GAS  C:\Users\ktkuru\AppData\Local\Temp\ccj9OBwd.s 			page 24


 1319 0028 00000000 		.word	target_R
 1321              		.section	.bss.LOutput.0,"aw",%nobits
 1322              		.align	2
 1325              	LOutput.0:
 1326 0000 00000000 		.space	4
 1327              		.section	.data.Taks5Pid2.1,"aw"
 1328              		.align	2
 1331              	Taks5Pid2.1:
 1332 0000 00809343 		.word	1133740032
 1333 0004 00000000 		.word	0
 1334 0008 00000000 		.word	0
 1335 000c 00000000 		.word	PidControl_LineMove
 1336              		.section	.bss.VOutput.2,"aw",%nobits
 1337              		.align	2
 1340              	VOutput.2:
 1341 0000 00000000 		.space	4
 1342              		.section	.data.Taks5Pid.3,"aw"
 1343              		.align	2
 1346              	Taks5Pid.3:
 1347 0000 00809343 		.word	1133740032
 1348 0004 00000000 		.word	0
 1349 0008 00000000 		.word	0
 1350 000c 00000000 		.word	PidControl_LineMove
 1351              		.section	.bss.Ltarget_angle.4,"aw",%nobits
 1352              		.align	2
 1355              	Ltarget_angle.4:
 1356 0000 00000000 		.space	4
 1357              		.section	.bss.Vtarget_angle.5,"aw",%nobits
 1358              		.align	2
 1361              	Vtarget_angle.5:
 1362 0000 00000000 		.space	4
 1363              		.section	.bss.time.6,"aw",%nobits
 1364              		.align	2
 1367              	time.6:
 1368 0000 00000000 		.space	4
 1369              		.section	.bss.A.7,"aw",%nobits
 1370              		.align	2
 1373              	A.7:
 1374 0000 00000000 		.space	4
 1375              		.section	.data.Taks3Pid8.8,"aw"
 1376              		.align	2
 1379              	Taks3Pid8.8:
 1380 0000 0000AA43 		.word	1135214592
 1381 0004 00000000 		.word	0
 1382 0008 0000B4C2 		.word	-1028390912
 1383 000c 00000000 		.word	PidControl_LineMove
 1384              		.section	.data.Taks3Pid7.9,"aw"
 1385              		.align	2
 1388              	Taks3Pid7.9:
 1389 0000 0000AA43 		.word	1135214592
 1390 0004 00000000 		.word	0
 1391 0008 0000B4C2 		.word	-1028390912
 1392 000c 00000000 		.word	PidControl_LineMove
 1393              		.section	.data.Taks3Pid6.10,"aw"
 1394              		.align	2
 1397              	Taks3Pid6.10:
 1398 0000 0000BE43 		.word	1136525312
ARM GAS  C:\Users\ktkuru\AppData\Local\Temp\ccj9OBwd.s 			page 25


 1399 0004 00000000 		.word	0
 1400 0008 0000DCC2 		.word	-1025769472
 1401 000c 00000000 		.word	PidControl_LineMove
 1402              		.section	.data.Taks3Pid5.11,"aw"
 1403              		.align	2
 1406              	Taks3Pid5.11:
 1407 0000 0000BE43 		.word	1136525312
 1408 0004 00000000 		.word	0
 1409 0008 0000DCC2 		.word	-1025769472
 1410 000c 00000000 		.word	PidControl_LineMove
 1411              		.section	.data.Taks3Pid4.12,"aw"
 1412              		.align	2
 1415              	Taks3Pid4.12:
 1416 0000 0080AC43 		.word	1135378432
 1417 0004 00000000 		.word	0
 1418 0008 0000B4C2 		.word	-1028390912
 1419 000c 00000000 		.word	PidControl_LineMove
 1420              		.section	.data.Taks3Pid3.13,"aw"
 1421              		.align	2
 1424              	Taks3Pid3.13:
 1425 0000 0080AC43 		.word	1135378432
 1426 0004 00000000 		.word	0
 1427 0008 0000B4C2 		.word	-1028390912
 1428 000c 00000000 		.word	PidControl_LineMove
 1429              		.section	.bss.LOutput.14,"aw",%nobits
 1430              		.align	2
 1433              	LOutput.14:
 1434 0000 00000000 		.space	4
 1435              		.section	.data.Taks3Pid2.15,"aw"
 1436              		.align	2
 1439              	Taks3Pid2.15:
 1440 0000 0000BE43 		.word	1136525312
 1441 0004 00000000 		.word	0
 1442 0008 0000DCC2 		.word	-1025769472
 1443 000c 00000000 		.word	PidControl_LineMove
 1444              		.section	.bss.VOutput.16,"aw",%nobits
 1445              		.align	2
 1448              	VOutput.16:
 1449 0000 00000000 		.space	4
 1450              		.section	.data.Taks3Pid1.17,"aw"
 1451              		.align	2
 1454              	Taks3Pid1.17:
 1455 0000 0000BE43 		.word	1136525312
 1456 0004 00000000 		.word	0
 1457 0008 0000DCC2 		.word	-1025769472
 1458 000c 00000000 		.word	PidControl_LineMove
 1459              		.section	.bss.Ltarget_angle.18,"aw",%nobits
 1460              		.align	2
 1463              	Ltarget_angle.18:
 1464 0000 00000000 		.space	4
 1465              		.section	.bss.Vtarget_angle.19,"aw",%nobits
 1466              		.align	2
 1469              	Vtarget_angle.19:
 1470 0000 00000000 		.space	4
 1471              		.section	.bss.time.20,"aw",%nobits
 1472              		.align	2
 1475              	time.20:
ARM GAS  C:\Users\ktkuru\AppData\Local\Temp\ccj9OBwd.s 			page 26


 1476 0000 00000000 		.space	4
 1477              		.section	.bss.target_pitch.21,"aw",%nobits
 1478              		.align	2
 1481              	target_pitch.21:
 1482 0000 00000000 		.space	4
 1483              		.section	.bss.target_roll.22,"aw",%nobits
 1484              		.align	2
 1487              	target_roll.22:
 1488 0000 00000000 		.space	4
 1489              		.section	.data.Taks1Pid2.23,"aw"
 1490              		.align	2
 1493              	Taks1Pid2.23:
 1494 0000 00806D44 		.word	1148026880
 1495 0004 00000000 		.word	0
 1496 0008 0000A0C3 		.word	-1012924416
 1497 000c 00000000 		.word	PidControl_LineMove
 1498              		.section	.bss.LOutput.24,"aw",%nobits
 1499              		.align	2
 1502              	LOutput.24:
 1503 0000 00000000 		.space	4
 1504              		.section	.bss.VOutput.25,"aw",%nobits
 1505              		.align	2
 1508              	VOutput.25:
 1509 0000 00000000 		.space	4
 1510              		.section	.data.Taks1Pid1.26,"aw"
 1511              		.align	2
 1514              	Taks1Pid1.26:
 1515 0000 00803B44 		.word	1144750080
 1516 0004 00000000 		.word	0
 1517 0008 008093C3 		.word	-1013743616
 1518 000c 00000000 		.word	PidControl_LineMove
 1519              		.section	.bss.time.27,"aw",%nobits
 1520              		.align	2
 1523              	time.27:
 1524 0000 00000000 		.space	4
 1525              		.section	.bss.A.28,"aw",%nobits
 1526              		.align	2
 1529              	A.28:
 1530 0000 00000000 		.space	4
 1531              		.section	.bss.Output.29,"aw",%nobits
 1532              		.align	2
 1535              	Output.29:
 1536 0000 00000000 		.space	4
 1537              		.section	.data.Taks4Pid.30,"aw"
 1538              		.align	2
 1541              	Taks4Pid.30:
 1542 0000 00401C47 		.word	1193033728
 1543 0004 00000000 		.word	0
 1544 0008 000096C3 		.word	-1013579776
 1545 000c 00000000 		.word	PidControl_Stop
 1546              		.global	timepp
 1547              		.section	.data.timepp,"aw"
 1548              		.align	2
 1551              	timepp:
 1552 0000 2D7A273C 		.word	1009220141
 1553              		.global	target_angle
 1554              		.section	.bss.target_angle,"aw",%nobits
ARM GAS  C:\Users\ktkuru\AppData\Local\Temp\ccj9OBwd.s 			page 27


 1555              		.align	2
 1558              	target_angle:
 1559 0000 00000000 		.space	4
 1560              		.global	target_R
 1561              		.section	.data.target_R,"aw"
 1562              		.align	2
 1565              	target_R:
 1566 0000 9A99193E 		.word	1041865114
 1567              		.global	mode
 1568              		.section	.bss.mode,"aw",%nobits
 1571              	mode:
 1572 0000 00       		.space	1
 1573              		.global	Target_angle
 1574              		.section	.bss.Target_angle,"aw",%nobits
 1575              		.align	2
 1578              	Target_angle:
 1579 0000 00000000 		.space	4
 1580              		.global	Target_dis
 1581              		.section	.bss.Target_dis,"aw",%nobits
 1582              		.align	2
 1585              	Target_dis:
 1586 0000 00000000 		.space	4
 1587              		.global	de
 1588              		.section	.data.de,"aw"
 1589              		.align	2
 1592              	de:
 1593 0000 00000000 		.word	0
 1594 0004 FBFFFFFF 		.word	-5
 1595 0008 F9FFFFFF 		.word	-7
 1596 000c 0C000000 		.word	12
 1597 0010 0A000000 		.word	10
 1598 0014 09000000 		.word	9
 1599 0018 F6FFFFFF 		.word	-10
 1600              		.ident	"GCC: (Arm GNU Toolchain 13.3.Rel1 (Build arm-13.24)) 13.3.1 20240614"
ARM GAS  C:\Users\ktkuru\AppData\Local\Temp\ccj9OBwd.s 			page 28


DEFINED SYMBOLS
                            *ABS*:00000000 Control_Task.c
C:\Users\ktkuru\AppData\Local\Temp\ccj9OBwd.s:19     .rodata.Task4_StopFast.str1.4:00000000 $d
C:\Users\ktkuru\AppData\Local\Temp\ccj9OBwd.s:23     .text.Task4_StopFast:00000000 $t
C:\Users\ktkuru\AppData\Local\Temp\ccj9OBwd.s:29     .text.Task4_StopFast:00000000 Task4_StopFast
C:\Users\ktkuru\AppData\Local\Temp\ccj9OBwd.s:58     .text.Task4_StopFast:00000044 $d
C:\Users\ktkuru\AppData\Local\Temp\ccj9OBwd.s:1541   .data.Taks4Pid.30:00000000 Taks4Pid.30
C:\Users\ktkuru\AppData\Local\Temp\ccj9OBwd.s:1535   .bss.Output.29:00000000 Output.29
C:\Users\ktkuru\AppData\Local\Temp\ccj9OBwd.s:74     .text.Task1_LineMove:00000000 $t
C:\Users\ktkuru\AppData\Local\Temp\ccj9OBwd.s:80     .text.Task1_LineMove:00000000 Task1_LineMove
C:\Users\ktkuru\AppData\Local\Temp\ccj9OBwd.s:231    .text.Task1_LineMove:00000198 $d
C:\Users\ktkuru\AppData\Local\Temp\ccj9OBwd.s:1529   .bss.A.28:00000000 A.28
C:\Users\ktkuru\AppData\Local\Temp\ccj9OBwd.s:1523   .bss.time.27:00000000 time.27
C:\Users\ktkuru\AppData\Local\Temp\ccj9OBwd.s:1558   .bss.target_angle:00000000 target_angle
C:\Users\ktkuru\AppData\Local\Temp\ccj9OBwd.s:1514   .data.Taks1Pid1.26:00000000 Taks1Pid1.26
C:\Users\ktkuru\AppData\Local\Temp\ccj9OBwd.s:1508   .bss.VOutput.25:00000000 VOutput.25
C:\Users\ktkuru\AppData\Local\Temp\ccj9OBwd.s:1502   .bss.LOutput.24:00000000 LOutput.24
C:\Users\ktkuru\AppData\Local\Temp\ccj9OBwd.s:1493   .data.Taks1Pid2.23:00000000 Taks1Pid2.23
C:\Users\ktkuru\AppData\Local\Temp\ccj9OBwd.s:259    .text.Task3_AngleMove:00000000 $t
C:\Users\ktkuru\AppData\Local\Temp\ccj9OBwd.s:265    .text.Task3_AngleMove:00000000 Task3_AngleMove
C:\Users\ktkuru\AppData\Local\Temp\ccj9OBwd.s:491    .text.Task3_AngleMove:000002b0 $d
C:\Users\ktkuru\AppData\Local\Temp\ccj9OBwd.s:1592   .data.de:00000000 de
C:\Users\ktkuru\AppData\Local\Temp\ccj9OBwd.s:1487   .bss.target_roll.22:00000000 target_roll.22
C:\Users\ktkuru\AppData\Local\Temp\ccj9OBwd.s:1481   .bss.target_pitch.21:00000000 target_pitch.21
C:\Users\ktkuru\AppData\Local\Temp\ccj9OBwd.s:1475   .bss.time.20:00000000 time.20
C:\Users\ktkuru\AppData\Local\Temp\ccj9OBwd.s:1469   .bss.Vtarget_angle.19:00000000 Vtarget_angle.19
C:\Users\ktkuru\AppData\Local\Temp\ccj9OBwd.s:1463   .bss.Ltarget_angle.18:00000000 Ltarget_angle.18
C:\Users\ktkuru\AppData\Local\Temp\ccj9OBwd.s:513    .text.Task3_AngleMove:00000304 $t
C:\Users\ktkuru\AppData\Local\Temp\ccj9OBwd.s:738    .text.Task3_AngleMove:00000578 $d
C:\Users\ktkuru\AppData\Local\Temp\ccj9OBwd.s:1454   .data.Taks3Pid1.17:00000000 Taks3Pid1.17
C:\Users\ktkuru\AppData\Local\Temp\ccj9OBwd.s:1448   .bss.VOutput.16:00000000 VOutput.16
C:\Users\ktkuru\AppData\Local\Temp\ccj9OBwd.s:1439   .data.Taks3Pid2.15:00000000 Taks3Pid2.15
C:\Users\ktkuru\AppData\Local\Temp\ccj9OBwd.s:1433   .bss.LOutput.14:00000000 LOutput.14
C:\Users\ktkuru\AppData\Local\Temp\ccj9OBwd.s:1424   .data.Taks3Pid3.13:00000000 Taks3Pid3.13
C:\Users\ktkuru\AppData\Local\Temp\ccj9OBwd.s:1415   .data.Taks3Pid4.12:00000000 Taks3Pid4.12
C:\Users\ktkuru\AppData\Local\Temp\ccj9OBwd.s:1406   .data.Taks3Pid5.11:00000000 Taks3Pid5.11
C:\Users\ktkuru\AppData\Local\Temp\ccj9OBwd.s:1397   .data.Taks3Pid6.10:00000000 Taks3Pid6.10
C:\Users\ktkuru\AppData\Local\Temp\ccj9OBwd.s:1388   .data.Taks3Pid7.9:00000000 Taks3Pid7.9
C:\Users\ktkuru\AppData\Local\Temp\ccj9OBwd.s:1379   .data.Taks3Pid8.8:00000000 Taks3Pid8.8
C:\Users\ktkuru\AppData\Local\Temp\ccj9OBwd.s:765    .text.Task3_AngleMove:000005e0 $t
C:\Users\ktkuru\AppData\Local\Temp\ccj9OBwd.s:937    .text.Task3_AngleMove:000007c8 $d
C:\Users\ktkuru\AppData\Local\Temp\ccj9OBwd.s:960    .text.EXTI15_10_IRQHandler:00000000 $t
C:\Users\ktkuru\AppData\Local\Temp\ccj9OBwd.s:966    .text.EXTI15_10_IRQHandler:00000000 EXTI15_10_IRQHandler
C:\Users\ktkuru\AppData\Local\Temp\ccj9OBwd.s:994    .text.EXTI15_10_IRQHandler:00000038 $d
C:\Users\ktkuru\AppData\Local\Temp\ccj9OBwd.s:999    .text.EXTI15_10_IRQHandler:0000004c $t
C:\Users\ktkuru\AppData\Local\Temp\ccj9OBwd.s:1026   .text.EXTI15_10_IRQHandler:00000088 $d
C:\Users\ktkuru\AppData\Local\Temp\ccj9OBwd.s:1571   .bss.mode:00000000 mode
C:\Users\ktkuru\AppData\Local\Temp\ccj9OBwd.s:1578   .bss.Target_angle:00000000 Target_angle
C:\Users\ktkuru\AppData\Local\Temp\ccj9OBwd.s:1585   .bss.Target_dis:00000000 Target_dis
C:\Users\ktkuru\AppData\Local\Temp\ccj9OBwd.s:1035   .text.Task5_CircleMove:00000000 $t
C:\Users\ktkuru\AppData\Local\Temp\ccj9OBwd.s:1041   .text.Task5_CircleMove:00000000 Task5_CircleMove
C:\Users\ktkuru\AppData\Local\Temp\ccj9OBwd.s:1259   .text.Task5_CircleMove:00000260 $d
C:\Users\ktkuru\AppData\Local\Temp\ccj9OBwd.s:1373   .bss.A.7:00000000 A.7
C:\Users\ktkuru\AppData\Local\Temp\ccj9OBwd.s:1367   .bss.time.6:00000000 time.6
C:\Users\ktkuru\AppData\Local\Temp\ccj9OBwd.s:1361   .bss.Vtarget_angle.5:00000000 Vtarget_angle.5
C:\Users\ktkuru\AppData\Local\Temp\ccj9OBwd.s:1355   .bss.Ltarget_angle.4:00000000 Ltarget_angle.4
C:\Users\ktkuru\AppData\Local\Temp\ccj9OBwd.s:1551   .data.timepp:00000000 timepp
ARM GAS  C:\Users\ktkuru\AppData\Local\Temp\ccj9OBwd.s 			page 29


C:\Users\ktkuru\AppData\Local\Temp\ccj9OBwd.s:1346   .data.Taks5Pid.3:00000000 Taks5Pid.3
C:\Users\ktkuru\AppData\Local\Temp\ccj9OBwd.s:1340   .bss.VOutput.2:00000000 VOutput.2
C:\Users\ktkuru\AppData\Local\Temp\ccj9OBwd.s:1331   .data.Taks5Pid2.1:00000000 Taks5Pid2.1
C:\Users\ktkuru\AppData\Local\Temp\ccj9OBwd.s:1325   .bss.LOutput.0:00000000 LOutput.0
C:\Users\ktkuru\AppData\Local\Temp\ccj9OBwd.s:1292   .text.TIM2_IRQHandler:00000000 $t
C:\Users\ktkuru\AppData\Local\Temp\ccj9OBwd.s:1298   .text.TIM2_IRQHandler:00000000 TIM2_IRQHandler
C:\Users\ktkuru\AppData\Local\Temp\ccj9OBwd.s:1319   .text.TIM2_IRQHandler:00000028 $d
C:\Users\ktkuru\AppData\Local\Temp\ccj9OBwd.s:1565   .data.target_R:00000000 target_R
C:\Users\ktkuru\AppData\Local\Temp\ccj9OBwd.s:1322   .bss.LOutput.0:00000000 $d
C:\Users\ktkuru\AppData\Local\Temp\ccj9OBwd.s:1328   .data.Taks5Pid2.1:00000000 $d
C:\Users\ktkuru\AppData\Local\Temp\ccj9OBwd.s:1337   .bss.VOutput.2:00000000 $d
C:\Users\ktkuru\AppData\Local\Temp\ccj9OBwd.s:1343   .data.Taks5Pid.3:00000000 $d
C:\Users\ktkuru\AppData\Local\Temp\ccj9OBwd.s:1352   .bss.Ltarget_angle.4:00000000 $d
C:\Users\ktkuru\AppData\Local\Temp\ccj9OBwd.s:1358   .bss.Vtarget_angle.5:00000000 $d
C:\Users\ktkuru\AppData\Local\Temp\ccj9OBwd.s:1364   .bss.time.6:00000000 $d
C:\Users\ktkuru\AppData\Local\Temp\ccj9OBwd.s:1370   .bss.A.7:00000000 $d
C:\Users\ktkuru\AppData\Local\Temp\ccj9OBwd.s:1376   .data.Taks3Pid8.8:00000000 $d
C:\Users\ktkuru\AppData\Local\Temp\ccj9OBwd.s:1385   .data.Taks3Pid7.9:00000000 $d
C:\Users\ktkuru\AppData\Local\Temp\ccj9OBwd.s:1394   .data.Taks3Pid6.10:00000000 $d
C:\Users\ktkuru\AppData\Local\Temp\ccj9OBwd.s:1403   .data.Taks3Pid5.11:00000000 $d
C:\Users\ktkuru\AppData\Local\Temp\ccj9OBwd.s:1412   .data.Taks3Pid4.12:00000000 $d
C:\Users\ktkuru\AppData\Local\Temp\ccj9OBwd.s:1421   .data.Taks3Pid3.13:00000000 $d
C:\Users\ktkuru\AppData\Local\Temp\ccj9OBwd.s:1430   .bss.LOutput.14:00000000 $d
C:\Users\ktkuru\AppData\Local\Temp\ccj9OBwd.s:1436   .data.Taks3Pid2.15:00000000 $d
C:\Users\ktkuru\AppData\Local\Temp\ccj9OBwd.s:1445   .bss.VOutput.16:00000000 $d
C:\Users\ktkuru\AppData\Local\Temp\ccj9OBwd.s:1451   .data.Taks3Pid1.17:00000000 $d
C:\Users\ktkuru\AppData\Local\Temp\ccj9OBwd.s:1460   .bss.Ltarget_angle.18:00000000 $d
C:\Users\ktkuru\AppData\Local\Temp\ccj9OBwd.s:1466   .bss.Vtarget_angle.19:00000000 $d
C:\Users\ktkuru\AppData\Local\Temp\ccj9OBwd.s:1472   .bss.time.20:00000000 $d
C:\Users\ktkuru\AppData\Local\Temp\ccj9OBwd.s:1478   .bss.target_pitch.21:00000000 $d
C:\Users\ktkuru\AppData\Local\Temp\ccj9OBwd.s:1484   .bss.target_roll.22:00000000 $d
C:\Users\ktkuru\AppData\Local\Temp\ccj9OBwd.s:1490   .data.Taks1Pid2.23:00000000 $d
C:\Users\ktkuru\AppData\Local\Temp\ccj9OBwd.s:1499   .bss.LOutput.24:00000000 $d
C:\Users\ktkuru\AppData\Local\Temp\ccj9OBwd.s:1505   .bss.VOutput.25:00000000 $d
C:\Users\ktkuru\AppData\Local\Temp\ccj9OBwd.s:1511   .data.Taks1Pid1.26:00000000 $d
C:\Users\ktkuru\AppData\Local\Temp\ccj9OBwd.s:1520   .bss.time.27:00000000 $d
C:\Users\ktkuru\AppData\Local\Temp\ccj9OBwd.s:1526   .bss.A.28:00000000 $d
C:\Users\ktkuru\AppData\Local\Temp\ccj9OBwd.s:1532   .bss.Output.29:00000000 $d
C:\Users\ktkuru\AppData\Local\Temp\ccj9OBwd.s:1538   .data.Taks4Pid.30:00000000 $d
C:\Users\ktkuru\AppData\Local\Temp\ccj9OBwd.s:1548   .data.timepp:00000000 $d
C:\Users\ktkuru\AppData\Local\Temp\ccj9OBwd.s:1555   .bss.target_angle:00000000 $d
C:\Users\ktkuru\AppData\Local\Temp\ccj9OBwd.s:1562   .data.target_R:00000000 $d
C:\Users\ktkuru\AppData\Local\Temp\ccj9OBwd.s:1572   .bss.mode:00000000 $d
C:\Users\ktkuru\AppData\Local\Temp\ccj9OBwd.s:1575   .bss.Target_angle:00000000 $d
C:\Users\ktkuru\AppData\Local\Temp\ccj9OBwd.s:1582   .bss.Target_dis:00000000 $d
C:\Users\ktkuru\AppData\Local\Temp\ccj9OBwd.s:1589   .data.de:00000000 $d

UNDEFINED SYMBOLS
__aeabi_f2d
GetPolar
printf
PWM_Allocation
pitch
roll
dis
__aeabi_ddiv
__aeabi_d2f
ARM GAS  C:\Users\ktkuru\AppData\Local\Temp\ccj9OBwd.s 			page 30


__aeabi_dmul
__aeabi_dcmple
__aeabi_dcmpge
__aeabi_dadd
__aeabi_dcmplt
atanf
sinf
Motor_Cmd
cosf
T3Motor_CmdCombination
EXTI_GetITStatus
EXTI_ClearITPendingBit
mpu_dmp_get_data
StopAllMotor
yaw
__aeabi_dcmpgt
asinf
T5Motor_CmdCombination
absroll
abspitch
TIM_GetITStatus
TIM_ClearITPendingBit
PidControl_LineMove
PidControl_Stop
