ARM GAS  C:\Users\ktkuru\AppData\Local\Temp\cccnUAzt.s 			page 1


   1              		.cpu cortex-m4
   2              		.arch armv7e-m
   3              		.fpu fpv4-sp-d16
   4              		.eabi_attribute 27, 1
   5              		.eabi_attribute 28, 1
   6              		.eabi_attribute 20, 1
   7              		.eabi_attribute 21, 1
   8              		.eabi_attribute 23, 3
   9              		.eabi_attribute 24, 1
  10              		.eabi_attribute 25, 1
  11              		.eabi_attribute 26, 1
  12              		.eabi_attribute 30, 1
  13              		.eabi_attribute 34, 1
  14              		.eabi_attribute 18, 4
  15              		.file	"Control_Task.c"
  16              		.text
  17              		.section	.rodata.Task_MoveLine.str1.4,"aMS",%progbits,1
  18              		.align	2
  19              	.LC0:
  20 0000 4C4F3A25 		.ascii	"LO:%f\000"
  20      6600
  21              		.global	__aeabi_f2d
  22 0006 0000     		.align	2
  23              	.LC1:
  24 0008 534F3A25 		.ascii	"SO:%f\000"
  24      6600
  25              		.section	.text.Task_MoveLine,"ax",%progbits
  26              		.align	1
  27              		.global	Task_MoveLine
  28              		.syntax unified
  29              		.thumb
  30              		.thumb_func
  32              	Task_MoveLine:
  33              		@ args = 0, pretend = 0, frame = 0
  34              		@ frame_needed = 0, uses_anonymous_args = 0
  35 0000 00B5     		push	{lr}
  36 0002 83B0     		sub	sp, sp, #12
  37 0004 334B     		ldr	r3, .L17
  38 0006 D3ED000A 		vldr.32	s1, [r3]
  39 000a F2EE0E7A 		vmov.f32	s15, #1.5e+1
  40 000e F4EEE70A 		vcmpe.f32	s1, s15
  41 0012 F1EE10FA 		vmrs	APSR_nzcv, FPSCR
  42 0016 04D5     		bpl	.L2
  43 0018 F5EEC00A 		vcmpe.f32	s1, #0
  44 001c F1EE10FA 		vmrs	APSR_nzcv, FPSCR
  45 0020 3ADC     		bgt	.L15
  46              	.L2:
  47 0022 FAEE0E7A 		vmov.f32	s15, #-1.5e+1
  48 0026 F4EEE70A 		vcmpe.f32	s1, s15
  49 002a F1EE10FA 		vmrs	APSR_nzcv, FPSCR
  50 002e 04D5     		bpl	.L6
  51 0030 F5EEC00A 		vcmpe.f32	s1, #0
  52 0034 F1EE10FA 		vmrs	APSR_nzcv, FPSCR
  53 0038 37DC     		bgt	.L16
  54              	.L6:
  55 003a F2EE0E7A 		vmov.f32	s15, #1.5e+1
  56 003e F4EE670A 		vcmp.f32	s1, s15
ARM GAS  C:\Users\ktkuru\AppData\Local\Temp\cccnUAzt.s 			page 2


  57 0042 F1EE10FA 		vmrs	APSR_nzcv, FPSCR
  58 0046 39D1     		bne	.L9
  59 0048 234B     		ldr	r3, .L17+4
  60 004a 244A     		ldr	r2, .L17+8
  61 004c 1A60     		str	r2, [r3]	@ float
  62              	.L5:
  63 004e 244B     		ldr	r3, .L17+12
  64 0050 D3ED000A 		vldr.32	s1, [r3]
  65 0054 9FED230A 		vldr.32	s0, .L17+16
  66 0058 FFF7FEFF 		bl	PidControl_LineState
  67 005c 10EE100A 		vmov	r0, s0
  68 0060 214B     		ldr	r3, .L17+20
  69 0062 83ED000A 		vstr.32	s0, [r3]
  70 0066 FFF7FEFF 		bl	__aeabi_f2d
  71 006a CDE90001 		strd	r0, [sp]
  72 006e 1F4B     		ldr	r3, .L17+24
  73 0070 0622     		movs	r2, #6
  74 0072 2021     		movs	r1, #32
  75 0074 0020     		movs	r0, #0
  76 0076 FFF7FEFF 		bl	OLED_Printf
  77 007a 1D4B     		ldr	r3, .L17+28
  78 007c 1868     		ldr	r0, [r3]	@ float
  79 007e FFF7FEFF 		bl	__aeabi_f2d
  80 0082 CDE90001 		strd	r0, [sp]
  81 0086 1B4B     		ldr	r3, .L17+32
  82 0088 0622     		movs	r2, #6
  83 008a 3021     		movs	r1, #48
  84 008c 0020     		movs	r0, #0
  85 008e FFF7FEFF 		bl	OLED_Printf
  86 0092 03B0     		add	sp, sp, #12
  87              		@ sp needed
  88 0094 5DF804FB 		ldr	pc, [sp], #4
  89              	.L15:
  90 0098 0F4B     		ldr	r3, .L17+4
  91 009a 93ED000A 		vldr.32	s0, [r3]
  92 009e FFF7FEFF 		bl	PidControl_SwingState
  93 00a2 134B     		ldr	r3, .L17+28
  94 00a4 83ED000A 		vstr.32	s0, [r3]
  95 00a8 D1E7     		b	.L5
  96              	.L16:
  97 00aa 0B4B     		ldr	r3, .L17+4
  98 00ac 93ED000A 		vldr.32	s0, [r3]
  99 00b0 FFF7FEFF 		bl	PidControl_SwingState
 100 00b4 0E4B     		ldr	r3, .L17+28
 101 00b6 83ED000A 		vstr.32	s0, [r3]
 102 00ba C8E7     		b	.L5
 103              	.L9:
 104 00bc FAEE0E7A 		vmov.f32	s15, #-1.5e+1
 105 00c0 F4EE670A 		vcmp.f32	s1, s15
 106 00c4 F1EE10FA 		vmrs	APSR_nzcv, FPSCR
 107 00c8 C1D1     		bne	.L5
 108 00ca 034B     		ldr	r3, .L17+4
 109 00cc 0A4A     		ldr	r2, .L17+36
 110 00ce 1A60     		str	r2, [r3]	@ float
 111 00d0 BDE7     		b	.L5
 112              	.L18:
 113 00d2 00BF     		.align	2
ARM GAS  C:\Users\ktkuru\AppData\Local\Temp\cccnUAzt.s 			page 3


 114              	.L17:
 115 00d4 00000000 		.word	pitch
 116 00d8 00000000 		.word	TargetPitch.2
 117 00dc 000070C1 		.word	-1049624576
 118 00e0 00000000 		.word	roll
 119 00e4 00000000 		.word	0
 120 00e8 00000000 		.word	LineState_Output.0
 121 00ec 00000000 		.word	.LC0
 122 00f0 00000000 		.word	SwingState_Output.1
 123 00f4 08000000 		.word	.LC1
 124 00f8 00007041 		.word	1097859072
 126              		.section	.text.EXTI15_10_IRQHandler,"ax",%progbits
 127              		.align	1
 128              		.global	EXTI15_10_IRQHandler
 129              		.syntax unified
 130              		.thumb
 131              		.thumb_func
 133              	EXTI15_10_IRQHandler:
 134              		@ args = 0, pretend = 0, frame = 0
 135              		@ frame_needed = 0, uses_anonymous_args = 0
 136 0000 08B5     		push	{r3, lr}
 137 0002 4FF40040 		mov	r0, #32768
 138 0006 FFF7FEFF 		bl	EXTI_GetITStatus
 139 000a 00B9     		cbnz	r0, .L22
 140              	.L19:
 141 000c 08BD     		pop	{r3, pc}
 142              	.L22:
 143 000e 4FF40040 		mov	r0, #32768
 144 0012 FFF7FEFF 		bl	EXTI_ClearITPendingBit
 145 0016 044A     		ldr	r2, .L23
 146 0018 0449     		ldr	r1, .L23+4
 147 001a 0548     		ldr	r0, .L23+8
 148 001c FFF7FEFF 		bl	mpu_dmp_get_data
 149 0020 FFF7FEFF 		bl	Task_MoveLine
 150 0024 F2E7     		b	.L19
 151              	.L24:
 152 0026 00BF     		.align	2
 153              	.L23:
 154 0028 00000000 		.word	yaw
 155 002c 00000000 		.word	roll
 156 0030 00000000 		.word	pitch
 158              		.section	.bss.LineState_Output.0,"aw",%nobits
 159              		.align	2
 162              	LineState_Output.0:
 163 0000 00000000 		.space	4
 164              		.section	.bss.SwingState_Output.1,"aw",%nobits
 165              		.align	2
 168              	SwingState_Output.1:
 169 0000 00000000 		.space	4
 170              		.section	.data.TargetPitch.2,"aw"
 171              		.align	2
 174              	TargetPitch.2:
 175 0000 00007041 		.word	1097859072
 176              		.global	SWKd
 177              		.section	.bss.SWKd,"aw",%nobits
 178              		.align	2
 181              	SWKd:
ARM GAS  C:\Users\ktkuru\AppData\Local\Temp\cccnUAzt.s 			page 4


 182 0000 00000000 		.space	4
 183              		.global	SWKi
 184              		.section	.bss.SWKi,"aw",%nobits
 185              		.align	2
 188              	SWKi:
 189 0000 00000000 		.space	4
 190              		.global	SWKp
 191              		.section	.data.SWKp,"aw"
 192              		.align	2
 195              	SWKp:
 196 0000 0000A041 		.word	1101004800
 197              		.global	LSKd
 198              		.section	.bss.LSKd,"aw",%nobits
 199              		.align	2
 202              	LSKd:
 203 0000 00000000 		.space	4
 204              		.global	LSKi
 205              		.section	.bss.LSKi,"aw",%nobits
 206              		.align	2
 209              	LSKi:
 210 0000 00000000 		.space	4
 211              		.global	LSKp
 212              		.section	.data.LSKp,"aw"
 213              		.align	2
 216              	LSKp:
 217 0000 00409C45 		.word	1167867904
 218              		.ident	"GCC: (Arm GNU Toolchain 13.3.Rel1 (Build arm-13.24)) 13.3.1 20240614"
ARM GAS  C:\Users\ktkuru\AppData\Local\Temp\cccnUAzt.s 			page 5


DEFINED SYMBOLS
                            *ABS*:00000000 Control_Task.c
C:\Users\ktkuru\AppData\Local\Temp\cccnUAzt.s:18     .rodata.Task_MoveLine.str1.4:00000000 $d
C:\Users\ktkuru\AppData\Local\Temp\cccnUAzt.s:26     .text.Task_MoveLine:00000000 $t
C:\Users\ktkuru\AppData\Local\Temp\cccnUAzt.s:32     .text.Task_MoveLine:00000000 Task_MoveLine
C:\Users\ktkuru\AppData\Local\Temp\cccnUAzt.s:115    .text.Task_MoveLine:000000d4 $d
C:\Users\ktkuru\AppData\Local\Temp\cccnUAzt.s:174    .data.TargetPitch.2:00000000 TargetPitch.2
C:\Users\ktkuru\AppData\Local\Temp\cccnUAzt.s:162    .bss.LineState_Output.0:00000000 LineState_Output.0
C:\Users\ktkuru\AppData\Local\Temp\cccnUAzt.s:168    .bss.SwingState_Output.1:00000000 SwingState_Output.1
C:\Users\ktkuru\AppData\Local\Temp\cccnUAzt.s:127    .text.EXTI15_10_IRQHandler:00000000 $t
C:\Users\ktkuru\AppData\Local\Temp\cccnUAzt.s:133    .text.EXTI15_10_IRQHandler:00000000 EXTI15_10_IRQHandler
C:\Users\ktkuru\AppData\Local\Temp\cccnUAzt.s:154    .text.EXTI15_10_IRQHandler:00000028 $d
C:\Users\ktkuru\AppData\Local\Temp\cccnUAzt.s:159    .bss.LineState_Output.0:00000000 $d
C:\Users\ktkuru\AppData\Local\Temp\cccnUAzt.s:165    .bss.SwingState_Output.1:00000000 $d
C:\Users\ktkuru\AppData\Local\Temp\cccnUAzt.s:171    .data.TargetPitch.2:00000000 $d
C:\Users\ktkuru\AppData\Local\Temp\cccnUAzt.s:181    .bss.SWKd:00000000 SWKd
C:\Users\ktkuru\AppData\Local\Temp\cccnUAzt.s:178    .bss.SWKd:00000000 $d
C:\Users\ktkuru\AppData\Local\Temp\cccnUAzt.s:188    .bss.SWKi:00000000 SWKi
C:\Users\ktkuru\AppData\Local\Temp\cccnUAzt.s:185    .bss.SWKi:00000000 $d
C:\Users\ktkuru\AppData\Local\Temp\cccnUAzt.s:195    .data.SWKp:00000000 SWKp
C:\Users\ktkuru\AppData\Local\Temp\cccnUAzt.s:192    .data.SWKp:00000000 $d
C:\Users\ktkuru\AppData\Local\Temp\cccnUAzt.s:202    .bss.LSKd:00000000 LSKd
C:\Users\ktkuru\AppData\Local\Temp\cccnUAzt.s:199    .bss.LSKd:00000000 $d
C:\Users\ktkuru\AppData\Local\Temp\cccnUAzt.s:209    .bss.LSKi:00000000 LSKi
C:\Users\ktkuru\AppData\Local\Temp\cccnUAzt.s:206    .bss.LSKi:00000000 $d
C:\Users\ktkuru\AppData\Local\Temp\cccnUAzt.s:216    .data.LSKp:00000000 LSKp
C:\Users\ktkuru\AppData\Local\Temp\cccnUAzt.s:213    .data.LSKp:00000000 $d

UNDEFINED SYMBOLS
__aeabi_f2d
PidControl_LineState
OLED_Printf
PidControl_SwingState
pitch
roll
EXTI_GetITStatus
EXTI_ClearITPendingBit
mpu_dmp_get_data
yaw
