ARM GAS  C:\Users\ktkuru\AppData\Local\Temp\cc4p81ld.s 			page 1


   1              		.cpu cortex-m4
   2              		.arch armv7e-m
   3              		.fpu fpv4-sp-d16
   4              		.eabi_attribute 27, 1
   5              		.eabi_attribute 28, 1
   6              		.eabi_attribute 20, 1
   7              		.eabi_attribute 21, 1
   8              		.eabi_attribute 23, 3
   9              		.eabi_attribute 24, 1
  10              		.eabi_attribute 25, 1
  11              		.eabi_attribute 26, 1
  12              		.eabi_attribute 30, 1
  13              		.eabi_attribute 34, 1
  14              		.eabi_attribute 18, 4
  15              		.file	"control.c"
  16              		.text
  17              		.global	__aeabi_f2d
  18              		.global	__aeabi_dmul
  19              		.global	__aeabi_d2f
  20              		.global	__aeabi_ddiv
  21              		.section	.text.GetPolar,"ax",%progbits
  22              		.align	1
  23              		.global	GetPolar
  24              		.syntax unified
  25              		.thumb
  26              		.thumb_func
  28              	GetPolar:
  29              		@ args = 0, pretend = 0, frame = 0
  30              		@ frame_needed = 0, uses_anonymous_args = 0
  31 0000 08B5     		push	{r3, lr}
  32 0002 2DED068B 		vpush.64	{d8, d9, d10}
  33 0006 F0EE408A 		vmov.f32	s17, s0
  34 000a B0EE608A 		vmov.f32	s16, s1
  35 000e B5EEC00A 		vcmpe.f32	s0, #0
  36 0012 F1EE10FA 		vmrs	APSR_nzcv, FPSCR
  37 0016 00F19E80 		bmi	.L30
  38 001a F0EE407A 		vmov.f32	s15, s0
  39              	.L2:
  40 001e B5EEC08A 		vcmpe.f32	s16, #0
  41 0022 F1EE10FA 		vmrs	APSR_nzcv, FPSCR
  42 0026 00F19980 		bmi	.L31
  43 002a F0EE489A 		vmov.f32	s19, s16
  44              	.L4:
  45 002e 9FED60AA 		vldr.32	s20, .L36+8
  46 0032 C7EE8A7A 		vdiv.f32	s15, s15, s20
  47 0036 17EE900A 		vmov	r0, s15
  48 003a FFF7FEFF 		bl	__aeabi_f2d
  49 003e 5AA3     		adr	r3, .L36
  50 0040 D3E90023 		ldrd	r2, [r3]
  51 0044 FFF7FEFF 		bl	__aeabi_dmul
  52 0048 FFF7FEFF 		bl	__aeabi_d2f
  53 004c 09EE100A 		vmov	s18, r0
  54 0050 C9EE8A7A 		vdiv.f32	s15, s19, s20
  55 0054 17EE900A 		vmov	r0, s15
  56 0058 FFF7FEFF 		bl	__aeabi_f2d
  57 005c 52A3     		adr	r3, .L36
  58 005e D3E90023 		ldrd	r2, [r3]
ARM GAS  C:\Users\ktkuru\AppData\Local\Temp\cc4p81ld.s 			page 2


  59 0062 FFF7FEFF 		bl	__aeabi_dmul
  60 0066 FFF7FEFF 		bl	__aeabi_d2f
  61 006a 09EE900A 		vmov	s19, r0
  62 006e B0EE490A 		vmov.f32	s0, s18
  63 0072 FFF7FEFF 		bl	tanf
  64 0076 B0EE409A 		vmov.f32	s18, s0
  65 007a 60EE00AA 		vmul.f32	s21, s0, s0
  66 007e B0EE690A 		vmov.f32	s0, s19
  67 0082 FFF7FEFF 		bl	tanf
  68 0086 F0EE409A 		vmov.f32	s19, s0
  69 008a 20EE000A 		vmul.f32	s0, s0, s0
  70 008e 3AEE800A 		vadd.f32	s0, s21, s0
  71 0092 FFF7FEFF 		bl	sqrtf
  72 0096 FFF7FEFF 		bl	atanf
  73 009a 10EE100A 		vmov	r0, s0
  74 009e FFF7FEFF 		bl	__aeabi_f2d
  75 00a2 0022     		movs	r2, #0
  76 00a4 434B     		ldr	r3, .L36+12
  77 00a6 FFF7FEFF 		bl	__aeabi_dmul
  78 00aa 3FA3     		adr	r3, .L36
  79 00ac D3E90023 		ldrd	r2, [r3]
  80 00b0 FFF7FEFF 		bl	__aeabi_ddiv
  81 00b4 FFF7FEFF 		bl	__aeabi_d2f
  82 00b8 07EE900A 		vmov	s15, r0
  83 00bc 3E4B     		ldr	r3, .L36+16
  84 00be 1860     		str	r0, [r3]	@ float
  85 00c0 C7EE8A7A 		vdiv.f32	s15, s15, s20
  86 00c4 17EE900A 		vmov	r0, s15
  87 00c8 FFF7FEFF 		bl	__aeabi_f2d
  88 00cc 36A3     		adr	r3, .L36
  89 00ce D3E90023 		ldrd	r2, [r3]
  90 00d2 FFF7FEFF 		bl	__aeabi_dmul
  91 00d6 FFF7FEFF 		bl	__aeabi_d2f
  92 00da 00EE100A 		vmov	s0, r0
  93 00de FFF7FEFF 		bl	tanf
  94 00e2 DFED367A 		vldr.32	s15, .L36+20
  95 00e6 20EE27AA 		vmul.f32	s20, s0, s15
  96 00ea 354B     		ldr	r3, .L36+24
  97 00ec 83ED00AA 		vstr.32	s20, [r3]
  98 00f0 89EE890A 		vdiv.f32	s0, s19, s18
  99 00f4 FFF7FEFF 		bl	atanf
 100 00f8 10EE100A 		vmov	r0, s0
 101 00fc FFF7FEFF 		bl	__aeabi_f2d
 102 0100 0022     		movs	r2, #0
 103 0102 2C4B     		ldr	r3, .L36+12
 104 0104 FFF7FEFF 		bl	__aeabi_dmul
 105 0108 27A3     		adr	r3, .L36
 106 010a D3E90023 		ldrd	r2, [r3]
 107 010e FFF7FEFF 		bl	__aeabi_ddiv
 108 0112 FFF7FEFF 		bl	__aeabi_d2f
 109 0116 07EE900A 		vmov	s15, r0
 110 011a 2A4B     		ldr	r3, .L36+28
 111 011c 1860     		str	r0, [r3]	@ float
 112 011e B5EEC08A 		vcmpe.f32	s16, #0
 113 0122 F1EE10FA 		vmrs	APSR_nzcv, FPSCR
 114 0126 1CD4     		bmi	.L32
 115              	.L6:
ARM GAS  C:\Users\ktkuru\AppData\Local\Temp\cc4p81ld.s 			page 3


 116 0128 B5EEC08A 		vcmpe.f32	s16, #0
 117 012c F1EE10FA 		vmrs	APSR_nzcv, FPSCR
 118 0130 1CDD     		ble	.L8
 119 0132 F5EEC08A 		vcmpe.f32	s17, #0
 120 0136 F1EE10FA 		vmrs	APSR_nzcv, FPSCR
 121 013a 29D4     		bmi	.L33
 122 013c F5EEC08A 		vcmpe.f32	s17, #0
 123 0140 F1EE10FA 		vmrs	APSR_nzcv, FPSCR
 124 0144 12DD     		ble	.L8
 125 0146 9FED207A 		vldr.32	s14, .L36+32
 126 014a 77EE677A 		vsub.f32	s15, s14, s15
 127 014e 1D4B     		ldr	r3, .L36+28
 128 0150 C3ED007A 		vstr.32	s15, [r3]
 129 0154 0AE0     		b	.L8
 130              	.L30:
 131 0156 F1EE407A 		vneg.f32	s15, s0
 132 015a 60E7     		b	.L2
 133              	.L31:
 134 015c F1EE489A 		vneg.f32	s19, s16
 135 0160 65E7     		b	.L4
 136              	.L32:
 137 0162 F5EEC08A 		vcmpe.f32	s17, #0
 138 0166 F1EE10FA 		vmrs	APSR_nzcv, FPSCR
 139 016a 09DD     		ble	.L34
 140              	.L8:
 141 016c F7EE007A 		vmov.f32	s15, #1.0e+0
 142 0170 B4EEE7AA 		vcmpe.f32	s20, s15
 143 0174 F1EE10FA 		vmrs	APSR_nzcv, FPSCR
 144 0178 12D4     		bmi	.L35
 145              	.L1:
 146 017a BDEC068B 		vldm	sp!, {d8-d10}
 147 017e 08BD     		pop	{r3, pc}
 148              	.L34:
 149 0180 D2D5     		bpl	.L6
 150 0182 9FED0B7A 		vldr.32	s14, .L36+8
 151 0186 77EE677A 		vsub.f32	s15, s14, s15
 152 018a C3ED007A 		vstr.32	s15, [r3]
 153 018e EDE7     		b	.L8
 154              	.L33:
 155 0190 9FED077A 		vldr.32	s14, .L36+8
 156 0194 77EE877A 		vadd.f32	s15, s15, s14
 157 0198 0A4B     		ldr	r3, .L36+28
 158 019a C3ED007A 		vstr.32	s15, [r3]
 159 019e E5E7     		b	.L8
 160              	.L35:
 161 01a0 084B     		ldr	r3, .L36+28
 162 01a2 0022     		movs	r2, #0
 163 01a4 1A60     		str	r2, [r3]	@ float
 164 01a6 E8E7     		b	.L1
 165              	.L37:
 166              		.align	3
 167              	.L36:
 168 01a8 4AD8124D 		.word	1293080650
 169 01ac FB210940 		.word	1074340347
 170 01b0 00003443 		.word	1127481344
 171 01b4 00806640 		.word	1080459264
 172 01b8 00000000 		.word	def
ARM GAS  C:\Users\ktkuru\AppData\Local\Temp\cc4p81ld.s 			page 4


 173 01bc 0000AC42 		.word	1118568448
 174 01c0 00000000 		.word	dis
 175 01c4 00000000 		.word	polar
 176 01c8 0000B443 		.word	1135869952
 178              		.global	__aeabi_dcmplt
 179              		.global	__aeabi_dcmpgt
 180              		.section	.text.PidControl_Stop,"ax",%progbits
 181              		.align	1
 182              		.global	PidControl_Stop
 183              		.syntax unified
 184              		.thumb
 185              		.thumb_func
 187              	PidControl_Stop:
 188              		@ args = 0, pretend = 0, frame = 0
 189              		@ frame_needed = 0, uses_anonymous_args = 0
 190 0000 38B5     		push	{r3, r4, r5, lr}
 191 0002 2DED028B 		vpush.64	{d8}
 192 0006 30EE608A 		vsub.f32	s16, s0, s1
 193 000a 334B     		ldr	r3, .L52+16
 194 000c 83ED008A 		vstr.32	s16, [r3]
 195 0010 324B     		ldr	r3, .L52+20
 196 0012 D3ED007A 		vldr.32	s15, [r3]
 197 0016 77EE887A 		vadd.f32	s15, s15, s16
 198 001a C3ED007A 		vstr.32	s15, [r3]
 199 001e 304B     		ldr	r3, .L52+24
 200 0020 1868     		ldr	r0, [r3]	@ float
 201 0022 FFF7FEFF 		bl	__aeabi_f2d
 202 0026 0446     		mov	r4, r0
 203 0028 0D46     		mov	r5, r1
 204 002a 27A3     		adr	r3, .L52
 205 002c D3E90023 		ldrd	r2, [r3]
 206 0030 FFF7FEFF 		bl	__aeabi_dcmplt
 207 0034 50B1     		cbz	r0, .L39
 208 0036 26A3     		adr	r3, .L52+8
 209 0038 D3E90023 		ldrd	r2, [r3]
 210 003c 2046     		mov	r0, r4
 211 003e 2946     		mov	r1, r5
 212 0040 FFF7FEFF 		bl	__aeabi_dcmpgt
 213 0044 10B1     		cbz	r0, .L39
 214 0046 254B     		ldr	r3, .L52+20
 215 0048 0022     		movs	r2, #0
 216 004a 1A60     		str	r2, [r3]	@ float
 217              	.L39:
 218 004c 234B     		ldr	r3, .L52+20
 219 004e D3ED007A 		vldr.32	s15, [r3]
 220 0052 9FED247A 		vldr.32	s14, .L52+28
 221 0056 F4EEC77A 		vcmpe.f32	s15, s14
 222 005a F1EE10FA 		vmrs	APSR_nzcv, FPSCR
 223 005e 27D5     		bpl	.L50
 224 0060 83ED007A 		vstr.32	s14, [r3]
 225              	.L44:
 226 0064 204B     		ldr	r3, .L52+32
 227 0066 D3ED007A 		vldr.32	s15, [r3]
 228 006a 78EE677A 		vsub.f32	s15, s16, s15
 229 006e 1F4A     		ldr	r2, .L52+36
 230 0070 C2ED007A 		vstr.32	s15, [r2]
 231 0074 1E4A     		ldr	r2, .L52+40
ARM GAS  C:\Users\ktkuru\AppData\Local\Temp\cc4p81ld.s 			page 5


 232 0076 92ED000A 		vldr.32	s0, [r2]
 233 007a 28EE000A 		vmul.f32	s0, s16, s0
 234 007e 1D4A     		ldr	r2, .L52+44
 235 0080 92ED007A 		vldr.32	s14, [r2]
 236 0084 154A     		ldr	r2, .L52+20
 237 0086 D2ED006A 		vldr.32	s13, [r2]
 238 008a 27EE267A 		vmul.f32	s14, s14, s13
 239 008e 30EE070A 		vadd.f32	s0, s0, s14
 240 0092 194A     		ldr	r2, .L52+48
 241 0094 92ED007A 		vldr.32	s14, [r2]
 242 0098 67EE877A 		vmul.f32	s15, s15, s14
 243 009c 30EE270A 		vadd.f32	s0, s0, s15
 244 00a0 164A     		ldr	r2, .L52+52
 245 00a2 82ED000A 		vstr.32	s0, [r2]
 246 00a6 83ED008A 		vstr.32	s16, [r3]
 247 00aa BDEC028B 		vldm	sp!, {d8}
 248 00ae 38BD     		pop	{r3, r4, r5, pc}
 249              	.L50:
 250 00b0 9FED137A 		vldr.32	s14, .L52+56
 251 00b4 F4EEC77A 		vcmpe.f32	s15, s14
 252 00b8 F1EE10FA 		vmrs	APSR_nzcv, FPSCR
 253 00bc D2DD     		ble	.L44
 254 00be 074B     		ldr	r3, .L52+20
 255 00c0 83ED007A 		vstr.32	s14, [r3]
 256 00c4 CEE7     		b	.L44
 257              	.L53:
 258 00c6 00BF     		.align	3
 259              	.L52:
 260 00c8 EC51B81E 		.word	515396076
 261 00cc 85EB1C40 		.word	1075637125
 262 00d0 0AD7A370 		.word	1889785610
 263 00d4 3D0A1C40 		.word	1075579453
 264 00d8 00000000 		.word	T4Serror.6
 265 00dc 00000000 		.word	T4Sintegral.5
 266 00e0 00000000 		.word	def
 267 00e4 004003C6 		.word	-972865536
 268 00e8 00000000 		.word	T4SlastError.2
 269 00ec 00000000 		.word	T4Sderivative.1
 270 00f0 00000000 		.word	T4SKp
 271 00f4 00000000 		.word	T4SKi
 272 00f8 00000000 		.word	T4SKd
 273 00fc 00000000 		.word	output.0
 274 0100 00400346 		.word	1174618112
 276              		.section	.rodata.Motor_PWM_TIM8_Init.str1.4,"aMS",%progbits,1
 277              		.align	2
 278              	.LC0:
 279 0000 2D3E4D6F 		.ascii	"->Motor->TIM8_OC1_OC2_OC3_OC4 Init  done\000"
 279      746F722D 
 279      3E54494D 
 279      385F4F43 
 279      315F4F43 
 280 0029 000000   		.align	2
 281              	.LC1:
 282 002c 2D3E4D6F 		.ascii	"->Motor->TIM1_TIM8 Enable  done\000"
 282      746F722D 
 282      3E54494D 
 282      315F5449 
ARM GAS  C:\Users\ktkuru\AppData\Local\Temp\cc4p81ld.s 			page 6


 282      4D382045 
 283              		.section	.text.Motor_PWM_TIM8_Init,"ax",%progbits
 284              		.align	1
 285              		.global	Motor_PWM_TIM8_Init
 286              		.syntax unified
 287              		.thumb
 288              		.thumb_func
 290              	Motor_PWM_TIM8_Init:
 291              		@ args = 0, pretend = 0, frame = 32
 292              		@ frame_needed = 0, uses_anonymous_args = 0
 293 0000 70B5     		push	{r4, r5, r6, lr}
 294 0002 88B0     		sub	sp, sp, #32
 295 0004 0121     		movs	r1, #1
 296 0006 0220     		movs	r0, #2
 297 0008 FFF7FEFF 		bl	RCC_APB2PeriphClockCmd
 298 000c 0121     		movs	r1, #1
 299 000e 0420     		movs	r0, #4
 300 0010 FFF7FEFF 		bl	RCC_AHB1PeriphClockCmd
 301 0014 384C     		ldr	r4, .L56
 302 0016 0023     		movs	r3, #0
 303 0018 0222     		movs	r2, #2
 304 001a 4FF47071 		mov	r1, #960
 305 001e 2046     		mov	r0, r4
 306 0020 FFF7FEFF 		bl	GPIO_Config
 307 0024 0322     		movs	r2, #3
 308 0026 0621     		movs	r1, #6
 309 0028 2046     		mov	r0, r4
 310 002a FFF7FEFF 		bl	GPIO_PinAFConfig
 311 002e 0322     		movs	r2, #3
 312 0030 0721     		movs	r1, #7
 313 0032 2046     		mov	r0, r4
 314 0034 FFF7FEFF 		bl	GPIO_PinAFConfig
 315 0038 0322     		movs	r2, #3
 316 003a 0821     		movs	r1, #8
 317 003c 2046     		mov	r0, r4
 318 003e FFF7FEFF 		bl	GPIO_PinAFConfig
 319 0042 0322     		movs	r2, #3
 320 0044 0921     		movs	r1, #9
 321 0046 2046     		mov	r0, r4
 322 0048 FFF7FEFF 		bl	GPIO_PinAFConfig
 323 004c 42F2CF03 		movw	r3, #8399
 324 0050 0693     		str	r3, [sp, #24]
 325 0052 0126     		movs	r6, #1
 326 0054 ADF81460 		strh	r6, [sp, #20]	@ movhi
 327 0058 0025     		movs	r5, #0
 328 005a ADF81C50 		strh	r5, [sp, #28]	@ movhi
 329 005e ADF81650 		strh	r5, [sp, #22]	@ movhi
 330 0062 A4F58234 		sub	r4, r4, #66560
 331 0066 05A9     		add	r1, sp, #20
 332 0068 2046     		mov	r0, r4
 333 006a FFF7FEFF 		bl	TIM_TimeBaseInit
 334 006e 6023     		movs	r3, #96
 335 0070 ADF80030 		strh	r3, [sp]	@ movhi
 336 0074 ADF80260 		strh	r6, [sp, #2]	@ movhi
 337 0078 ADF80450 		strh	r5, [sp, #4]	@ movhi
 338 007c 0295     		str	r5, [sp, #8]
 339 007e ADF80C50 		strh	r5, [sp, #12]	@ movhi
ARM GAS  C:\Users\ktkuru\AppData\Local\Temp\cc4p81ld.s 			page 7


 340 0082 ADF80E50 		strh	r5, [sp, #14]	@ movhi
 341 0086 ADF81050 		strh	r5, [sp, #16]	@ movhi
 342 008a ADF81250 		strh	r5, [sp, #18]	@ movhi
 343 008e 6946     		mov	r1, sp
 344 0090 2046     		mov	r0, r4
 345 0092 FFF7FEFF 		bl	TIM_OC1Init
 346 0096 6946     		mov	r1, sp
 347 0098 2046     		mov	r0, r4
 348 009a FFF7FEFF 		bl	TIM_OC2Init
 349 009e 6946     		mov	r1, sp
 350 00a0 2046     		mov	r0, r4
 351 00a2 FFF7FEFF 		bl	TIM_OC3Init
 352 00a6 6946     		mov	r1, sp
 353 00a8 2046     		mov	r0, r4
 354 00aa FFF7FEFF 		bl	TIM_OC4Init
 355 00ae 0821     		movs	r1, #8
 356 00b0 2046     		mov	r0, r4
 357 00b2 FFF7FEFF 		bl	TIM_OC1PreloadConfig
 358 00b6 0821     		movs	r1, #8
 359 00b8 2046     		mov	r0, r4
 360 00ba FFF7FEFF 		bl	TIM_OC2PreloadConfig
 361 00be 0821     		movs	r1, #8
 362 00c0 2046     		mov	r0, r4
 363 00c2 FFF7FEFF 		bl	TIM_OC3PreloadConfig
 364 00c6 0821     		movs	r1, #8
 365 00c8 2046     		mov	r0, r4
 366 00ca FFF7FEFF 		bl	TIM_OC4PreloadConfig
 367 00ce 3146     		mov	r1, r6
 368 00d0 2046     		mov	r0, r4
 369 00d2 FFF7FEFF 		bl	TIM_ARRPreloadConfig
 370 00d6 0948     		ldr	r0, .L56+4
 371 00d8 FFF7FEFF 		bl	puts
 372 00dc 3146     		mov	r1, r6
 373 00de 2046     		mov	r0, r4
 374 00e0 FFF7FEFF 		bl	TIM_CtrlPWMOutputs
 375 00e4 3146     		mov	r1, r6
 376 00e6 2046     		mov	r0, r4
 377 00e8 FFF7FEFF 		bl	TIM_Cmd
 378 00ec 0448     		ldr	r0, .L56+8
 379 00ee FFF7FEFF 		bl	puts
 380 00f2 08B0     		add	sp, sp, #32
 381              		@ sp needed
 382 00f4 70BD     		pop	{r4, r5, r6, pc}
 383              	.L57:
 384 00f6 00BF     		.align	2
 385              	.L56:
 386 00f8 00080240 		.word	1073874944
 387 00fc 00000000 		.word	.LC0
 388 0100 2C000000 		.word	.LC1
 390              		.section	.text.Motor_Cmd,"ax",%progbits
 391              		.align	1
 392              		.global	Motor_Cmd
 393              		.syntax unified
 394              		.thumb
 395              		.thumb_func
 397              	Motor_Cmd:
 398              		@ args = 0, pretend = 0, frame = 0
ARM GAS  C:\Users\ktkuru\AppData\Local\Temp\cc4p81ld.s 			page 8


 399              		@ frame_needed = 0, uses_anonymous_args = 0
 400              		@ link register save eliminated.
 401 0000 0428     		cmp	r0, #4
 402 0002 5AD8     		bhi	.L58
 403 0004 DFE800F0 		tbb	[pc, r0]
 404              	.L61:
 405 0008 47       		.byte	(.L65-.L61)/2
 406 0009 36       		.byte	(.L64-.L61)/2
 407 000a 25       		.byte	(.L63-.L61)/2
 408 000b 03       		.byte	(.L62-.L61)/2
 409 000c 14       		.byte	(.L60-.L61)/2
 410 000d 00       		.p2align 1
 411              	.L62:
 412 000e 0129     		cmp	r1, #1
 413 0010 06D0     		beq	.L71
 414 0012 2A4B     		ldr	r3, .L75
 415 0014 0022     		movs	r2, #0
 416 0016 C3F89822 		str	r2, [r3, #664]
 417 001a C3F89C22 		str	r2, [r3, #668]
 418 001e 7047     		bx	lr
 419              	.L71:
 420 0020 264B     		ldr	r3, .L75
 421 0022 0022     		movs	r2, #0
 422 0024 C3F89822 		str	r2, [r3, #664]
 423 0028 0122     		movs	r2, #1
 424 002a C3F89C22 		str	r2, [r3, #668]
 425 002e 7047     		bx	lr
 426              	.L60:
 427 0030 0129     		cmp	r1, #1
 428 0032 06D0     		beq	.L72
 429 0034 214B     		ldr	r3, .L75
 430 0036 0022     		movs	r2, #0
 431 0038 C3F89022 		str	r2, [r3, #656]
 432 003c C3F89422 		str	r2, [r3, #660]
 433 0040 7047     		bx	lr
 434              	.L72:
 435 0042 1E4B     		ldr	r3, .L75
 436 0044 0122     		movs	r2, #1
 437 0046 C3F89022 		str	r2, [r3, #656]
 438 004a 0022     		movs	r2, #0
 439 004c C3F89422 		str	r2, [r3, #660]
 440 0050 7047     		bx	lr
 441              	.L63:
 442 0052 0129     		cmp	r1, #1
 443 0054 06D0     		beq	.L73
 444 0056 194B     		ldr	r3, .L75
 445 0058 0022     		movs	r2, #0
 446 005a C3F88822 		str	r2, [r3, #648]
 447 005e C3F88C22 		str	r2, [r3, #652]
 448 0062 7047     		bx	lr
 449              	.L73:
 450 0064 154B     		ldr	r3, .L75
 451 0066 0022     		movs	r2, #0
 452 0068 C3F88822 		str	r2, [r3, #648]
 453 006c 0122     		movs	r2, #1
 454 006e C3F88C22 		str	r2, [r3, #652]
 455 0072 7047     		bx	lr
ARM GAS  C:\Users\ktkuru\AppData\Local\Temp\cc4p81ld.s 			page 9


 456              	.L64:
 457 0074 0129     		cmp	r1, #1
 458 0076 06D0     		beq	.L74
 459 0078 104B     		ldr	r3, .L75
 460 007a 0022     		movs	r2, #0
 461 007c C3F88022 		str	r2, [r3, #640]
 462 0080 C3F88422 		str	r2, [r3, #644]
 463 0084 7047     		bx	lr
 464              	.L74:
 465 0086 0D4B     		ldr	r3, .L75
 466 0088 0022     		movs	r2, #0
 467 008a C3F88022 		str	r2, [r3, #640]
 468 008e 0122     		movs	r2, #1
 469 0090 C3F88422 		str	r2, [r3, #644]
 470 0094 7047     		bx	lr
 471              	.L65:
 472 0096 094B     		ldr	r3, .L75
 473 0098 0022     		movs	r2, #0
 474 009a C3F88022 		str	r2, [r3, #640]
 475 009e C3F88422 		str	r2, [r3, #644]
 476 00a2 C3F88822 		str	r2, [r3, #648]
 477 00a6 C3F88C22 		str	r2, [r3, #652]
 478 00aa C3F89022 		str	r2, [r3, #656]
 479 00ae C3F89422 		str	r2, [r3, #660]
 480 00b2 C3F89822 		str	r2, [r3, #664]
 481 00b6 C3F89C22 		str	r2, [r3, #668]
 482              	.L58:
 483 00ba 7047     		bx	lr
 484              	.L76:
 485              		.align	2
 486              	.L75:
 487 00bc 00804242 		.word	1111654400
 489              		.section	.text.StopAllMotor,"ax",%progbits
 490              		.align	1
 491              		.global	StopAllMotor
 492              		.syntax unified
 493              		.thumb
 494              		.thumb_func
 496              	StopAllMotor:
 497              		@ args = 0, pretend = 0, frame = 0
 498              		@ frame_needed = 0, uses_anonymous_args = 0
 499 0000 08B5     		push	{r3, lr}
 500 0002 064B     		ldr	r3, .L81
 501 0004 1B78     		ldrb	r3, [r3]	@ zero_extendqisi2
 502 0006 23B1     		cbz	r3, .L78
 503 0008 0021     		movs	r1, #0
 504 000a 0846     		mov	r0, r1
 505 000c FFF7FEFF 		bl	Motor_Cmd
 506              	.L79:
 507 0010 FEE7     		b	.L79
 508              	.L78:
 509 0012 0121     		movs	r1, #1
 510 0014 0020     		movs	r0, #0
 511 0016 FFF7FEFF 		bl	Motor_Cmd
 512 001a 08BD     		pop	{r3, pc}
 513              	.L82:
 514              		.align	2
ARM GAS  C:\Users\ktkuru\AppData\Local\Temp\cc4p81ld.s 			page 10


 515              	.L81:
 516 001c 00000000 		.word	Stop_flag
 518              		.section	.text.MotorState,"ax",%progbits
 519              		.align	1
 520              		.global	MotorState
 521              		.syntax unified
 522              		.thumb
 523              		.thumb_func
 525              	MotorState:
 526              		@ args = 0, pretend = 0, frame = 0
 527              		@ frame_needed = 0, uses_anonymous_args = 0
 528 0000 08B5     		push	{r3, lr}
 529 0002 F5EEC00A 		vcmpe.f32	s1, #0
 530 0006 F1EE10FA 		vmrs	APSR_nzcv, FPSCR
 531 000a 09DD     		ble	.L84
 532 000c B5EEC00A 		vcmpe.f32	s0, #0
 533 0010 F1EE10FA 		vmrs	APSR_nzcv, FPSCR
 534 0014 1BDC     		bgt	.L104
 535 0016 B5EEC00A 		vcmpe.f32	s0, #0
 536 001a F1EE10FA 		vmrs	APSR_nzcv, FPSCR
 537 001e 2AD4     		bmi	.L105
 538              	.L84:
 539 0020 F5EEC00A 		vcmpe.f32	s1, #0
 540 0024 F1EE10FA 		vmrs	APSR_nzcv, FPSCR
 541 0028 09D5     		bpl	.L90
 542 002a B5EEC00A 		vcmpe.f32	s0, #0
 543 002e F1EE10FA 		vmrs	APSR_nzcv, FPSCR
 544 0032 34DC     		bgt	.L106
 545 0034 B5EEC00A 		vcmpe.f32	s0, #0
 546 0038 F1EE10FA 		vmrs	APSR_nzcv, FPSCR
 547 003c 43D4     		bmi	.L107
 548              	.L90:
 549 003e 0021     		movs	r1, #0
 550 0040 0846     		mov	r0, r1
 551 0042 FFF7FEFF 		bl	Motor_Cmd
 552 0046 2A4B     		ldr	r3, .L108
 553 0048 0022     		movs	r2, #0
 554 004a 1A70     		strb	r2, [r3]
 555              	.L83:
 556 004c 08BD     		pop	{r3, pc}
 557              	.L104:
 558 004e 0021     		movs	r1, #0
 559 0050 0320     		movs	r0, #3
 560 0052 FFF7FEFF 		bl	Motor_Cmd
 561 0056 0121     		movs	r1, #1
 562 0058 0420     		movs	r0, #4
 563 005a FFF7FEFF 		bl	Motor_Cmd
 564 005e 0121     		movs	r1, #1
 565 0060 0220     		movs	r0, #2
 566 0062 FFF7FEFF 		bl	Motor_Cmd
 567 0066 0021     		movs	r1, #0
 568 0068 0120     		movs	r0, #1
 569 006a FFF7FEFF 		bl	Motor_Cmd
 570 006e 204B     		ldr	r3, .L108
 571 0070 0122     		movs	r2, #1
 572 0072 1A70     		strb	r2, [r3]
 573 0074 EAE7     		b	.L83
ARM GAS  C:\Users\ktkuru\AppData\Local\Temp\cc4p81ld.s 			page 11


 574              	.L105:
 575 0076 0121     		movs	r1, #1
 576 0078 0320     		movs	r0, #3
 577 007a FFF7FEFF 		bl	Motor_Cmd
 578 007e 0021     		movs	r1, #0
 579 0080 0420     		movs	r0, #4
 580 0082 FFF7FEFF 		bl	Motor_Cmd
 581 0086 0121     		movs	r1, #1
 582 0088 0220     		movs	r0, #2
 583 008a FFF7FEFF 		bl	Motor_Cmd
 584 008e 0021     		movs	r1, #0
 585 0090 0120     		movs	r0, #1
 586 0092 FFF7FEFF 		bl	Motor_Cmd
 587 0096 164B     		ldr	r3, .L108
 588 0098 0222     		movs	r2, #2
 589 009a 1A70     		strb	r2, [r3]
 590 009c D6E7     		b	.L83
 591              	.L106:
 592 009e 0021     		movs	r1, #0
 593 00a0 0320     		movs	r0, #3
 594 00a2 FFF7FEFF 		bl	Motor_Cmd
 595 00a6 0121     		movs	r1, #1
 596 00a8 0420     		movs	r0, #4
 597 00aa FFF7FEFF 		bl	Motor_Cmd
 598 00ae 0021     		movs	r1, #0
 599 00b0 0220     		movs	r0, #2
 600 00b2 FFF7FEFF 		bl	Motor_Cmd
 601 00b6 0121     		movs	r1, #1
 602 00b8 0846     		mov	r0, r1
 603 00ba FFF7FEFF 		bl	Motor_Cmd
 604 00be 0C4B     		ldr	r3, .L108
 605 00c0 0322     		movs	r2, #3
 606 00c2 1A70     		strb	r2, [r3]
 607 00c4 C2E7     		b	.L83
 608              	.L107:
 609 00c6 0121     		movs	r1, #1
 610 00c8 0320     		movs	r0, #3
 611 00ca FFF7FEFF 		bl	Motor_Cmd
 612 00ce 0021     		movs	r1, #0
 613 00d0 0420     		movs	r0, #4
 614 00d2 FFF7FEFF 		bl	Motor_Cmd
 615 00d6 0021     		movs	r1, #0
 616 00d8 0220     		movs	r0, #2
 617 00da FFF7FEFF 		bl	Motor_Cmd
 618 00de 0121     		movs	r1, #1
 619 00e0 0846     		mov	r0, r1
 620 00e2 FFF7FEFF 		bl	Motor_Cmd
 621 00e6 024B     		ldr	r3, .L108
 622 00e8 0422     		movs	r2, #4
 623 00ea 1A70     		strb	r2, [r3]
 624 00ec AEE7     		b	.L83
 625              	.L109:
 626 00ee 00BF     		.align	2
 627              	.L108:
 628 00f0 00000000 		.word	MotorLocation
 630              		.section	.text.PWM_Allocation,"ax",%progbits
 631              		.align	1
ARM GAS  C:\Users\ktkuru\AppData\Local\Temp\cc4p81ld.s 			page 12


 632              		.global	PWM_Allocation
 633              		.syntax unified
 634              		.thumb
 635              		.thumb_func
 637              	PWM_Allocation:
 638              		@ args = 0, pretend = 0, frame = 0
 639              		@ frame_needed = 0, uses_anonymous_args = 0
 640 0000 08B5     		push	{r3, lr}
 641 0002 2DED048B 		vpush.64	{d8, d9}
 642 0006 B0EE608A 		vmov.f32	s16, s1
 643 000a DFED817A 		vldr.32	s15, .L140+8
 644 000e B4EEE70A 		vcmpe.f32	s0, s15
 645 0012 F1EE10FA 		vmrs	APSR_nzcv, FPSCR
 646 0016 09DC     		bgt	.L127
 647 0018 F0EE408A 		vmov.f32	s17, s0
 648 001c B5EEC00A 		vcmpe.f32	s0, #0
 649 0020 F1EE10FA 		vmrs	APSR_nzcv, FPSCR
 650 0024 04D5     		bpl	.L111
 651 0026 F8EE008A 		vmov.f32	s17, #-2.0e+0
 652 002a 01E0     		b	.L111
 653              	.L127:
 654 002c DFED788A 		vldr.32	s17, .L140+8
 655              	.L111:
 656 0030 DFED777A 		vldr.32	s15, .L140+8
 657 0034 B4EEE78A 		vcmpe.f32	s16, s15
 658 0038 F1EE10FA 		vmrs	APSR_nzcv, FPSCR
 659 003c 07DC     		bgt	.L128
 660 003e B5EEC08A 		vcmpe.f32	s16, #0
 661 0042 F1EE10FA 		vmrs	APSR_nzcv, FPSCR
 662 0046 04D5     		bpl	.L113
 663 0048 B1EE488A 		vneg.f32	s16, s16
 664 004c 01E0     		b	.L113
 665              	.L128:
 666 004e 9FED708A 		vldr.32	s16, .L140+8
 667              	.L113:
 668 0052 704B     		ldr	r3, .L140+12
 669 0054 D3ED007A 		vldr.32	s15, [r3]
 670 0058 F5EEC07A 		vcmpe.f32	s15, #0
 671 005c F1EE10FA 		vmrs	APSR_nzcv, FPSCR
 672 0060 2FDB     		blt	.L115
 673 0062 9FED6D7A 		vldr.32	s14, .L140+16
 674 0066 F4EEC77A 		vcmpe.f32	s15, s14
 675 006a F1EE10FA 		vmrs	APSR_nzcv, FPSCR
 676 006e 28D8     		bhi	.L115
 677 0070 9FED6A7A 		vldr.32	s14, .L140+20
 678 0074 C7EE877A 		vdiv.f32	s15, s15, s14
 679 0078 17EE900A 		vmov	r0, s15
 680 007c FFF7FEFF 		bl	__aeabi_f2d
 681 0080 61A3     		adr	r3, .L140
 682 0082 D3E90023 		ldrd	r2, [r3]
 683 0086 FFF7FEFF 		bl	__aeabi_dmul
 684 008a FFF7FEFF 		bl	__aeabi_d2f
 685 008e 09EE100A 		vmov	s18, r0
 686 0092 B0EE490A 		vmov.f32	s0, s18
 687 0096 FFF7FEFF 		bl	cosf
 688 009a 60EE288A 		vmul.f32	s17, s0, s17
 689 009e B0EE490A 		vmov.f32	s0, s18
ARM GAS  C:\Users\ktkuru\AppData\Local\Temp\cc4p81ld.s 			page 13


 690 00a2 FFF7FEFF 		bl	sinf
 691 00a6 60EE087A 		vmul.f32	s15, s0, s16
 692 00aa FCEEE88A 		vcvt.u32.f32	s17, s17
 693 00ae 5C4B     		ldr	r3, .L140+24
 694 00b0 C3ED0E8A 		vstr.32	s17, [r3, #56]	@ int
 695 00b4 FCEEE77A 		vcvt.u32.f32	s15, s15
 696 00b8 C3ED0F7A 		vstr.32	s15, [r3, #60]	@ int
 697              	.L110:
 698 00bc BDEC048B 		vldm	sp!, {d8-d9}
 699 00c0 08BD     		pop	{r3, pc}
 700              	.L115:
 701 00c2 9FED557A 		vldr.32	s14, .L140+16
 702 00c6 F4EEC77A 		vcmpe.f32	s15, s14
 703 00ca F1EE10FA 		vmrs	APSR_nzcv, FPSCR
 704 00ce 2DDD     		ble	.L119
 705 00d0 9FED527A 		vldr.32	s14, .L140+20
 706 00d4 F4EEC77A 		vcmpe.f32	s15, s14
 707 00d8 F1EE10FA 		vmrs	APSR_nzcv, FPSCR
 708 00dc 26D8     		bhi	.L119
 709 00de 77EE677A 		vsub.f32	s15, s14, s15
 710 00e2 C7EE877A 		vdiv.f32	s15, s15, s14
 711 00e6 17EE900A 		vmov	r0, s15
 712 00ea FFF7FEFF 		bl	__aeabi_f2d
 713 00ee 46A3     		adr	r3, .L140
 714 00f0 D3E90023 		ldrd	r2, [r3]
 715 00f4 FFF7FEFF 		bl	__aeabi_dmul
 716 00f8 FFF7FEFF 		bl	__aeabi_d2f
 717 00fc 09EE100A 		vmov	s18, r0
 718 0100 B0EE490A 		vmov.f32	s0, s18
 719 0104 FFF7FEFF 		bl	cosf
 720 0108 60EE288A 		vmul.f32	s17, s0, s17
 721 010c B0EE490A 		vmov.f32	s0, s18
 722 0110 FFF7FEFF 		bl	sinf
 723 0114 60EE087A 		vmul.f32	s15, s0, s16
 724 0118 FCEEE88A 		vcvt.u32.f32	s17, s17
 725 011c 404B     		ldr	r3, .L140+24
 726 011e C3ED0E8A 		vstr.32	s17, [r3, #56]	@ int
 727 0122 FCEEE77A 		vcvt.u32.f32	s15, s15
 728 0126 C3ED107A 		vstr.32	s15, [r3, #64]	@ int
 729 012a C7E7     		b	.L110
 730              	.L119:
 731 012c 9FED3B7A 		vldr.32	s14, .L140+20
 732 0130 F4EEC77A 		vcmpe.f32	s15, s14
 733 0134 F1EE10FA 		vmrs	APSR_nzcv, FPSCR
 734 0138 2FDD     		ble	.L122
 735 013a 9FED3A7A 		vldr.32	s14, .L140+28
 736 013e F4EEC77A 		vcmpe.f32	s15, s14
 737 0142 F1EE10FA 		vmrs	APSR_nzcv, FPSCR
 738 0146 28D8     		bhi	.L122
 739 0148 9FED347A 		vldr.32	s14, .L140+20
 740 014c 77EEC77A 		vsub.f32	s15, s15, s14
 741 0150 C7EE877A 		vdiv.f32	s15, s15, s14
 742 0154 17EE900A 		vmov	r0, s15
 743 0158 FFF7FEFF 		bl	__aeabi_f2d
 744 015c 2AA3     		adr	r3, .L140
 745 015e D3E90023 		ldrd	r2, [r3]
 746 0162 FFF7FEFF 		bl	__aeabi_dmul
ARM GAS  C:\Users\ktkuru\AppData\Local\Temp\cc4p81ld.s 			page 14


 747 0166 FFF7FEFF 		bl	__aeabi_d2f
 748 016a 09EE100A 		vmov	s18, r0
 749 016e B0EE490A 		vmov.f32	s0, s18
 750 0172 FFF7FEFF 		bl	cosf
 751 0176 60EE288A 		vmul.f32	s17, s0, s17
 752 017a B0EE490A 		vmov.f32	s0, s18
 753 017e FFF7FEFF 		bl	sinf
 754 0182 60EE087A 		vmul.f32	s15, s0, s16
 755 0186 FCEEE88A 		vcvt.u32.f32	s17, s17
 756 018a 254B     		ldr	r3, .L140+24
 757 018c C3ED0D8A 		vstr.32	s17, [r3, #52]	@ int
 758 0190 FCEEE77A 		vcvt.u32.f32	s15, s15
 759 0194 C3ED107A 		vstr.32	s15, [r3, #64]	@ int
 760 0198 90E7     		b	.L110
 761              	.L122:
 762 019a 9FED227A 		vldr.32	s14, .L140+28
 763 019e F4EEC77A 		vcmpe.f32	s15, s14
 764 01a2 F1EE10FA 		vmrs	APSR_nzcv, FPSCR
 765 01a6 89DD     		ble	.L110
 766 01a8 9FED1F7A 		vldr.32	s14, .L140+32
 767 01ac F4EEC77A 		vcmpe.f32	s15, s14
 768 01b0 F1EE10FA 		vmrs	APSR_nzcv, FPSCR
 769 01b4 82D8     		bhi	.L110
 770 01b6 77EE677A 		vsub.f32	s15, s14, s15
 771 01ba 9FED187A 		vldr.32	s14, .L140+20
 772 01be C7EE877A 		vdiv.f32	s15, s15, s14
 773 01c2 17EE900A 		vmov	r0, s15
 774 01c6 FFF7FEFF 		bl	__aeabi_f2d
 775 01ca 0FA3     		adr	r3, .L140
 776 01cc D3E90023 		ldrd	r2, [r3]
 777 01d0 FFF7FEFF 		bl	__aeabi_dmul
 778 01d4 FFF7FEFF 		bl	__aeabi_d2f
 779 01d8 09EE100A 		vmov	s18, r0
 780 01dc B0EE490A 		vmov.f32	s0, s18
 781 01e0 FFF7FEFF 		bl	cosf
 782 01e4 60EE288A 		vmul.f32	s17, s0, s17
 783 01e8 B0EE490A 		vmov.f32	s0, s18
 784 01ec FFF7FEFF 		bl	sinf
 785 01f0 60EE087A 		vmul.f32	s15, s0, s16
 786 01f4 FCEEE88A 		vcvt.u32.f32	s17, s17
 787 01f8 094B     		ldr	r3, .L140+24
 788 01fa C3ED0D8A 		vstr.32	s17, [r3, #52]	@ int
 789 01fe FCEEE77A 		vcvt.u32.f32	s15, s15
 790 0202 C3ED0F7A 		vstr.32	s15, [r3, #60]	@ int
 791 0206 59E7     		b	.L110
 792              	.L141:
 793              		.align	3
 794              	.L140:
 795 0208 4AD8124D 		.word	1293080650
 796 020c FB210940 		.word	1074340347
 797 0210 00400346 		.word	1174618112
 798 0214 00000000 		.word	polar
 799 0218 0000B442 		.word	1119092736
 800 021c 00003443 		.word	1127481344
 801 0220 00040140 		.word	1073808384
 802 0224 00008743 		.word	1132920832
 803 0228 0000B443 		.word	1135869952
ARM GAS  C:\Users\ktkuru\AppData\Local\Temp\cc4p81ld.s 			page 15


 805              		.section	.bss.output.0,"aw",%nobits
 806              		.align	2
 809              	output.0:
 810 0000 00000000 		.space	4
 811              		.section	.bss.T4Sderivative.1,"aw",%nobits
 812              		.align	2
 815              	T4Sderivative.1:
 816 0000 00000000 		.space	4
 817              		.section	.bss.T4SlastError.2,"aw",%nobits
 818              		.align	2
 821              	T4SlastError.2:
 822 0000 00000000 		.space	4
 823              		.section	.bss.T4Sintegral.5,"aw",%nobits
 824              		.align	2
 827              	T4Sintegral.5:
 828 0000 00000000 		.space	4
 829              		.section	.bss.T4Serror.6,"aw",%nobits
 830              		.align	2
 833              	T4Serror.6:
 834 0000 00000000 		.space	4
 835              		.global	MotorLocation
 836              		.section	.bss.MotorLocation,"aw",%nobits
 839              	MotorLocation:
 840 0000 00       		.space	1
 841              		.ident	"GCC: (Arm GNU Toolchain 13.3.Rel1 (Build arm-13.24)) 13.3.1 20240614"
ARM GAS  C:\Users\ktkuru\AppData\Local\Temp\cc4p81ld.s 			page 16


DEFINED SYMBOLS
                            *ABS*:00000000 control.c
C:\Users\ktkuru\AppData\Local\Temp\cc4p81ld.s:22     .text.GetPolar:00000000 $t
C:\Users\ktkuru\AppData\Local\Temp\cc4p81ld.s:28     .text.GetPolar:00000000 GetPolar
C:\Users\ktkuru\AppData\Local\Temp\cc4p81ld.s:168    .text.GetPolar:000001a8 $d
C:\Users\ktkuru\AppData\Local\Temp\cc4p81ld.s:181    .text.PidControl_Stop:00000000 $t
C:\Users\ktkuru\AppData\Local\Temp\cc4p81ld.s:187    .text.PidControl_Stop:00000000 PidControl_Stop
C:\Users\ktkuru\AppData\Local\Temp\cc4p81ld.s:260    .text.PidControl_Stop:000000c8 $d
C:\Users\ktkuru\AppData\Local\Temp\cc4p81ld.s:833    .bss.T4Serror.6:00000000 T4Serror.6
C:\Users\ktkuru\AppData\Local\Temp\cc4p81ld.s:827    .bss.T4Sintegral.5:00000000 T4Sintegral.5
C:\Users\ktkuru\AppData\Local\Temp\cc4p81ld.s:821    .bss.T4SlastError.2:00000000 T4SlastError.2
C:\Users\ktkuru\AppData\Local\Temp\cc4p81ld.s:815    .bss.T4Sderivative.1:00000000 T4Sderivative.1
C:\Users\ktkuru\AppData\Local\Temp\cc4p81ld.s:809    .bss.output.0:00000000 output.0
C:\Users\ktkuru\AppData\Local\Temp\cc4p81ld.s:277    .rodata.Motor_PWM_TIM8_Init.str1.4:00000000 $d
C:\Users\ktkuru\AppData\Local\Temp\cc4p81ld.s:284    .text.Motor_PWM_TIM8_Init:00000000 $t
C:\Users\ktkuru\AppData\Local\Temp\cc4p81ld.s:290    .text.Motor_PWM_TIM8_Init:00000000 Motor_PWM_TIM8_Init
C:\Users\ktkuru\AppData\Local\Temp\cc4p81ld.s:386    .text.Motor_PWM_TIM8_Init:000000f8 $d
C:\Users\ktkuru\AppData\Local\Temp\cc4p81ld.s:391    .text.Motor_Cmd:00000000 $t
C:\Users\ktkuru\AppData\Local\Temp\cc4p81ld.s:397    .text.Motor_Cmd:00000000 Motor_Cmd
C:\Users\ktkuru\AppData\Local\Temp\cc4p81ld.s:405    .text.Motor_Cmd:00000008 $d
C:\Users\ktkuru\AppData\Local\Temp\cc4p81ld.s:487    .text.Motor_Cmd:000000bc $d
C:\Users\ktkuru\AppData\Local\Temp\cc4p81ld.s:490    .text.StopAllMotor:00000000 $t
C:\Users\ktkuru\AppData\Local\Temp\cc4p81ld.s:496    .text.StopAllMotor:00000000 StopAllMotor
C:\Users\ktkuru\AppData\Local\Temp\cc4p81ld.s:516    .text.StopAllMotor:0000001c $d
C:\Users\ktkuru\AppData\Local\Temp\cc4p81ld.s:519    .text.MotorState:00000000 $t
C:\Users\ktkuru\AppData\Local\Temp\cc4p81ld.s:525    .text.MotorState:00000000 MotorState
C:\Users\ktkuru\AppData\Local\Temp\cc4p81ld.s:628    .text.MotorState:000000f0 $d
C:\Users\ktkuru\AppData\Local\Temp\cc4p81ld.s:839    .bss.MotorLocation:00000000 MotorLocation
C:\Users\ktkuru\AppData\Local\Temp\cc4p81ld.s:631    .text.PWM_Allocation:00000000 $t
C:\Users\ktkuru\AppData\Local\Temp\cc4p81ld.s:637    .text.PWM_Allocation:00000000 PWM_Allocation
C:\Users\ktkuru\AppData\Local\Temp\cc4p81ld.s:795    .text.PWM_Allocation:00000208 $d
C:\Users\ktkuru\AppData\Local\Temp\cc4p81ld.s:806    .bss.output.0:00000000 $d
C:\Users\ktkuru\AppData\Local\Temp\cc4p81ld.s:812    .bss.T4Sderivative.1:00000000 $d
C:\Users\ktkuru\AppData\Local\Temp\cc4p81ld.s:818    .bss.T4SlastError.2:00000000 $d
C:\Users\ktkuru\AppData\Local\Temp\cc4p81ld.s:824    .bss.T4Sintegral.5:00000000 $d
C:\Users\ktkuru\AppData\Local\Temp\cc4p81ld.s:830    .bss.T4Serror.6:00000000 $d
C:\Users\ktkuru\AppData\Local\Temp\cc4p81ld.s:840    .bss.MotorLocation:00000000 $d
C:\Users\ktkuru\AppData\Local\Temp\cc4p81ld.s:410    .text.Motor_Cmd:0000000d $d
C:\Users\ktkuru\AppData\Local\Temp\cc4p81ld.s:410    .text.Motor_Cmd:0000000e $t

UNDEFINED SYMBOLS
__aeabi_f2d
__aeabi_dmul
__aeabi_d2f
__aeabi_ddiv
tanf
sqrtf
atanf
def
dis
polar
__aeabi_dcmplt
__aeabi_dcmpgt
T4SKp
T4SKi
T4SKd
RCC_APB2PeriphClockCmd
ARM GAS  C:\Users\ktkuru\AppData\Local\Temp\cc4p81ld.s 			page 17


RCC_AHB1PeriphClockCmd
GPIO_Config
GPIO_PinAFConfig
TIM_TimeBaseInit
TIM_OC1Init
TIM_OC2Init
TIM_OC3Init
TIM_OC4Init
TIM_OC1PreloadConfig
TIM_OC2PreloadConfig
TIM_OC3PreloadConfig
TIM_OC4PreloadConfig
TIM_ARRPreloadConfig
puts
TIM_CtrlPWMOutputs
TIM_Cmd
Stop_flag
cosf
sinf
