ARM GAS  C:\Users\ktkuru\AppData\Local\Temp\ccu06NtY.s 			page 1


   1              		.cpu cortex-m4
   2              		.arch armv7e-m
   3              		.fpu fpv4-sp-d16
   4              		.eabi_attribute 27, 1
   5              		.eabi_attribute 28, 1
   6              		.eabi_attribute 20, 1
   7              		.eabi_attribute 21, 1
   8              		.eabi_attribute 23, 3
   9              		.eabi_attribute 24, 1
  10              		.eabi_attribute 25, 1
  11              		.eabi_attribute 26, 1
  12              		.eabi_attribute 30, 1
  13              		.eabi_attribute 34, 1
  14              		.eabi_attribute 18, 4
  15              		.file	"control.c"
  16              		.text
  17              		.global	__aeabi_f2d
  18              		.global	__aeabi_dmul
  19              		.global	__aeabi_d2f
  20              		.global	__aeabi_ddiv
  21              		.section	.text.GetPolar,"ax",%progbits
  22              		.align	1
  23              		.global	GetPolar
  24              		.syntax unified
  25              		.thumb
  26              		.thumb_func
  28              	GetPolar:
  29              		@ args = 0, pretend = 0, frame = 0
  30              		@ frame_needed = 0, uses_anonymous_args = 0
  31 0000 08B5     		push	{r3, lr}
  32 0002 2DED068B 		vpush.64	{d8, d9, d10}
  33 0006 F0EE408A 		vmov.f32	s17, s0
  34 000a B0EE608A 		vmov.f32	s16, s1
  35 000e B5EEC00A 		vcmpe.f32	s0, #0
  36 0012 F1EE10FA 		vmrs	APSR_nzcv, FPSCR
  37 0016 00F1A680 		bmi	.L34
  38 001a 714B     		ldr	r3, .L39+8
  39 001c 83ED000A 		vstr.32	s0, [r3]
  40              	.L4:
  41 0020 B5EEC08A 		vcmpe.f32	s16, #0
  42 0024 F1EE10FA 		vmrs	APSR_nzcv, FPSCR
  43 0028 00F1A380 		bmi	.L35
  44 002c 6D4B     		ldr	r3, .L39+12
  45 002e 83ED008A 		vstr.32	s16, [r3]
  46              	.L7:
  47 0032 6B4B     		ldr	r3, .L39+8
  48 0034 D3ED007A 		vldr.32	s15, [r3]
  49 0038 9FED6BAA 		vldr.32	s20, .L39+16
  50 003c C7EE8A7A 		vdiv.f32	s15, s15, s20
  51 0040 17EE900A 		vmov	r0, s15
  52 0044 FFF7FEFF 		bl	__aeabi_f2d
  53 0048 63A3     		adr	r3, .L39
  54 004a D3E90023 		ldrd	r2, [r3]
  55 004e FFF7FEFF 		bl	__aeabi_dmul
  56 0052 FFF7FEFF 		bl	__aeabi_d2f
  57 0056 09EE100A 		vmov	s18, r0
  58 005a 624B     		ldr	r3, .L39+12
ARM GAS  C:\Users\ktkuru\AppData\Local\Temp\ccu06NtY.s 			page 2


  59 005c D3ED007A 		vldr.32	s15, [r3]
  60 0060 C7EE8A7A 		vdiv.f32	s15, s15, s20
  61 0064 17EE900A 		vmov	r0, s15
  62 0068 FFF7FEFF 		bl	__aeabi_f2d
  63 006c 5AA3     		adr	r3, .L39
  64 006e D3E90023 		ldrd	r2, [r3]
  65 0072 FFF7FEFF 		bl	__aeabi_dmul
  66 0076 FFF7FEFF 		bl	__aeabi_d2f
  67 007a 09EE900A 		vmov	s19, r0
  68 007e B0EE490A 		vmov.f32	s0, s18
  69 0082 FFF7FEFF 		bl	tanf
  70 0086 B0EE409A 		vmov.f32	s18, s0
  71 008a 60EE00AA 		vmul.f32	s21, s0, s0
  72 008e B0EE690A 		vmov.f32	s0, s19
  73 0092 FFF7FEFF 		bl	tanf
  74 0096 F0EE409A 		vmov.f32	s19, s0
  75 009a 20EE000A 		vmul.f32	s0, s0, s0
  76 009e 3AEE800A 		vadd.f32	s0, s21, s0
  77 00a2 FFF7FEFF 		bl	sqrtf
  78 00a6 FFF7FEFF 		bl	atanf
  79 00aa 10EE100A 		vmov	r0, s0
  80 00ae FFF7FEFF 		bl	__aeabi_f2d
  81 00b2 0022     		movs	r2, #0
  82 00b4 4D4B     		ldr	r3, .L39+20
  83 00b6 FFF7FEFF 		bl	__aeabi_dmul
  84 00ba 47A3     		adr	r3, .L39
  85 00bc D3E90023 		ldrd	r2, [r3]
  86 00c0 FFF7FEFF 		bl	__aeabi_ddiv
  87 00c4 FFF7FEFF 		bl	__aeabi_d2f
  88 00c8 07EE900A 		vmov	s15, r0
  89 00cc 484B     		ldr	r3, .L39+24
  90 00ce 1860     		str	r0, [r3]	@ float
  91 00d0 C7EE8A7A 		vdiv.f32	s15, s15, s20
  92 00d4 17EE900A 		vmov	r0, s15
  93 00d8 FFF7FEFF 		bl	__aeabi_f2d
  94 00dc 3EA3     		adr	r3, .L39
  95 00de D3E90023 		ldrd	r2, [r3]
  96 00e2 FFF7FEFF 		bl	__aeabi_dmul
  97 00e6 FFF7FEFF 		bl	__aeabi_d2f
  98 00ea 00EE100A 		vmov	s0, r0
  99 00ee FFF7FEFF 		bl	tanf
 100 00f2 DFED407A 		vldr.32	s15, .L39+28
 101 00f6 20EE27AA 		vmul.f32	s20, s0, s15
 102 00fa 3F4B     		ldr	r3, .L39+32
 103 00fc 83ED00AA 		vstr.32	s20, [r3]
 104 0100 89EE890A 		vdiv.f32	s0, s19, s18
 105 0104 FFF7FEFF 		bl	atanf
 106 0108 10EE100A 		vmov	r0, s0
 107 010c FFF7FEFF 		bl	__aeabi_f2d
 108 0110 0022     		movs	r2, #0
 109 0112 364B     		ldr	r3, .L39+20
 110 0114 FFF7FEFF 		bl	__aeabi_dmul
 111 0118 2FA3     		adr	r3, .L39
 112 011a D3E90023 		ldrd	r2, [r3]
 113 011e FFF7FEFF 		bl	__aeabi_ddiv
 114 0122 FFF7FEFF 		bl	__aeabi_d2f
 115 0126 07EE900A 		vmov	s15, r0
ARM GAS  C:\Users\ktkuru\AppData\Local\Temp\ccu06NtY.s 			page 3


 116 012a 344B     		ldr	r3, .L39+36
 117 012c 1860     		str	r0, [r3]	@ float
 118 012e B5EEC08A 		vcmpe.f32	s16, #0
 119 0132 F1EE10FA 		vmrs	APSR_nzcv, FPSCR
 120 0136 22D4     		bmi	.L36
 121              	.L8:
 122 0138 B5EEC08A 		vcmpe.f32	s16, #0
 123 013c F1EE10FA 		vmrs	APSR_nzcv, FPSCR
 124 0140 24DD     		ble	.L12
 125 0142 F5EEC08A 		vcmpe.f32	s17, #0
 126 0146 F1EE10FA 		vmrs	APSR_nzcv, FPSCR
 127 014a 36D4     		bmi	.L37
 128 014c F5EEC08A 		vcmpe.f32	s17, #0
 129 0150 F1EE10FA 		vmrs	APSR_nzcv, FPSCR
 130 0154 1ADD     		ble	.L12
 131 0156 9FED2A7A 		vldr.32	s14, .L39+40
 132 015a 77EE677A 		vsub.f32	s15, s14, s15
 133 015e 294B     		ldr	r3, .L39+44
 134 0160 C3ED007A 		vstr.32	s15, [r3]
 135 0164 12E0     		b	.L12
 136              	.L34:
 137 0166 F1EE407A 		vneg.f32	s15, s0
 138 016a 1D4B     		ldr	r3, .L39+8
 139 016c C3ED007A 		vstr.32	s15, [r3]
 140 0170 56E7     		b	.L4
 141              	.L35:
 142 0172 F1EE487A 		vneg.f32	s15, s16
 143 0176 1B4B     		ldr	r3, .L39+12
 144 0178 C3ED007A 		vstr.32	s15, [r3]
 145 017c 59E7     		b	.L7
 146              	.L36:
 147 017e F5EEC08A 		vcmpe.f32	s17, #0
 148 0182 F1EE10FA 		vmrs	APSR_nzcv, FPSCR
 149 0186 0BDD     		ble	.L31
 150 0188 1E4B     		ldr	r3, .L39+44
 151 018a 1860     		str	r0, [r3]	@ float
 152              	.L12:
 153 018c F7EE007A 		vmov.f32	s15, #1.0e+0
 154 0190 B4EEE7AA 		vcmpe.f32	s20, s15
 155 0194 F1EE10FA 		vmrs	APSR_nzcv, FPSCR
 156 0198 17D4     		bmi	.L38
 157              	.L1:
 158 019a BDEC068B 		vldm	sp!, {d8-d10}
 159 019e 08BD     		pop	{r3, pc}
 160              	.L31:
 161 01a0 F5EEC08A 		vcmpe.f32	s17, #0
 162 01a4 F1EE10FA 		vmrs	APSR_nzcv, FPSCR
 163 01a8 C6D5     		bpl	.L8
 164 01aa 9FED0F7A 		vldr.32	s14, .L39+16
 165 01ae 77EE677A 		vsub.f32	s15, s14, s15
 166 01b2 144B     		ldr	r3, .L39+44
 167 01b4 C3ED007A 		vstr.32	s15, [r3]
 168 01b8 E8E7     		b	.L12
 169              	.L37:
 170 01ba 9FED0B7A 		vldr.32	s14, .L39+16
 171 01be 77EE877A 		vadd.f32	s15, s15, s14
 172 01c2 104B     		ldr	r3, .L39+44
ARM GAS  C:\Users\ktkuru\AppData\Local\Temp\ccu06NtY.s 			page 4


 173 01c4 C3ED007A 		vstr.32	s15, [r3]
 174 01c8 E0E7     		b	.L12
 175              	.L38:
 176 01ca 0E4B     		ldr	r3, .L39+44
 177 01cc 0022     		movs	r2, #0
 178 01ce 1A60     		str	r2, [r3]	@ float
 179 01d0 E3E7     		b	.L1
 180              	.L40:
 181 01d2 00BFAFF3 		.align	3
 181      0080
 182              	.L39:
 183 01d8 4AD8124D 		.word	1293080650
 184 01dc FB210940 		.word	1074340347
 185 01e0 00000000 		.word	absroll
 186 01e4 00000000 		.word	abspitch
 187 01e8 00003443 		.word	1127481344
 188 01ec 00806640 		.word	1080459264
 189 01f0 00000000 		.word	def
 190 01f4 0000AC42 		.word	1118568448
 191 01f8 00000000 		.word	dis
 192 01fc 00000000 		.word	Opolar
 193 0200 0000B443 		.word	1135869952
 194 0204 00000000 		.word	polar
 196              		.global	__aeabi_dcmplt
 197              		.section	.text.PidControl_Stop,"ax",%progbits
 198              		.align	1
 199              		.global	PidControl_Stop
 200              		.syntax unified
 201              		.thumb
 202              		.thumb_func
 204              	PidControl_Stop:
 205              		@ args = 0, pretend = 0, frame = 0
 206              		@ frame_needed = 0, uses_anonymous_args = 0
 207 0000 10B5     		push	{r4, lr}
 208 0002 2DED028B 		vpush.64	{d8}
 209 0006 0446     		mov	r4, r0
 210 0008 30EEC08A 		vsub.f32	s16, s1, s0
 211 000c 2A4B     		ldr	r3, .L53+8
 212 000e 83ED008A 		vstr.32	s16, [r3]
 213 0012 2A4B     		ldr	r3, .L53+12
 214 0014 D3ED007A 		vldr.32	s15, [r3]
 215 0018 77EE887A 		vadd.f32	s15, s15, s16
 216 001c C3ED007A 		vstr.32	s15, [r3]
 217 0020 274B     		ldr	r3, .L53+16
 218 0022 1868     		ldr	r0, [r3]	@ float
 219 0024 FFF7FEFF 		bl	__aeabi_f2d
 220 0028 21A3     		adr	r3, .L53
 221 002a D3E90023 		ldrd	r2, [r3]
 222 002e FFF7FEFF 		bl	__aeabi_dcmplt
 223 0032 10B1     		cbz	r0, .L42
 224 0034 214B     		ldr	r3, .L53+12
 225 0036 0022     		movs	r2, #0
 226 0038 1A60     		str	r2, [r3]	@ float
 227              	.L42:
 228 003a 204B     		ldr	r3, .L53+12
 229 003c D3ED007A 		vldr.32	s15, [r3]
 230 0040 9FED207A 		vldr.32	s14, .L53+20
ARM GAS  C:\Users\ktkuru\AppData\Local\Temp\ccu06NtY.s 			page 5


 231 0044 F4EEC77A 		vcmpe.f32	s15, s14
 232 0048 F1EE10FA 		vmrs	APSR_nzcv, FPSCR
 233 004c 24D5     		bpl	.L51
 234 004e 83ED007A 		vstr.32	s14, [r3]
 235              	.L46:
 236 0052 1D4B     		ldr	r3, .L53+24
 237 0054 D3ED007A 		vldr.32	s15, [r3]
 238 0058 78EE677A 		vsub.f32	s15, s16, s15
 239 005c 1B4A     		ldr	r2, .L53+28
 240 005e C2ED007A 		vstr.32	s15, [r2]
 241 0062 94ED000A 		vldr.32	s0, [r4]
 242 0066 28EE000A 		vmul.f32	s0, s16, s0
 243 006a 94ED017A 		vldr.32	s14, [r4, #4]
 244 006e 134A     		ldr	r2, .L53+12
 245 0070 D2ED006A 		vldr.32	s13, [r2]
 246 0074 27EE267A 		vmul.f32	s14, s14, s13
 247 0078 30EE070A 		vadd.f32	s0, s0, s14
 248 007c 94ED027A 		vldr.32	s14, [r4, #8]
 249 0080 67EE877A 		vmul.f32	s15, s15, s14
 250 0084 30EE270A 		vadd.f32	s0, s0, s15
 251 0088 114A     		ldr	r2, .L53+32
 252 008a 82ED000A 		vstr.32	s0, [r2]
 253 008e 83ED008A 		vstr.32	s16, [r3]
 254 0092 BDEC028B 		vldm	sp!, {d8}
 255 0096 10BD     		pop	{r4, pc}
 256              	.L51:
 257 0098 9FED0E7A 		vldr.32	s14, .L53+36
 258 009c F4EEC77A 		vcmpe.f32	s15, s14
 259 00a0 F1EE10FA 		vmrs	APSR_nzcv, FPSCR
 260 00a4 D5DD     		ble	.L46
 261 00a6 054B     		ldr	r3, .L53+12
 262 00a8 83ED007A 		vstr.32	s14, [r3]
 263 00ac D1E7     		b	.L46
 264              	.L54:
 265 00ae 00BF     		.align	3
 266              	.L53:
 267 00b0 9A999999 		.word	-1717986918
 268 00b4 9999E93F 		.word	1072273817
 269 00b8 00000000 		.word	T4Serror.13
 270 00bc 00000000 		.word	T4Sintegral.12
 271 00c0 00000000 		.word	def
 272 00c4 004003C6 		.word	-972865536
 273 00c8 00000000 		.word	T4SlastError.9
 274 00cc 00000000 		.word	T4Sderivative.8
 275 00d0 00000000 		.word	output.7
 276 00d4 00400346 		.word	1174618112
 278              		.section	.text.PidControl_LineMove,"ax",%progbits
 279              		.align	1
 280              		.global	PidControl_LineMove
 281              		.syntax unified
 282              		.thumb
 283              		.thumb_func
 285              	PidControl_LineMove:
 286              		@ args = 0, pretend = 0, frame = 0
 287              		@ frame_needed = 0, uses_anonymous_args = 0
 288 0000 10B5     		push	{r4, lr}
 289 0002 2DED028B 		vpush.64	{d8}
ARM GAS  C:\Users\ktkuru\AppData\Local\Temp\ccu06NtY.s 			page 6


 290 0006 0446     		mov	r4, r0
 291 0008 30EEC08A 		vsub.f32	s16, s1, s0
 292 000c 2A4B     		ldr	r3, .L67+8
 293 000e 83ED008A 		vstr.32	s16, [r3]
 294 0012 2A4B     		ldr	r3, .L67+12
 295 0014 D3ED007A 		vldr.32	s15, [r3]
 296 0018 77EE887A 		vadd.f32	s15, s15, s16
 297 001c C3ED007A 		vstr.32	s15, [r3]
 298 0020 274B     		ldr	r3, .L67+16
 299 0022 1868     		ldr	r0, [r3]	@ float
 300 0024 FFF7FEFF 		bl	__aeabi_f2d
 301 0028 21A3     		adr	r3, .L67
 302 002a D3E90023 		ldrd	r2, [r3]
 303 002e FFF7FEFF 		bl	__aeabi_dcmplt
 304 0032 10B1     		cbz	r0, .L56
 305 0034 214B     		ldr	r3, .L67+12
 306 0036 0022     		movs	r2, #0
 307 0038 1A60     		str	r2, [r3]	@ float
 308              	.L56:
 309 003a 204B     		ldr	r3, .L67+12
 310 003c D3ED007A 		vldr.32	s15, [r3]
 311 0040 9FED207A 		vldr.32	s14, .L67+20
 312 0044 F4EEC77A 		vcmpe.f32	s15, s14
 313 0048 F1EE10FA 		vmrs	APSR_nzcv, FPSCR
 314 004c 24D5     		bpl	.L65
 315 004e 83ED007A 		vstr.32	s14, [r3]
 316              	.L60:
 317 0052 1D4B     		ldr	r3, .L67+24
 318 0054 D3ED007A 		vldr.32	s15, [r3]
 319 0058 78EE677A 		vsub.f32	s15, s16, s15
 320 005c 1B4A     		ldr	r2, .L67+28
 321 005e C2ED007A 		vstr.32	s15, [r2]
 322 0062 94ED000A 		vldr.32	s0, [r4]
 323 0066 28EE000A 		vmul.f32	s0, s16, s0
 324 006a 94ED017A 		vldr.32	s14, [r4, #4]
 325 006e 134A     		ldr	r2, .L67+12
 326 0070 D2ED006A 		vldr.32	s13, [r2]
 327 0074 27EE267A 		vmul.f32	s14, s14, s13
 328 0078 30EE070A 		vadd.f32	s0, s0, s14
 329 007c 94ED027A 		vldr.32	s14, [r4, #8]
 330 0080 67EE877A 		vmul.f32	s15, s15, s14
 331 0084 30EE270A 		vadd.f32	s0, s0, s15
 332 0088 114A     		ldr	r2, .L67+32
 333 008a 82ED000A 		vstr.32	s0, [r2]
 334 008e 83ED008A 		vstr.32	s16, [r3]
 335 0092 BDEC028B 		vldm	sp!, {d8}
 336 0096 10BD     		pop	{r4, pc}
 337              	.L65:
 338 0098 9FED0E7A 		vldr.32	s14, .L67+36
 339 009c F4EEC77A 		vcmpe.f32	s15, s14
 340 00a0 F1EE10FA 		vmrs	APSR_nzcv, FPSCR
 341 00a4 D5DD     		ble	.L60
 342 00a6 054B     		ldr	r3, .L67+12
 343 00a8 83ED007A 		vstr.32	s14, [r3]
 344 00ac D1E7     		b	.L60
 345              	.L68:
 346 00ae 00BF     		.align	3
ARM GAS  C:\Users\ktkuru\AppData\Local\Temp\ccu06NtY.s 			page 7


 347              	.L67:
 348 00b0 9A999999 		.word	-1717986918
 349 00b4 9999E93F 		.word	1072273817
 350 00b8 00000000 		.word	T1Lerror.6
 351 00bc 00000000 		.word	T1Lintegral.5
 352 00c0 00000000 		.word	def
 353 00c4 004003C6 		.word	-972865536
 354 00c8 00000000 		.word	T1LlastError.2
 355 00cc 00000000 		.word	T1Lderivative.1
 356 00d0 00000000 		.word	output.0
 357 00d4 00400346 		.word	1174618112
 359              		.section	.rodata.Motor_PWM_TIM8_Init.str1.4,"aMS",%progbits,1
 360              		.align	2
 361              	.LC0:
 362 0000 2D3E4D6F 		.ascii	"->Motor->TIM8_OC1_OC2_OC3_OC4 Init  done\000"
 362      746F722D 
 362      3E54494D 
 362      385F4F43 
 362      315F4F43 
 363 0029 000000   		.align	2
 364              	.LC1:
 365 002c 2D3E4D6F 		.ascii	"->Motor->TIM1_TIM8 Enable  done\000"
 365      746F722D 
 365      3E54494D 
 365      315F5449 
 365      4D382045 
 366              		.section	.text.Motor_PWM_TIM8_Init,"ax",%progbits
 367              		.align	1
 368              		.global	Motor_PWM_TIM8_Init
 369              		.syntax unified
 370              		.thumb
 371              		.thumb_func
 373              	Motor_PWM_TIM8_Init:
 374              		@ args = 0, pretend = 0, frame = 32
 375              		@ frame_needed = 0, uses_anonymous_args = 0
 376 0000 70B5     		push	{r4, r5, r6, lr}
 377 0002 88B0     		sub	sp, sp, #32
 378 0004 0121     		movs	r1, #1
 379 0006 0220     		movs	r0, #2
 380 0008 FFF7FEFF 		bl	RCC_APB2PeriphClockCmd
 381 000c 0121     		movs	r1, #1
 382 000e 0420     		movs	r0, #4
 383 0010 FFF7FEFF 		bl	RCC_AHB1PeriphClockCmd
 384 0014 384C     		ldr	r4, .L71
 385 0016 0023     		movs	r3, #0
 386 0018 0222     		movs	r2, #2
 387 001a 4FF47071 		mov	r1, #960
 388 001e 2046     		mov	r0, r4
 389 0020 FFF7FEFF 		bl	GPIO_Config
 390 0024 0322     		movs	r2, #3
 391 0026 0621     		movs	r1, #6
 392 0028 2046     		mov	r0, r4
 393 002a FFF7FEFF 		bl	GPIO_PinAFConfig
 394 002e 0322     		movs	r2, #3
 395 0030 0721     		movs	r1, #7
 396 0032 2046     		mov	r0, r4
 397 0034 FFF7FEFF 		bl	GPIO_PinAFConfig
ARM GAS  C:\Users\ktkuru\AppData\Local\Temp\ccu06NtY.s 			page 8


 398 0038 0322     		movs	r2, #3
 399 003a 0821     		movs	r1, #8
 400 003c 2046     		mov	r0, r4
 401 003e FFF7FEFF 		bl	GPIO_PinAFConfig
 402 0042 0322     		movs	r2, #3
 403 0044 0921     		movs	r1, #9
 404 0046 2046     		mov	r0, r4
 405 0048 FFF7FEFF 		bl	GPIO_PinAFConfig
 406 004c 42F2CF03 		movw	r3, #8399
 407 0050 0693     		str	r3, [sp, #24]
 408 0052 0126     		movs	r6, #1
 409 0054 ADF81460 		strh	r6, [sp, #20]	@ movhi
 410 0058 0025     		movs	r5, #0
 411 005a ADF81C50 		strh	r5, [sp, #28]	@ movhi
 412 005e ADF81650 		strh	r5, [sp, #22]	@ movhi
 413 0062 A4F58234 		sub	r4, r4, #66560
 414 0066 05A9     		add	r1, sp, #20
 415 0068 2046     		mov	r0, r4
 416 006a FFF7FEFF 		bl	TIM_TimeBaseInit
 417 006e 6023     		movs	r3, #96
 418 0070 ADF80030 		strh	r3, [sp]	@ movhi
 419 0074 ADF80260 		strh	r6, [sp, #2]	@ movhi
 420 0078 ADF80450 		strh	r5, [sp, #4]	@ movhi
 421 007c 0295     		str	r5, [sp, #8]
 422 007e ADF80C50 		strh	r5, [sp, #12]	@ movhi
 423 0082 ADF80E50 		strh	r5, [sp, #14]	@ movhi
 424 0086 ADF81050 		strh	r5, [sp, #16]	@ movhi
 425 008a ADF81250 		strh	r5, [sp, #18]	@ movhi
 426 008e 6946     		mov	r1, sp
 427 0090 2046     		mov	r0, r4
 428 0092 FFF7FEFF 		bl	TIM_OC1Init
 429 0096 6946     		mov	r1, sp
 430 0098 2046     		mov	r0, r4
 431 009a FFF7FEFF 		bl	TIM_OC2Init
 432 009e 6946     		mov	r1, sp
 433 00a0 2046     		mov	r0, r4
 434 00a2 FFF7FEFF 		bl	TIM_OC3Init
 435 00a6 6946     		mov	r1, sp
 436 00a8 2046     		mov	r0, r4
 437 00aa FFF7FEFF 		bl	TIM_OC4Init
 438 00ae 0821     		movs	r1, #8
 439 00b0 2046     		mov	r0, r4
 440 00b2 FFF7FEFF 		bl	TIM_OC1PreloadConfig
 441 00b6 0821     		movs	r1, #8
 442 00b8 2046     		mov	r0, r4
 443 00ba FFF7FEFF 		bl	TIM_OC2PreloadConfig
 444 00be 0821     		movs	r1, #8
 445 00c0 2046     		mov	r0, r4
 446 00c2 FFF7FEFF 		bl	TIM_OC3PreloadConfig
 447 00c6 0821     		movs	r1, #8
 448 00c8 2046     		mov	r0, r4
 449 00ca FFF7FEFF 		bl	TIM_OC4PreloadConfig
 450 00ce 3146     		mov	r1, r6
 451 00d0 2046     		mov	r0, r4
 452 00d2 FFF7FEFF 		bl	TIM_ARRPreloadConfig
 453 00d6 0948     		ldr	r0, .L71+4
 454 00d8 FFF7FEFF 		bl	puts
ARM GAS  C:\Users\ktkuru\AppData\Local\Temp\ccu06NtY.s 			page 9


 455 00dc 3146     		mov	r1, r6
 456 00de 2046     		mov	r0, r4
 457 00e0 FFF7FEFF 		bl	TIM_CtrlPWMOutputs
 458 00e4 3146     		mov	r1, r6
 459 00e6 2046     		mov	r0, r4
 460 00e8 FFF7FEFF 		bl	TIM_Cmd
 461 00ec 0448     		ldr	r0, .L71+8
 462 00ee FFF7FEFF 		bl	puts
 463 00f2 08B0     		add	sp, sp, #32
 464              		@ sp needed
 465 00f4 70BD     		pop	{r4, r5, r6, pc}
 466              	.L72:
 467 00f6 00BF     		.align	2
 468              	.L71:
 469 00f8 00080240 		.word	1073874944
 470 00fc 00000000 		.word	.LC0
 471 0100 2C000000 		.word	.LC1
 473              		.section	.text.Motor_Cmd,"ax",%progbits
 474              		.align	1
 475              		.global	Motor_Cmd
 476              		.syntax unified
 477              		.thumb
 478              		.thumb_func
 480              	Motor_Cmd:
 481              		@ args = 0, pretend = 0, frame = 0
 482              		@ frame_needed = 0, uses_anonymous_args = 0
 483              		@ link register save eliminated.
 484 0000 0428     		cmp	r0, #4
 485 0002 5AD8     		bhi	.L73
 486 0004 DFE800F0 		tbb	[pc, r0]
 487              	.L76:
 488 0008 47       		.byte	(.L80-.L76)/2
 489 0009 14       		.byte	(.L79-.L76)/2
 490 000a 03       		.byte	(.L78-.L76)/2
 491 000b 36       		.byte	(.L77-.L76)/2
 492 000c 25       		.byte	(.L75-.L76)/2
 493 000d 00       		.p2align 1
 494              	.L78:
 495 000e 0129     		cmp	r1, #1
 496 0010 06D0     		beq	.L86
 497 0012 2A4B     		ldr	r3, .L90
 498 0014 0022     		movs	r2, #0
 499 0016 C3F88822 		str	r2, [r3, #648]
 500 001a C3F88C22 		str	r2, [r3, #652]
 501 001e 7047     		bx	lr
 502              	.L86:
 503 0020 264B     		ldr	r3, .L90
 504 0022 0022     		movs	r2, #0
 505 0024 C3F88822 		str	r2, [r3, #648]
 506 0028 0122     		movs	r2, #1
 507 002a C3F88C22 		str	r2, [r3, #652]
 508 002e 7047     		bx	lr
 509              	.L79:
 510 0030 0129     		cmp	r1, #1
 511 0032 06D0     		beq	.L87
 512 0034 214B     		ldr	r3, .L90
 513 0036 0022     		movs	r2, #0
ARM GAS  C:\Users\ktkuru\AppData\Local\Temp\ccu06NtY.s 			page 10


 514 0038 C3F88022 		str	r2, [r3, #640]
 515 003c C3F88422 		str	r2, [r3, #644]
 516 0040 7047     		bx	lr
 517              	.L87:
 518 0042 1E4B     		ldr	r3, .L90
 519 0044 0122     		movs	r2, #1
 520 0046 C3F88022 		str	r2, [r3, #640]
 521 004a 0022     		movs	r2, #0
 522 004c C3F88422 		str	r2, [r3, #644]
 523 0050 7047     		bx	lr
 524              	.L75:
 525 0052 0129     		cmp	r1, #1
 526 0054 06D0     		beq	.L88
 527 0056 194B     		ldr	r3, .L90
 528 0058 0022     		movs	r2, #0
 529 005a C3F89022 		str	r2, [r3, #656]
 530 005e C3F89422 		str	r2, [r3, #660]
 531 0062 7047     		bx	lr
 532              	.L88:
 533 0064 154B     		ldr	r3, .L90
 534 0066 0022     		movs	r2, #0
 535 0068 C3F89022 		str	r2, [r3, #656]
 536 006c 0122     		movs	r2, #1
 537 006e C3F89422 		str	r2, [r3, #660]
 538 0072 7047     		bx	lr
 539              	.L77:
 540 0074 0129     		cmp	r1, #1
 541 0076 06D0     		beq	.L89
 542 0078 104B     		ldr	r3, .L90
 543 007a 0022     		movs	r2, #0
 544 007c C3F89822 		str	r2, [r3, #664]
 545 0080 C3F89C22 		str	r2, [r3, #668]
 546 0084 7047     		bx	lr
 547              	.L89:
 548 0086 0D4B     		ldr	r3, .L90
 549 0088 0022     		movs	r2, #0
 550 008a C3F89822 		str	r2, [r3, #664]
 551 008e 0122     		movs	r2, #1
 552 0090 C3F89C22 		str	r2, [r3, #668]
 553 0094 7047     		bx	lr
 554              	.L80:
 555 0096 094B     		ldr	r3, .L90
 556 0098 0022     		movs	r2, #0
 557 009a C3F88022 		str	r2, [r3, #640]
 558 009e C3F88422 		str	r2, [r3, #644]
 559 00a2 C3F88822 		str	r2, [r3, #648]
 560 00a6 C3F88C22 		str	r2, [r3, #652]
 561 00aa C3F89022 		str	r2, [r3, #656]
 562 00ae C3F89422 		str	r2, [r3, #660]
 563 00b2 C3F89822 		str	r2, [r3, #664]
 564 00b6 C3F89C22 		str	r2, [r3, #668]
 565              	.L73:
 566 00ba 7047     		bx	lr
 567              	.L91:
 568              		.align	2
 569              	.L90:
 570 00bc 00804242 		.word	1111654400
ARM GAS  C:\Users\ktkuru\AppData\Local\Temp\ccu06NtY.s 			page 11


 572              		.section	.text.T3Motor_CmdCombination,"ax",%progbits
 573              		.align	1
 574              		.global	T3Motor_CmdCombination
 575              		.syntax unified
 576              		.thumb
 577              		.thumb_func
 579              	T3Motor_CmdCombination:
 580              		@ args = 0, pretend = 0, frame = 0
 581              		@ frame_needed = 0, uses_anonymous_args = 0
 582 0000 08B5     		push	{r3, lr}
 583 0002 2DED028B 		vpush.64	{d8}
 584 0006 B0EE408A 		vmov.f32	s16, s0
 585 000a F0EE608A 		vmov.f32	s17, s1
 586 000e 0028     		cmp	r0, #0
 587 0010 3ED0     		beq	.L93
 588 0012 B5EEC00A 		vcmpe.f32	s0, #0
 589 0016 F1EE10FA 		vmrs	APSR_nzcv, FPSCR
 590 001a 1BDD     		ble	.L101
 591 001c 0121     		movs	r1, #1
 592 001e 0420     		movs	r0, #4
 593 0020 FFF7FEFF 		bl	Motor_Cmd
 594 0024 0021     		movs	r1, #0
 595 0026 0320     		movs	r0, #3
 596 0028 FFF7FEFF 		bl	Motor_Cmd
 597 002c 0121     		movs	r1, #1
 598 002e 0220     		movs	r0, #2
 599 0030 FFF7FEFF 		bl	Motor_Cmd
 600 0034 0021     		movs	r1, #0
 601 0036 0120     		movs	r0, #1
 602 0038 FFF7FEFF 		bl	Motor_Cmd
 603 003c BCEEC88A 		vcvt.u32.f32	s16, s16
 604 0040 324B     		ldr	r3, .L104
 605 0042 83ED108A 		vstr.32	s16, [r3, #64]	@ int
 606 0046 FCEEE88A 		vcvt.u32.f32	s17, s17
 607 004a C3ED0E8A 		vstr.32	s17, [r3, #56]	@ int
 608              	.L92:
 609 004e BDEC028B 		vldm	sp!, {d8}
 610 0052 08BD     		pop	{r3, pc}
 611              	.L101:
 612 0054 0021     		movs	r1, #0
 613 0056 0420     		movs	r0, #4
 614 0058 FFF7FEFF 		bl	Motor_Cmd
 615 005c 0121     		movs	r1, #1
 616 005e 0320     		movs	r0, #3
 617 0060 FFF7FEFF 		bl	Motor_Cmd
 618 0064 0021     		movs	r1, #0
 619 0066 0220     		movs	r0, #2
 620 0068 FFF7FEFF 		bl	Motor_Cmd
 621 006c 0121     		movs	r1, #1
 622 006e 0846     		mov	r0, r1
 623 0070 FFF7FEFF 		bl	Motor_Cmd
 624 0074 B1EE488A 		vneg.f32	s16, s16
 625 0078 BCEEC88A 		vcvt.u32.f32	s16, s16
 626 007c 234B     		ldr	r3, .L104
 627 007e 83ED0F8A 		vstr.32	s16, [r3, #60]	@ int
 628 0082 F1EE688A 		vneg.f32	s17, s17
 629 0086 FCEEE88A 		vcvt.u32.f32	s17, s17
ARM GAS  C:\Users\ktkuru\AppData\Local\Temp\ccu06NtY.s 			page 12


 630 008a C3ED0D8A 		vstr.32	s17, [r3, #52]	@ int
 631 008e DEE7     		b	.L92
 632              	.L93:
 633 0090 B5EEC00A 		vcmpe.f32	s0, #0
 634 0094 F1EE10FA 		vmrs	APSR_nzcv, FPSCR
 635 0098 19DD     		ble	.L102
 636 009a 0021     		movs	r1, #0
 637 009c 0420     		movs	r0, #4
 638 009e FFF7FEFF 		bl	Motor_Cmd
 639 00a2 0121     		movs	r1, #1
 640 00a4 0320     		movs	r0, #3
 641 00a6 FFF7FEFF 		bl	Motor_Cmd
 642 00aa 0121     		movs	r1, #1
 643 00ac 0220     		movs	r0, #2
 644 00ae FFF7FEFF 		bl	Motor_Cmd
 645 00b2 0021     		movs	r1, #0
 646 00b4 0120     		movs	r0, #1
 647 00b6 FFF7FEFF 		bl	Motor_Cmd
 648 00ba BCEEC88A 		vcvt.u32.f32	s16, s16
 649 00be 134B     		ldr	r3, .L104
 650 00c0 83ED0F8A 		vstr.32	s16, [r3, #60]	@ int
 651 00c4 FCEEE88A 		vcvt.u32.f32	s17, s17
 652 00c8 C3ED0E8A 		vstr.32	s17, [r3, #56]	@ int
 653 00cc BFE7     		b	.L92
 654              	.L102:
 655 00ce 0121     		movs	r1, #1
 656 00d0 0420     		movs	r0, #4
 657 00d2 FFF7FEFF 		bl	Motor_Cmd
 658 00d6 0021     		movs	r1, #0
 659 00d8 0320     		movs	r0, #3
 660 00da FFF7FEFF 		bl	Motor_Cmd
 661 00de 0021     		movs	r1, #0
 662 00e0 0220     		movs	r0, #2
 663 00e2 FFF7FEFF 		bl	Motor_Cmd
 664 00e6 0121     		movs	r1, #1
 665 00e8 0846     		mov	r0, r1
 666 00ea FFF7FEFF 		bl	Motor_Cmd
 667 00ee B1EE488A 		vneg.f32	s16, s16
 668 00f2 BCEEC88A 		vcvt.u32.f32	s16, s16
 669 00f6 054B     		ldr	r3, .L104
 670 00f8 83ED108A 		vstr.32	s16, [r3, #64]	@ int
 671 00fc F1EE688A 		vneg.f32	s17, s17
 672 0100 FCEEE88A 		vcvt.u32.f32	s17, s17
 673 0104 C3ED0D8A 		vstr.32	s17, [r3, #52]	@ int
 674 0108 A1E7     		b	.L92
 675              	.L105:
 676 010a 00BF     		.align	2
 677              	.L104:
 678 010c 00040140 		.word	1073808384
 680              		.section	.text.T5Motor_CmdCombination,"ax",%progbits
 681              		.align	1
 682              		.global	T5Motor_CmdCombination
 683              		.syntax unified
 684              		.thumb
 685              		.thumb_func
 687              	T5Motor_CmdCombination:
 688              		@ args = 0, pretend = 0, frame = 0
ARM GAS  C:\Users\ktkuru\AppData\Local\Temp\ccu06NtY.s 			page 13


 689              		@ frame_needed = 0, uses_anonymous_args = 0
 690 0000 08B5     		push	{r3, lr}
 691 0002 2DED028B 		vpush.64	{d8}
 692 0006 B0EE408A 		vmov.f32	s16, s0
 693 000a F0EE608A 		vmov.f32	s17, s1
 694 000e 0138     		subs	r0, r0, #1
 695 0010 0328     		cmp	r0, #3
 696 0012 29D8     		bhi	.L106
 697 0014 DFE810F0 		tbh	[pc, r0, lsl #1]
 698              	.L109:
 699 0018 0400     		.2byte	(.L112-.L109)/2
 700 001a 6D00     		.2byte	(.L111-.L109)/2
 701 001c D400     		.2byte	(.L110-.L109)/2
 702 001e 3B01     		.2byte	(.L108-.L109)/2
 703              		.p2align 1
 704              	.L112:
 705 0020 B5EEC00A 		vcmpe.f32	s0, #0
 706 0024 F1EE10FA 		vmrs	APSR_nzcv, FPSCR
 707 0028 31DD     		ble	.L149
 708 002a 0021     		movs	r1, #0
 709 002c 0320     		movs	r0, #3
 710 002e FFF7FEFF 		bl	Motor_Cmd
 711 0032 0121     		movs	r1, #1
 712 0034 0420     		movs	r0, #4
 713 0036 FFF7FEFF 		bl	Motor_Cmd
 714 003a BCEEC88A 		vcvt.u32.f32	s16, s16
 715 003e C74B     		ldr	r3, .L163
 716 0040 83ED108A 		vstr.32	s16, [r3, #64]	@ int
 717 0044 F5EEC08A 		vcmpe.f32	s17, #0
 718 0048 F1EE10FA 		vmrs	APSR_nzcv, FPSCR
 719 004c 0FDD     		ble	.L150
 720 004e 0021     		movs	r1, #0
 721 0050 0220     		movs	r0, #2
 722 0052 FFF7FEFF 		bl	Motor_Cmd
 723 0056 0121     		movs	r1, #1
 724 0058 0846     		mov	r0, r1
 725 005a FFF7FEFF 		bl	Motor_Cmd
 726 005e FCEEE88A 		vcvt.u32.f32	s17, s17
 727 0062 BE4B     		ldr	r3, .L163
 728 0064 C3ED0D8A 		vstr.32	s17, [r3, #52]	@ int
 729              	.L106:
 730 0068 BDEC028B 		vldm	sp!, {d8}
 731 006c 08BD     		pop	{r3, pc}
 732              	.L150:
 733 006e 0121     		movs	r1, #1
 734 0070 0220     		movs	r0, #2
 735 0072 FFF7FEFF 		bl	Motor_Cmd
 736 0076 0021     		movs	r1, #0
 737 0078 0120     		movs	r0, #1
 738 007a FFF7FEFF 		bl	Motor_Cmd
 739 007e F1EE688A 		vneg.f32	s17, s17
 740 0082 FCEEE88A 		vcvt.u32.f32	s17, s17
 741 0086 B54B     		ldr	r3, .L163
 742 0088 C3ED0E8A 		vstr.32	s17, [r3, #56]	@ int
 743 008c ECE7     		b	.L106
 744              	.L149:
 745 008e 0121     		movs	r1, #1
ARM GAS  C:\Users\ktkuru\AppData\Local\Temp\ccu06NtY.s 			page 14


 746 0090 0320     		movs	r0, #3
 747 0092 FFF7FEFF 		bl	Motor_Cmd
 748 0096 0021     		movs	r1, #0
 749 0098 0420     		movs	r0, #4
 750 009a FFF7FEFF 		bl	Motor_Cmd
 751 009e B1EE488A 		vneg.f32	s16, s16
 752 00a2 BCEEC88A 		vcvt.u32.f32	s16, s16
 753 00a6 AD4B     		ldr	r3, .L163
 754 00a8 83ED0F8A 		vstr.32	s16, [r3, #60]	@ int
 755 00ac F5EEC08A 		vcmpe.f32	s17, #0
 756 00b0 F1EE10FA 		vmrs	APSR_nzcv, FPSCR
 757 00b4 0DDD     		ble	.L151
 758 00b6 0021     		movs	r1, #0
 759 00b8 0220     		movs	r0, #2
 760 00ba FFF7FEFF 		bl	Motor_Cmd
 761 00be 0121     		movs	r1, #1
 762 00c0 0846     		mov	r0, r1
 763 00c2 FFF7FEFF 		bl	Motor_Cmd
 764 00c6 FCEEE88A 		vcvt.u32.f32	s17, s17
 765 00ca A44B     		ldr	r3, .L163
 766 00cc C3ED0D8A 		vstr.32	s17, [r3, #52]	@ int
 767 00d0 CAE7     		b	.L106
 768              	.L151:
 769 00d2 0121     		movs	r1, #1
 770 00d4 0220     		movs	r0, #2
 771 00d6 FFF7FEFF 		bl	Motor_Cmd
 772 00da 0021     		movs	r1, #0
 773 00dc 0120     		movs	r0, #1
 774 00de FFF7FEFF 		bl	Motor_Cmd
 775 00e2 F1EE688A 		vneg.f32	s17, s17
 776 00e6 FCEEE88A 		vcvt.u32.f32	s17, s17
 777 00ea 9C4B     		ldr	r3, .L163
 778 00ec C3ED0E8A 		vstr.32	s17, [r3, #56]	@ int
 779 00f0 BAE7     		b	.L106
 780              	.L111:
 781 00f2 B5EEC00A 		vcmpe.f32	s0, #0
 782 00f6 F1EE10FA 		vmrs	APSR_nzcv, FPSCR
 783 00fa 2FDD     		ble	.L152
 784 00fc 0021     		movs	r1, #0
 785 00fe 0320     		movs	r0, #3
 786 0100 FFF7FEFF 		bl	Motor_Cmd
 787 0104 0121     		movs	r1, #1
 788 0106 0420     		movs	r0, #4
 789 0108 FFF7FEFF 		bl	Motor_Cmd
 790 010c BCEEC88A 		vcvt.u32.f32	s16, s16
 791 0110 924B     		ldr	r3, .L163
 792 0112 83ED108A 		vstr.32	s16, [r3, #64]	@ int
 793 0116 F5EEC08A 		vcmpe.f32	s17, #0
 794 011a F1EE10FA 		vmrs	APSR_nzcv, FPSCR
 795 011e 0DDD     		ble	.L153
 796 0120 0121     		movs	r1, #1
 797 0122 0220     		movs	r0, #2
 798 0124 FFF7FEFF 		bl	Motor_Cmd
 799 0128 0021     		movs	r1, #0
 800 012a 0120     		movs	r0, #1
 801 012c FFF7FEFF 		bl	Motor_Cmd
 802 0130 FCEEE88A 		vcvt.u32.f32	s17, s17
ARM GAS  C:\Users\ktkuru\AppData\Local\Temp\ccu06NtY.s 			page 15


 803 0134 894B     		ldr	r3, .L163
 804 0136 C3ED0E8A 		vstr.32	s17, [r3, #56]	@ int
 805 013a 95E7     		b	.L106
 806              	.L153:
 807 013c 0021     		movs	r1, #0
 808 013e 0220     		movs	r0, #2
 809 0140 FFF7FEFF 		bl	Motor_Cmd
 810 0144 0121     		movs	r1, #1
 811 0146 0846     		mov	r0, r1
 812 0148 FFF7FEFF 		bl	Motor_Cmd
 813 014c F1EE688A 		vneg.f32	s17, s17
 814 0150 FCEEE88A 		vcvt.u32.f32	s17, s17
 815 0154 814B     		ldr	r3, .L163
 816 0156 C3ED0D8A 		vstr.32	s17, [r3, #52]	@ int
 817 015a 85E7     		b	.L106
 818              	.L152:
 819 015c 0121     		movs	r1, #1
 820 015e 0320     		movs	r0, #3
 821 0160 FFF7FEFF 		bl	Motor_Cmd
 822 0164 0021     		movs	r1, #0
 823 0166 0420     		movs	r0, #4
 824 0168 FFF7FEFF 		bl	Motor_Cmd
 825 016c B1EE488A 		vneg.f32	s16, s16
 826 0170 BCEEC88A 		vcvt.u32.f32	s16, s16
 827 0174 794B     		ldr	r3, .L163
 828 0176 83ED0F8A 		vstr.32	s16, [r3, #60]	@ int
 829 017a F5EEC08A 		vcmpe.f32	s17, #0
 830 017e F1EE10FA 		vmrs	APSR_nzcv, FPSCR
 831 0182 0DDD     		ble	.L154
 832 0184 0121     		movs	r1, #1
 833 0186 0220     		movs	r0, #2
 834 0188 FFF7FEFF 		bl	Motor_Cmd
 835 018c 0021     		movs	r1, #0
 836 018e 0120     		movs	r0, #1
 837 0190 FFF7FEFF 		bl	Motor_Cmd
 838 0194 FCEEE88A 		vcvt.u32.f32	s17, s17
 839 0198 704B     		ldr	r3, .L163
 840 019a C3ED0E8A 		vstr.32	s17, [r3, #56]	@ int
 841 019e 63E7     		b	.L106
 842              	.L154:
 843 01a0 0021     		movs	r1, #0
 844 01a2 0220     		movs	r0, #2
 845 01a4 FFF7FEFF 		bl	Motor_Cmd
 846 01a8 0121     		movs	r1, #1
 847 01aa 0846     		mov	r0, r1
 848 01ac FFF7FEFF 		bl	Motor_Cmd
 849 01b0 F1EE688A 		vneg.f32	s17, s17
 850 01b4 FCEEE88A 		vcvt.u32.f32	s17, s17
 851 01b8 684B     		ldr	r3, .L163
 852 01ba C3ED0D8A 		vstr.32	s17, [r3, #52]	@ int
 853 01be 53E7     		b	.L106
 854              	.L110:
 855 01c0 B5EEC00A 		vcmpe.f32	s0, #0
 856 01c4 F1EE10FA 		vmrs	APSR_nzcv, FPSCR
 857 01c8 2FDD     		ble	.L155
 858 01ca 0121     		movs	r1, #1
 859 01cc 0320     		movs	r0, #3
ARM GAS  C:\Users\ktkuru\AppData\Local\Temp\ccu06NtY.s 			page 16


 860 01ce FFF7FEFF 		bl	Motor_Cmd
 861 01d2 0021     		movs	r1, #0
 862 01d4 0420     		movs	r0, #4
 863 01d6 FFF7FEFF 		bl	Motor_Cmd
 864 01da BCEEC88A 		vcvt.u32.f32	s16, s16
 865 01de 5F4B     		ldr	r3, .L163
 866 01e0 83ED0F8A 		vstr.32	s16, [r3, #60]	@ int
 867 01e4 F5EEC08A 		vcmpe.f32	s17, #0
 868 01e8 F1EE10FA 		vmrs	APSR_nzcv, FPSCR
 869 01ec 0DDD     		ble	.L156
 870 01ee 0121     		movs	r1, #1
 871 01f0 0220     		movs	r0, #2
 872 01f2 FFF7FEFF 		bl	Motor_Cmd
 873 01f6 0021     		movs	r1, #0
 874 01f8 0120     		movs	r0, #1
 875 01fa FFF7FEFF 		bl	Motor_Cmd
 876 01fe FCEEE88A 		vcvt.u32.f32	s17, s17
 877 0202 564B     		ldr	r3, .L163
 878 0204 C3ED0E8A 		vstr.32	s17, [r3, #56]	@ int
 879 0208 2EE7     		b	.L106
 880              	.L156:
 881 020a 0021     		movs	r1, #0
 882 020c 0220     		movs	r0, #2
 883 020e FFF7FEFF 		bl	Motor_Cmd
 884 0212 0121     		movs	r1, #1
 885 0214 0846     		mov	r0, r1
 886 0216 FFF7FEFF 		bl	Motor_Cmd
 887 021a F1EE688A 		vneg.f32	s17, s17
 888 021e FCEEE88A 		vcvt.u32.f32	s17, s17
 889 0222 4E4B     		ldr	r3, .L163
 890 0224 C3ED0D8A 		vstr.32	s17, [r3, #52]	@ int
 891 0228 1EE7     		b	.L106
 892              	.L155:
 893 022a 0021     		movs	r1, #0
 894 022c 0320     		movs	r0, #3
 895 022e FFF7FEFF 		bl	Motor_Cmd
 896 0232 0121     		movs	r1, #1
 897 0234 0420     		movs	r0, #4
 898 0236 FFF7FEFF 		bl	Motor_Cmd
 899 023a B1EE488A 		vneg.f32	s16, s16
 900 023e BCEEC88A 		vcvt.u32.f32	s16, s16
 901 0242 464B     		ldr	r3, .L163
 902 0244 83ED108A 		vstr.32	s16, [r3, #64]	@ int
 903 0248 F5EEC08A 		vcmpe.f32	s17, #0
 904 024c F1EE10FA 		vmrs	APSR_nzcv, FPSCR
 905 0250 0DDD     		ble	.L157
 906 0252 0121     		movs	r1, #1
 907 0254 0220     		movs	r0, #2
 908 0256 FFF7FEFF 		bl	Motor_Cmd
 909 025a 0021     		movs	r1, #0
 910 025c 0120     		movs	r0, #1
 911 025e FFF7FEFF 		bl	Motor_Cmd
 912 0262 FCEEE88A 		vcvt.u32.f32	s17, s17
 913 0266 3D4B     		ldr	r3, .L163
 914 0268 C3ED0E8A 		vstr.32	s17, [r3, #56]	@ int
 915 026c FCE6     		b	.L106
 916              	.L157:
ARM GAS  C:\Users\ktkuru\AppData\Local\Temp\ccu06NtY.s 			page 17


 917 026e 0021     		movs	r1, #0
 918 0270 0220     		movs	r0, #2
 919 0272 FFF7FEFF 		bl	Motor_Cmd
 920 0276 0121     		movs	r1, #1
 921 0278 0846     		mov	r0, r1
 922 027a FFF7FEFF 		bl	Motor_Cmd
 923 027e F1EE688A 		vneg.f32	s17, s17
 924 0282 FCEEE88A 		vcvt.u32.f32	s17, s17
 925 0286 354B     		ldr	r3, .L163
 926 0288 C3ED0D8A 		vstr.32	s17, [r3, #52]	@ int
 927 028c ECE6     		b	.L106
 928              	.L108:
 929 028e B5EEC00A 		vcmpe.f32	s0, #0
 930 0292 F1EE10FA 		vmrs	APSR_nzcv, FPSCR
 931 0296 2FDD     		ble	.L158
 932 0298 0121     		movs	r1, #1
 933 029a 0320     		movs	r0, #3
 934 029c FFF7FEFF 		bl	Motor_Cmd
 935 02a0 0021     		movs	r1, #0
 936 02a2 0420     		movs	r0, #4
 937 02a4 FFF7FEFF 		bl	Motor_Cmd
 938 02a8 BCEEC88A 		vcvt.u32.f32	s16, s16
 939 02ac 2B4B     		ldr	r3, .L163
 940 02ae 83ED0F8A 		vstr.32	s16, [r3, #60]	@ int
 941 02b2 F5EEC08A 		vcmpe.f32	s17, #0
 942 02b6 F1EE10FA 		vmrs	APSR_nzcv, FPSCR
 943 02ba 0DDD     		ble	.L159
 944 02bc 0021     		movs	r1, #0
 945 02be 0220     		movs	r0, #2
 946 02c0 FFF7FEFF 		bl	Motor_Cmd
 947 02c4 0121     		movs	r1, #1
 948 02c6 0846     		mov	r0, r1
 949 02c8 FFF7FEFF 		bl	Motor_Cmd
 950 02cc FCEEE88A 		vcvt.u32.f32	s17, s17
 951 02d0 224B     		ldr	r3, .L163
 952 02d2 C3ED0D8A 		vstr.32	s17, [r3, #52]	@ int
 953 02d6 C7E6     		b	.L106
 954              	.L159:
 955 02d8 0121     		movs	r1, #1
 956 02da 0220     		movs	r0, #2
 957 02dc FFF7FEFF 		bl	Motor_Cmd
 958 02e0 0021     		movs	r1, #0
 959 02e2 0120     		movs	r0, #1
 960 02e4 FFF7FEFF 		bl	Motor_Cmd
 961 02e8 F1EE688A 		vneg.f32	s17, s17
 962 02ec FCEEE88A 		vcvt.u32.f32	s17, s17
 963 02f0 1A4B     		ldr	r3, .L163
 964 02f2 C3ED0E8A 		vstr.32	s17, [r3, #56]	@ int
 965 02f6 B7E6     		b	.L106
 966              	.L158:
 967 02f8 0021     		movs	r1, #0
 968 02fa 0320     		movs	r0, #3
 969 02fc FFF7FEFF 		bl	Motor_Cmd
 970 0300 0121     		movs	r1, #1
 971 0302 0420     		movs	r0, #4
 972 0304 FFF7FEFF 		bl	Motor_Cmd
 973 0308 B1EE488A 		vneg.f32	s16, s16
ARM GAS  C:\Users\ktkuru\AppData\Local\Temp\ccu06NtY.s 			page 18


 974 030c BCEEC88A 		vcvt.u32.f32	s16, s16
 975 0310 124B     		ldr	r3, .L163
 976 0312 83ED108A 		vstr.32	s16, [r3, #64]	@ int
 977 0316 F5EEC08A 		vcmpe.f32	s17, #0
 978 031a F1EE10FA 		vmrs	APSR_nzcv, FPSCR
 979 031e 0DDD     		ble	.L160
 980 0320 0021     		movs	r1, #0
 981 0322 0220     		movs	r0, #2
 982 0324 FFF7FEFF 		bl	Motor_Cmd
 983 0328 0121     		movs	r1, #1
 984 032a 0846     		mov	r0, r1
 985 032c FFF7FEFF 		bl	Motor_Cmd
 986 0330 FCEEE88A 		vcvt.u32.f32	s17, s17
 987 0334 094B     		ldr	r3, .L163
 988 0336 C3ED0D8A 		vstr.32	s17, [r3, #52]	@ int
 989 033a 95E6     		b	.L106
 990              	.L160:
 991 033c 0121     		movs	r1, #1
 992 033e 0220     		movs	r0, #2
 993 0340 FFF7FEFF 		bl	Motor_Cmd
 994 0344 0021     		movs	r1, #0
 995 0346 0120     		movs	r0, #1
 996 0348 FFF7FEFF 		bl	Motor_Cmd
 997 034c F1EE688A 		vneg.f32	s17, s17
 998 0350 FCEEE88A 		vcvt.u32.f32	s17, s17
 999 0354 014B     		ldr	r3, .L163
 1000 0356 C3ED0E8A 		vstr.32	s17, [r3, #56]	@ int
 1001 035a 85E6     		b	.L106
 1002              	.L164:
 1003              		.align	2
 1004              	.L163:
 1005 035c 00040140 		.word	1073808384
 1007              		.section	.text.StopAllMotor,"ax",%progbits
 1008              		.align	1
 1009              		.global	StopAllMotor
 1010              		.syntax unified
 1011              		.thumb
 1012              		.thumb_func
 1014              	StopAllMotor:
 1015              		@ args = 0, pretend = 0, frame = 0
 1016              		@ frame_needed = 0, uses_anonymous_args = 0
 1017 0000 08B5     		push	{r3, lr}
 1018 0002 064B     		ldr	r3, .L169
 1019 0004 1B78     		ldrb	r3, [r3]	@ zero_extendqisi2
 1020 0006 23B1     		cbz	r3, .L166
 1021 0008 0021     		movs	r1, #0
 1022 000a 0846     		mov	r0, r1
 1023 000c FFF7FEFF 		bl	Motor_Cmd
 1024              	.L167:
 1025 0010 FEE7     		b	.L167
 1026              	.L166:
 1027 0012 0121     		movs	r1, #1
 1028 0014 0020     		movs	r0, #0
 1029 0016 FFF7FEFF 		bl	Motor_Cmd
 1030 001a 08BD     		pop	{r3, pc}
 1031              	.L170:
 1032              		.align	2
ARM GAS  C:\Users\ktkuru\AppData\Local\Temp\ccu06NtY.s 			page 19


 1033              	.L169:
 1034 001c 00000000 		.word	Stop_flag
 1036              		.section	.bss.output.0,"aw",%nobits
 1037              		.align	2
 1040              	output.0:
 1041 0000 00000000 		.space	4
 1042              		.section	.bss.T1Lderivative.1,"aw",%nobits
 1043              		.align	2
 1046              	T1Lderivative.1:
 1047 0000 00000000 		.space	4
 1048              		.section	.bss.T1LlastError.2,"aw",%nobits
 1049              		.align	2
 1052              	T1LlastError.2:
 1053 0000 00000000 		.space	4
 1054              		.section	.bss.T1Lintegral.5,"aw",%nobits
 1055              		.align	2
 1058              	T1Lintegral.5:
 1059 0000 00000000 		.space	4
 1060              		.section	.bss.T1Lerror.6,"aw",%nobits
 1061              		.align	2
 1064              	T1Lerror.6:
 1065 0000 00000000 		.space	4
 1066              		.section	.bss.output.7,"aw",%nobits
 1067              		.align	2
 1070              	output.7:
 1071 0000 00000000 		.space	4
 1072              		.section	.bss.T4Sderivative.8,"aw",%nobits
 1073              		.align	2
 1076              	T4Sderivative.8:
 1077 0000 00000000 		.space	4
 1078              		.section	.bss.T4SlastError.9,"aw",%nobits
 1079              		.align	2
 1082              	T4SlastError.9:
 1083 0000 00000000 		.space	4
 1084              		.section	.bss.T4Sintegral.12,"aw",%nobits
 1085              		.align	2
 1088              	T4Sintegral.12:
 1089 0000 00000000 		.space	4
 1090              		.section	.bss.T4Serror.13,"aw",%nobits
 1091              		.align	2
 1094              	T4Serror.13:
 1095 0000 00000000 		.space	4
 1096              		.global	MotorLocation
 1097              		.section	.bss.MotorLocation,"aw",%nobits
 1100              	MotorLocation:
 1101 0000 00       		.space	1
 1102              		.global	State_Data
 1103              		.section	.bss.State_Data,"aw",%nobits
 1106              	State_Data:
 1107 0000 00       		.space	1
 1108              		.ident	"GCC: (Arm GNU Toolchain 13.3.Rel1 (Build arm-13.24)) 13.3.1 20240614"
ARM GAS  C:\Users\ktkuru\AppData\Local\Temp\ccu06NtY.s 			page 20

