ARM GAS  C:\Users\ktkuru\AppData\Local\Temp\ccb9iCJL.s 			page 1


   1              		.cpu cortex-m4
   2              		.arch armv7e-m
   3              		.fpu fpv4-sp-d16
   4              		.eabi_attribute 27, 1
   5              		.eabi_attribute 28, 1
   6              		.eabi_attribute 20, 1
   7              		.eabi_attribute 21, 1
   8              		.eabi_attribute 23, 3
   9              		.eabi_attribute 24, 1
  10              		.eabi_attribute 25, 1
  11              		.eabi_attribute 26, 1
  12              		.eabi_attribute 30, 1
  13              		.eabi_attribute 34, 1
  14              		.eabi_attribute 18, 4
  15              		.file	"control.c"
  16              		.text
  17              		.global	__aeabi_f2d
  18              		.global	__aeabi_dmul
  19              		.global	__aeabi_d2f
  20              		.global	__aeabi_ddiv
  21              		.section	.text.GetPolar,"ax",%progbits
  22              		.align	1
  23              		.global	GetPolar
  24              		.syntax unified
  25              		.thumb
  26              		.thumb_func
  28              	GetPolar:
  29              		@ args = 0, pretend = 0, frame = 0
  30              		@ frame_needed = 0, uses_anonymous_args = 0
  31 0000 08B5     		push	{r3, lr}
  32 0002 2DED068B 		vpush.64	{d8, d9, d10}
  33 0006 F0EE408A 		vmov.f32	s17, s0
  34 000a B0EE608A 		vmov.f32	s16, s1
  35 000e B5EEC00A 		vcmpe.f32	s0, #0
  36 0012 F1EE10FA 		vmrs	APSR_nzcv, FPSCR
  37 0016 00F19A80 		bmi	.L34
  38 001a F0EE407A 		vmov.f32	s15, s0
  39              	.L2:
  40 001e B5EEC08A 		vcmpe.f32	s16, #0
  41 0022 F1EE10FA 		vmrs	APSR_nzcv, FPSCR
  42 0026 00F19580 		bmi	.L35
  43 002a F0EE489A 		vmov.f32	s19, s16
  44              	.L4:
  45 002e 9FED62AA 		vldr.32	s20, .L39+8
  46 0032 C7EE8A7A 		vdiv.f32	s15, s15, s20
  47 0036 17EE900A 		vmov	r0, s15
  48 003a FFF7FEFF 		bl	__aeabi_f2d
  49 003e 5CA3     		adr	r3, .L39
  50 0040 D3E90023 		ldrd	r2, [r3]
  51 0044 FFF7FEFF 		bl	__aeabi_dmul
  52 0048 FFF7FEFF 		bl	__aeabi_d2f
  53 004c 09EE100A 		vmov	s18, r0
  54 0050 C9EE8A7A 		vdiv.f32	s15, s19, s20
  55 0054 17EE900A 		vmov	r0, s15
  56 0058 FFF7FEFF 		bl	__aeabi_f2d
  57 005c 54A3     		adr	r3, .L39
  58 005e D3E90023 		ldrd	r2, [r3]
ARM GAS  C:\Users\ktkuru\AppData\Local\Temp\ccb9iCJL.s 			page 2


  59 0062 FFF7FEFF 		bl	__aeabi_dmul
  60 0066 FFF7FEFF 		bl	__aeabi_d2f
  61 006a 09EE900A 		vmov	s19, r0
  62 006e B0EE490A 		vmov.f32	s0, s18
  63 0072 FFF7FEFF 		bl	tanf
  64 0076 B0EE409A 		vmov.f32	s18, s0
  65 007a 60EE00AA 		vmul.f32	s21, s0, s0
  66 007e B0EE690A 		vmov.f32	s0, s19
  67 0082 FFF7FEFF 		bl	tanf
  68 0086 F0EE409A 		vmov.f32	s19, s0
  69 008a 20EE000A 		vmul.f32	s0, s0, s0
  70 008e 3AEE800A 		vadd.f32	s0, s21, s0
  71 0092 FFF7FEFF 		bl	sqrtf
  72 0096 FFF7FEFF 		bl	atanf
  73 009a 10EE100A 		vmov	r0, s0
  74 009e FFF7FEFF 		bl	__aeabi_f2d
  75 00a2 0022     		movs	r2, #0
  76 00a4 454B     		ldr	r3, .L39+12
  77 00a6 FFF7FEFF 		bl	__aeabi_dmul
  78 00aa 41A3     		adr	r3, .L39
  79 00ac D3E90023 		ldrd	r2, [r3]
  80 00b0 FFF7FEFF 		bl	__aeabi_ddiv
  81 00b4 FFF7FEFF 		bl	__aeabi_d2f
  82 00b8 07EE900A 		vmov	s15, r0
  83 00bc 404B     		ldr	r3, .L39+16
  84 00be 1860     		str	r0, [r3]	@ float
  85 00c0 C7EE8A7A 		vdiv.f32	s15, s15, s20
  86 00c4 17EE900A 		vmov	r0, s15
  87 00c8 FFF7FEFF 		bl	__aeabi_f2d
  88 00cc 38A3     		adr	r3, .L39
  89 00ce D3E90023 		ldrd	r2, [r3]
  90 00d2 FFF7FEFF 		bl	__aeabi_dmul
  91 00d6 FFF7FEFF 		bl	__aeabi_d2f
  92 00da 00EE100A 		vmov	s0, r0
  93 00de FFF7FEFF 		bl	tanf
  94 00e2 DFED387A 		vldr.32	s15, .L39+20
  95 00e6 20EE27AA 		vmul.f32	s20, s0, s15
  96 00ea 374B     		ldr	r3, .L39+24
  97 00ec 83ED00AA 		vstr.32	s20, [r3]
  98 00f0 89EE890A 		vdiv.f32	s0, s19, s18
  99 00f4 FFF7FEFF 		bl	atanf
 100 00f8 10EE100A 		vmov	r0, s0
 101 00fc FFF7FEFF 		bl	__aeabi_f2d
 102 0100 0022     		movs	r2, #0
 103 0102 2E4B     		ldr	r3, .L39+12
 104 0104 FFF7FEFF 		bl	__aeabi_dmul
 105 0108 29A3     		adr	r3, .L39
 106 010a D3E90023 		ldrd	r2, [r3]
 107 010e FFF7FEFF 		bl	__aeabi_ddiv
 108 0112 FFF7FEFF 		bl	__aeabi_d2f
 109 0116 07EE900A 		vmov	s15, r0
 110 011a 2C4B     		ldr	r3, .L39+28
 111 011c 1860     		str	r0, [r3]	@ float
 112 011e B5EEC08A 		vcmpe.f32	s16, #0
 113 0122 F1EE10FA 		vmrs	APSR_nzcv, FPSCR
 114 0126 18D4     		bmi	.L36
 115              	.L6:
ARM GAS  C:\Users\ktkuru\AppData\Local\Temp\ccb9iCJL.s 			page 3


 116 0128 B5EEC08A 		vcmpe.f32	s16, #0
 117 012c F1EE10FA 		vmrs	APSR_nzcv, FPSCR
 118 0130 1ADD     		ble	.L10
 119 0132 F5EEC08A 		vcmpe.f32	s17, #0
 120 0136 F1EE10FA 		vmrs	APSR_nzcv, FPSCR
 121 013a 2CD4     		bmi	.L37
 122 013c F5EEC08A 		vcmpe.f32	s17, #0
 123 0140 F1EE10FA 		vmrs	APSR_nzcv, FPSCR
 124 0144 10DD     		ble	.L10
 125 0146 224B     		ldr	r3, .L39+32
 126 0148 C3ED007A 		vstr.32	s15, [r3]
 127 014c 0CE0     		b	.L10
 128              	.L34:
 129 014e F1EE407A 		vneg.f32	s15, s0
 130 0152 64E7     		b	.L2
 131              	.L35:
 132 0154 F1EE489A 		vneg.f32	s19, s16
 133 0158 69E7     		b	.L4
 134              	.L36:
 135 015a F5EEC08A 		vcmpe.f32	s17, #0
 136 015e F1EE10FA 		vmrs	APSR_nzcv, FPSCR
 137 0162 0BDD     		ble	.L31
 138 0164 1A4B     		ldr	r3, .L39+32
 139 0166 1860     		str	r0, [r3]	@ float
 140              	.L10:
 141 0168 F7EE007A 		vmov.f32	s15, #1.0e+0
 142 016c B4EEE7AA 		vcmpe.f32	s20, s15
 143 0170 F1EE10FA 		vmrs	APSR_nzcv, FPSCR
 144 0174 17D4     		bmi	.L38
 145              	.L1:
 146 0176 BDEC068B 		vldm	sp!, {d8-d10}
 147 017a 08BD     		pop	{r3, pc}
 148              	.L31:
 149 017c F5EEC08A 		vcmpe.f32	s17, #0
 150 0180 F1EE10FA 		vmrs	APSR_nzcv, FPSCR
 151 0184 D0D5     		bpl	.L6
 152 0186 9FED0C7A 		vldr.32	s14, .L39+8
 153 018a 77EE677A 		vsub.f32	s15, s14, s15
 154 018e 104B     		ldr	r3, .L39+32
 155 0190 C3ED007A 		vstr.32	s15, [r3]
 156 0194 E8E7     		b	.L10
 157              	.L37:
 158 0196 9FED087A 		vldr.32	s14, .L39+8
 159 019a 77EE677A 		vsub.f32	s15, s14, s15
 160 019e 0C4B     		ldr	r3, .L39+32
 161 01a0 C3ED007A 		vstr.32	s15, [r3]
 162 01a4 E0E7     		b	.L10
 163              	.L38:
 164 01a6 0A4B     		ldr	r3, .L39+32
 165 01a8 0022     		movs	r2, #0
 166 01aa 1A60     		str	r2, [r3]	@ float
 167 01ac E3E7     		b	.L1
 168              	.L40:
 169 01ae 00BF     		.align	3
 170              	.L39:
 171 01b0 4AD8124D 		.word	1293080650
 172 01b4 FB210940 		.word	1074340347
ARM GAS  C:\Users\ktkuru\AppData\Local\Temp\ccb9iCJL.s 			page 4


 173 01b8 00003443 		.word	1127481344
 174 01bc 00806640 		.word	1080459264
 175 01c0 00000000 		.word	def
 176 01c4 0000AC42 		.word	1118568448
 177 01c8 00000000 		.word	dis
 178 01cc 00000000 		.word	Opolar
 179 01d0 00000000 		.word	polar
 181              		.global	__aeabi_dcmplt
 182              		.section	.text.PidControl_Stop,"ax",%progbits
 183              		.align	1
 184              		.global	PidControl_Stop
 185              		.syntax unified
 186              		.thumb
 187              		.thumb_func
 189              	PidControl_Stop:
 190              		@ args = 0, pretend = 0, frame = 0
 191              		@ frame_needed = 0, uses_anonymous_args = 0
 192 0000 10B5     		push	{r4, lr}
 193 0002 2DED028B 		vpush.64	{d8}
 194 0006 0446     		mov	r4, r0
 195 0008 30EEC08A 		vsub.f32	s16, s1, s0
 196 000c 2A4B     		ldr	r3, .L53+8
 197 000e 83ED008A 		vstr.32	s16, [r3]
 198 0012 2A4B     		ldr	r3, .L53+12
 199 0014 D3ED007A 		vldr.32	s15, [r3]
 200 0018 77EE887A 		vadd.f32	s15, s15, s16
 201 001c C3ED007A 		vstr.32	s15, [r3]
 202 0020 274B     		ldr	r3, .L53+16
 203 0022 1868     		ldr	r0, [r3]	@ float
 204 0024 FFF7FEFF 		bl	__aeabi_f2d
 205 0028 21A3     		adr	r3, .L53
 206 002a D3E90023 		ldrd	r2, [r3]
 207 002e FFF7FEFF 		bl	__aeabi_dcmplt
 208 0032 10B1     		cbz	r0, .L42
 209 0034 214B     		ldr	r3, .L53+12
 210 0036 0022     		movs	r2, #0
 211 0038 1A60     		str	r2, [r3]	@ float
 212              	.L42:
 213 003a 204B     		ldr	r3, .L53+12
 214 003c D3ED007A 		vldr.32	s15, [r3]
 215 0040 9FED207A 		vldr.32	s14, .L53+20
 216 0044 F4EEC77A 		vcmpe.f32	s15, s14
 217 0048 F1EE10FA 		vmrs	APSR_nzcv, FPSCR
 218 004c 24D5     		bpl	.L51
 219 004e 83ED007A 		vstr.32	s14, [r3]
 220              	.L46:
 221 0052 1D4B     		ldr	r3, .L53+24
 222 0054 D3ED007A 		vldr.32	s15, [r3]
 223 0058 78EE677A 		vsub.f32	s15, s16, s15
 224 005c 1B4A     		ldr	r2, .L53+28
 225 005e C2ED007A 		vstr.32	s15, [r2]
 226 0062 94ED000A 		vldr.32	s0, [r4]
 227 0066 28EE000A 		vmul.f32	s0, s16, s0
 228 006a 94ED017A 		vldr.32	s14, [r4, #4]
 229 006e 134A     		ldr	r2, .L53+12
 230 0070 D2ED006A 		vldr.32	s13, [r2]
 231 0074 27EE267A 		vmul.f32	s14, s14, s13
ARM GAS  C:\Users\ktkuru\AppData\Local\Temp\ccb9iCJL.s 			page 5


 232 0078 30EE070A 		vadd.f32	s0, s0, s14
 233 007c 94ED027A 		vldr.32	s14, [r4, #8]
 234 0080 67EE877A 		vmul.f32	s15, s15, s14
 235 0084 30EE270A 		vadd.f32	s0, s0, s15
 236 0088 114A     		ldr	r2, .L53+32
 237 008a 82ED000A 		vstr.32	s0, [r2]
 238 008e 83ED008A 		vstr.32	s16, [r3]
 239 0092 BDEC028B 		vldm	sp!, {d8}
 240 0096 10BD     		pop	{r4, pc}
 241              	.L51:
 242 0098 9FED0E7A 		vldr.32	s14, .L53+36
 243 009c F4EEC77A 		vcmpe.f32	s15, s14
 244 00a0 F1EE10FA 		vmrs	APSR_nzcv, FPSCR
 245 00a4 D5DD     		ble	.L46
 246 00a6 054B     		ldr	r3, .L53+12
 247 00a8 83ED007A 		vstr.32	s14, [r3]
 248 00ac D1E7     		b	.L46
 249              	.L54:
 250 00ae 00BF     		.align	3
 251              	.L53:
 252 00b0 9A999999 		.word	-1717986918
 253 00b4 9999E93F 		.word	1072273817
 254 00b8 00000000 		.word	T4Serror.15
 255 00bc 00000000 		.word	T4Sintegral.14
 256 00c0 00000000 		.word	def
 257 00c4 004003C6 		.word	-972865536
 258 00c8 00000000 		.word	T4SlastError.11
 259 00cc 00000000 		.word	T4Sderivative.10
 260 00d0 00000000 		.word	output.9
 261 00d4 00400346 		.word	1174618112
 263              		.section	.text.PidControl_LineMove,"ax",%progbits
 264              		.align	1
 265              		.global	PidControl_LineMove
 266              		.syntax unified
 267              		.thumb
 268              		.thumb_func
 270              	PidControl_LineMove:
 271              		@ args = 0, pretend = 0, frame = 0
 272              		@ frame_needed = 0, uses_anonymous_args = 0
 273 0000 10B5     		push	{r4, lr}
 274 0002 2DED028B 		vpush.64	{d8}
 275 0006 0446     		mov	r4, r0
 276 0008 30EEC08A 		vsub.f32	s16, s1, s0
 277 000c 2A4B     		ldr	r3, .L67+8
 278 000e 83ED008A 		vstr.32	s16, [r3]
 279 0012 2A4B     		ldr	r3, .L67+12
 280 0014 D3ED007A 		vldr.32	s15, [r3]
 281 0018 77EE887A 		vadd.f32	s15, s15, s16
 282 001c C3ED007A 		vstr.32	s15, [r3]
 283 0020 274B     		ldr	r3, .L67+16
 284 0022 1868     		ldr	r0, [r3]	@ float
 285 0024 FFF7FEFF 		bl	__aeabi_f2d
 286 0028 21A3     		adr	r3, .L67
 287 002a D3E90023 		ldrd	r2, [r3]
 288 002e FFF7FEFF 		bl	__aeabi_dcmplt
 289 0032 10B1     		cbz	r0, .L56
 290 0034 214B     		ldr	r3, .L67+12
ARM GAS  C:\Users\ktkuru\AppData\Local\Temp\ccb9iCJL.s 			page 6


 291 0036 0022     		movs	r2, #0
 292 0038 1A60     		str	r2, [r3]	@ float
 293              	.L56:
 294 003a 204B     		ldr	r3, .L67+12
 295 003c D3ED007A 		vldr.32	s15, [r3]
 296 0040 9FED207A 		vldr.32	s14, .L67+20
 297 0044 F4EEC77A 		vcmpe.f32	s15, s14
 298 0048 F1EE10FA 		vmrs	APSR_nzcv, FPSCR
 299 004c 24D5     		bpl	.L65
 300 004e 83ED007A 		vstr.32	s14, [r3]
 301              	.L60:
 302 0052 1D4B     		ldr	r3, .L67+24
 303 0054 D3ED007A 		vldr.32	s15, [r3]
 304 0058 78EE677A 		vsub.f32	s15, s16, s15
 305 005c 1B4A     		ldr	r2, .L67+28
 306 005e C2ED007A 		vstr.32	s15, [r2]
 307 0062 94ED000A 		vldr.32	s0, [r4]
 308 0066 28EE000A 		vmul.f32	s0, s16, s0
 309 006a 94ED017A 		vldr.32	s14, [r4, #4]
 310 006e 134A     		ldr	r2, .L67+12
 311 0070 D2ED006A 		vldr.32	s13, [r2]
 312 0074 27EE267A 		vmul.f32	s14, s14, s13
 313 0078 30EE070A 		vadd.f32	s0, s0, s14
 314 007c 94ED027A 		vldr.32	s14, [r4, #8]
 315 0080 67EE877A 		vmul.f32	s15, s15, s14
 316 0084 30EE270A 		vadd.f32	s0, s0, s15
 317 0088 114A     		ldr	r2, .L67+32
 318 008a 82ED000A 		vstr.32	s0, [r2]
 319 008e 83ED008A 		vstr.32	s16, [r3]
 320 0092 BDEC028B 		vldm	sp!, {d8}
 321 0096 10BD     		pop	{r4, pc}
 322              	.L65:
 323 0098 9FED0E7A 		vldr.32	s14, .L67+36
 324 009c F4EEC77A 		vcmpe.f32	s15, s14
 325 00a0 F1EE10FA 		vmrs	APSR_nzcv, FPSCR
 326 00a4 D5DD     		ble	.L60
 327 00a6 054B     		ldr	r3, .L67+12
 328 00a8 83ED007A 		vstr.32	s14, [r3]
 329 00ac D1E7     		b	.L60
 330              	.L68:
 331 00ae 00BF     		.align	3
 332              	.L67:
 333 00b0 9A999999 		.word	-1717986918
 334 00b4 9999E93F 		.word	1072273817
 335 00b8 00000000 		.word	T1Lerror.8
 336 00bc 00000000 		.word	T1Lintegral.7
 337 00c0 00000000 		.word	def
 338 00c4 004003C6 		.word	-972865536
 339 00c8 00000000 		.word	T1LlastError.4
 340 00cc 00000000 		.word	T1Lderivative.3
 341 00d0 00000000 		.word	output.2
 342 00d4 00400346 		.word	1174618112
 344              		.section	.rodata.Motor_PWM_TIM8_Init.str1.4,"aMS",%progbits,1
 345              		.align	2
 346              	.LC0:
 347 0000 2D3E4D6F 		.ascii	"->Motor->TIM8_OC1_OC2_OC3_OC4 Init  done\000"
 347      746F722D 
ARM GAS  C:\Users\ktkuru\AppData\Local\Temp\ccb9iCJL.s 			page 7


 347      3E54494D 
 347      385F4F43 
 347      315F4F43 
 348 0029 000000   		.align	2
 349              	.LC1:
 350 002c 2D3E4D6F 		.ascii	"->Motor->TIM1_TIM8 Enable  done\000"
 350      746F722D 
 350      3E54494D 
 350      315F5449 
 350      4D382045 
 351              		.section	.text.Motor_PWM_TIM8_Init,"ax",%progbits
 352              		.align	1
 353              		.global	Motor_PWM_TIM8_Init
 354              		.syntax unified
 355              		.thumb
 356              		.thumb_func
 358              	Motor_PWM_TIM8_Init:
 359              		@ args = 0, pretend = 0, frame = 32
 360              		@ frame_needed = 0, uses_anonymous_args = 0
 361 0000 70B5     		push	{r4, r5, r6, lr}
 362 0002 88B0     		sub	sp, sp, #32
 363 0004 0121     		movs	r1, #1
 364 0006 0220     		movs	r0, #2
 365 0008 FFF7FEFF 		bl	RCC_APB2PeriphClockCmd
 366 000c 0121     		movs	r1, #1
 367 000e 0420     		movs	r0, #4
 368 0010 FFF7FEFF 		bl	RCC_AHB1PeriphClockCmd
 369 0014 384C     		ldr	r4, .L71
 370 0016 0023     		movs	r3, #0
 371 0018 0222     		movs	r2, #2
 372 001a 4FF47071 		mov	r1, #960
 373 001e 2046     		mov	r0, r4
 374 0020 FFF7FEFF 		bl	GPIO_Config
 375 0024 0322     		movs	r2, #3
 376 0026 0621     		movs	r1, #6
 377 0028 2046     		mov	r0, r4
 378 002a FFF7FEFF 		bl	GPIO_PinAFConfig
 379 002e 0322     		movs	r2, #3
 380 0030 0721     		movs	r1, #7
 381 0032 2046     		mov	r0, r4
 382 0034 FFF7FEFF 		bl	GPIO_PinAFConfig
 383 0038 0322     		movs	r2, #3
 384 003a 0821     		movs	r1, #8
 385 003c 2046     		mov	r0, r4
 386 003e FFF7FEFF 		bl	GPIO_PinAFConfig
 387 0042 0322     		movs	r2, #3
 388 0044 0921     		movs	r1, #9
 389 0046 2046     		mov	r0, r4
 390 0048 FFF7FEFF 		bl	GPIO_PinAFConfig
 391 004c 42F2CF03 		movw	r3, #8399
 392 0050 0693     		str	r3, [sp, #24]
 393 0052 0126     		movs	r6, #1
 394 0054 ADF81460 		strh	r6, [sp, #20]	@ movhi
 395 0058 0025     		movs	r5, #0
 396 005a ADF81C50 		strh	r5, [sp, #28]	@ movhi
 397 005e ADF81650 		strh	r5, [sp, #22]	@ movhi
 398 0062 A4F58234 		sub	r4, r4, #66560
ARM GAS  C:\Users\ktkuru\AppData\Local\Temp\ccb9iCJL.s 			page 8


 399 0066 05A9     		add	r1, sp, #20
 400 0068 2046     		mov	r0, r4
 401 006a FFF7FEFF 		bl	TIM_TimeBaseInit
 402 006e 6023     		movs	r3, #96
 403 0070 ADF80030 		strh	r3, [sp]	@ movhi
 404 0074 ADF80260 		strh	r6, [sp, #2]	@ movhi
 405 0078 ADF80450 		strh	r5, [sp, #4]	@ movhi
 406 007c 0295     		str	r5, [sp, #8]
 407 007e ADF80C50 		strh	r5, [sp, #12]	@ movhi
 408 0082 ADF80E50 		strh	r5, [sp, #14]	@ movhi
 409 0086 ADF81050 		strh	r5, [sp, #16]	@ movhi
 410 008a ADF81250 		strh	r5, [sp, #18]	@ movhi
 411 008e 6946     		mov	r1, sp
 412 0090 2046     		mov	r0, r4
 413 0092 FFF7FEFF 		bl	TIM_OC1Init
 414 0096 6946     		mov	r1, sp
 415 0098 2046     		mov	r0, r4
 416 009a FFF7FEFF 		bl	TIM_OC2Init
 417 009e 6946     		mov	r1, sp
 418 00a0 2046     		mov	r0, r4
 419 00a2 FFF7FEFF 		bl	TIM_OC3Init
 420 00a6 6946     		mov	r1, sp
 421 00a8 2046     		mov	r0, r4
 422 00aa FFF7FEFF 		bl	TIM_OC4Init
 423 00ae 0821     		movs	r1, #8
 424 00b0 2046     		mov	r0, r4
 425 00b2 FFF7FEFF 		bl	TIM_OC1PreloadConfig
 426 00b6 0821     		movs	r1, #8
 427 00b8 2046     		mov	r0, r4
 428 00ba FFF7FEFF 		bl	TIM_OC2PreloadConfig
 429 00be 0821     		movs	r1, #8
 430 00c0 2046     		mov	r0, r4
 431 00c2 FFF7FEFF 		bl	TIM_OC3PreloadConfig
 432 00c6 0821     		movs	r1, #8
 433 00c8 2046     		mov	r0, r4
 434 00ca FFF7FEFF 		bl	TIM_OC4PreloadConfig
 435 00ce 3146     		mov	r1, r6
 436 00d0 2046     		mov	r0, r4
 437 00d2 FFF7FEFF 		bl	TIM_ARRPreloadConfig
 438 00d6 0948     		ldr	r0, .L71+4
 439 00d8 FFF7FEFF 		bl	puts
 440 00dc 3146     		mov	r1, r6
 441 00de 2046     		mov	r0, r4
 442 00e0 FFF7FEFF 		bl	TIM_CtrlPWMOutputs
 443 00e4 3146     		mov	r1, r6
 444 00e6 2046     		mov	r0, r4
 445 00e8 FFF7FEFF 		bl	TIM_Cmd
 446 00ec 0448     		ldr	r0, .L71+8
 447 00ee FFF7FEFF 		bl	puts
 448 00f2 08B0     		add	sp, sp, #32
 449              		@ sp needed
 450 00f4 70BD     		pop	{r4, r5, r6, pc}
 451              	.L72:
 452 00f6 00BF     		.align	2
 453              	.L71:
 454 00f8 00080240 		.word	1073874944
 455 00fc 00000000 		.word	.LC0
ARM GAS  C:\Users\ktkuru\AppData\Local\Temp\ccb9iCJL.s 			page 9


 456 0100 2C000000 		.word	.LC1
 458              		.section	.text.Motor_Cmd,"ax",%progbits
 459              		.align	1
 460              		.global	Motor_Cmd
 461              		.syntax unified
 462              		.thumb
 463              		.thumb_func
 465              	Motor_Cmd:
 466              		@ args = 0, pretend = 0, frame = 0
 467              		@ frame_needed = 0, uses_anonymous_args = 0
 468              		@ link register save eliminated.
 469 0000 0428     		cmp	r0, #4
 470 0002 5AD8     		bhi	.L73
 471 0004 DFE800F0 		tbb	[pc, r0]
 472              	.L76:
 473 0008 47       		.byte	(.L80-.L76)/2
 474 0009 14       		.byte	(.L79-.L76)/2
 475 000a 03       		.byte	(.L78-.L76)/2
 476 000b 36       		.byte	(.L77-.L76)/2
 477 000c 25       		.byte	(.L75-.L76)/2
 478 000d 00       		.p2align 1
 479              	.L78:
 480 000e 0129     		cmp	r1, #1
 481 0010 06D0     		beq	.L86
 482 0012 2A4B     		ldr	r3, .L90
 483 0014 0022     		movs	r2, #0
 484 0016 C3F88822 		str	r2, [r3, #648]
 485 001a C3F88C22 		str	r2, [r3, #652]
 486 001e 7047     		bx	lr
 487              	.L86:
 488 0020 264B     		ldr	r3, .L90
 489 0022 0022     		movs	r2, #0
 490 0024 C3F88822 		str	r2, [r3, #648]
 491 0028 0122     		movs	r2, #1
 492 002a C3F88C22 		str	r2, [r3, #652]
 493 002e 7047     		bx	lr
 494              	.L79:
 495 0030 0129     		cmp	r1, #1
 496 0032 06D0     		beq	.L87
 497 0034 214B     		ldr	r3, .L90
 498 0036 0022     		movs	r2, #0
 499 0038 C3F88022 		str	r2, [r3, #640]
 500 003c C3F88422 		str	r2, [r3, #644]
 501 0040 7047     		bx	lr
 502              	.L87:
 503 0042 1E4B     		ldr	r3, .L90
 504 0044 0122     		movs	r2, #1
 505 0046 C3F88022 		str	r2, [r3, #640]
 506 004a 0022     		movs	r2, #0
 507 004c C3F88422 		str	r2, [r3, #644]
 508 0050 7047     		bx	lr
 509              	.L75:
 510 0052 0129     		cmp	r1, #1
 511 0054 06D0     		beq	.L88
 512 0056 194B     		ldr	r3, .L90
 513 0058 0022     		movs	r2, #0
 514 005a C3F89022 		str	r2, [r3, #656]
ARM GAS  C:\Users\ktkuru\AppData\Local\Temp\ccb9iCJL.s 			page 10


 515 005e C3F89422 		str	r2, [r3, #660]
 516 0062 7047     		bx	lr
 517              	.L88:
 518 0064 154B     		ldr	r3, .L90
 519 0066 0022     		movs	r2, #0
 520 0068 C3F89022 		str	r2, [r3, #656]
 521 006c 0122     		movs	r2, #1
 522 006e C3F89422 		str	r2, [r3, #660]
 523 0072 7047     		bx	lr
 524              	.L77:
 525 0074 0129     		cmp	r1, #1
 526 0076 06D0     		beq	.L89
 527 0078 104B     		ldr	r3, .L90
 528 007a 0022     		movs	r2, #0
 529 007c C3F89822 		str	r2, [r3, #664]
 530 0080 C3F89C22 		str	r2, [r3, #668]
 531 0084 7047     		bx	lr
 532              	.L89:
 533 0086 0D4B     		ldr	r3, .L90
 534 0088 0022     		movs	r2, #0
 535 008a C3F89822 		str	r2, [r3, #664]
 536 008e 0122     		movs	r2, #1
 537 0090 C3F89C22 		str	r2, [r3, #668]
 538 0094 7047     		bx	lr
 539              	.L80:
 540 0096 094B     		ldr	r3, .L90
 541 0098 0022     		movs	r2, #0
 542 009a C3F88022 		str	r2, [r3, #640]
 543 009e C3F88422 		str	r2, [r3, #644]
 544 00a2 C3F88822 		str	r2, [r3, #648]
 545 00a6 C3F88C22 		str	r2, [r3, #652]
 546 00aa C3F89022 		str	r2, [r3, #656]
 547 00ae C3F89422 		str	r2, [r3, #660]
 548 00b2 C3F89822 		str	r2, [r3, #664]
 549 00b6 C3F89C22 		str	r2, [r3, #668]
 550              	.L73:
 551 00ba 7047     		bx	lr
 552              	.L91:
 553              		.align	2
 554              	.L90:
 555 00bc 00804242 		.word	1111654400
 557              		.section	.text.T3Motor_CmdCombination,"ax",%progbits
 558              		.align	1
 559              		.global	T3Motor_CmdCombination
 560              		.syntax unified
 561              		.thumb
 562              		.thumb_func
 564              	T3Motor_CmdCombination:
 565              		@ args = 0, pretend = 0, frame = 0
 566              		@ frame_needed = 0, uses_anonymous_args = 0
 567 0000 08B5     		push	{r3, lr}
 568 0002 2DED028B 		vpush.64	{d8}
 569 0006 B0EE408A 		vmov.f32	s16, s0
 570 000a F0EE608A 		vmov.f32	s17, s1
 571 000e 0028     		cmp	r0, #0
 572 0010 3ED0     		beq	.L93
 573 0012 B5EEC00A 		vcmpe.f32	s0, #0
ARM GAS  C:\Users\ktkuru\AppData\Local\Temp\ccb9iCJL.s 			page 11


 574 0016 F1EE10FA 		vmrs	APSR_nzcv, FPSCR
 575 001a 1BDD     		ble	.L101
 576 001c 0121     		movs	r1, #1
 577 001e 0420     		movs	r0, #4
 578 0020 FFF7FEFF 		bl	Motor_Cmd
 579 0024 0021     		movs	r1, #0
 580 0026 0320     		movs	r0, #3
 581 0028 FFF7FEFF 		bl	Motor_Cmd
 582 002c 0121     		movs	r1, #1
 583 002e 0220     		movs	r0, #2
 584 0030 FFF7FEFF 		bl	Motor_Cmd
 585 0034 0021     		movs	r1, #0
 586 0036 0120     		movs	r0, #1
 587 0038 FFF7FEFF 		bl	Motor_Cmd
 588 003c BCEEC88A 		vcvt.u32.f32	s16, s16
 589 0040 324B     		ldr	r3, .L104
 590 0042 83ED108A 		vstr.32	s16, [r3, #64]	@ int
 591 0046 FCEEE88A 		vcvt.u32.f32	s17, s17
 592 004a C3ED0E8A 		vstr.32	s17, [r3, #56]	@ int
 593              	.L92:
 594 004e BDEC028B 		vldm	sp!, {d8}
 595 0052 08BD     		pop	{r3, pc}
 596              	.L101:
 597 0054 0021     		movs	r1, #0
 598 0056 0420     		movs	r0, #4
 599 0058 FFF7FEFF 		bl	Motor_Cmd
 600 005c 0121     		movs	r1, #1
 601 005e 0320     		movs	r0, #3
 602 0060 FFF7FEFF 		bl	Motor_Cmd
 603 0064 0021     		movs	r1, #0
 604 0066 0220     		movs	r0, #2
 605 0068 FFF7FEFF 		bl	Motor_Cmd
 606 006c 0121     		movs	r1, #1
 607 006e 0846     		mov	r0, r1
 608 0070 FFF7FEFF 		bl	Motor_Cmd
 609 0074 B1EE488A 		vneg.f32	s16, s16
 610 0078 BCEEC88A 		vcvt.u32.f32	s16, s16
 611 007c 234B     		ldr	r3, .L104
 612 007e 83ED0F8A 		vstr.32	s16, [r3, #60]	@ int
 613 0082 F1EE688A 		vneg.f32	s17, s17
 614 0086 FCEEE88A 		vcvt.u32.f32	s17, s17
 615 008a C3ED0D8A 		vstr.32	s17, [r3, #52]	@ int
 616 008e DEE7     		b	.L92
 617              	.L93:
 618 0090 B5EEC00A 		vcmpe.f32	s0, #0
 619 0094 F1EE10FA 		vmrs	APSR_nzcv, FPSCR
 620 0098 19DD     		ble	.L102
 621 009a 0021     		movs	r1, #0
 622 009c 0420     		movs	r0, #4
 623 009e FFF7FEFF 		bl	Motor_Cmd
 624 00a2 0121     		movs	r1, #1
 625 00a4 0320     		movs	r0, #3
 626 00a6 FFF7FEFF 		bl	Motor_Cmd
 627 00aa 0121     		movs	r1, #1
 628 00ac 0220     		movs	r0, #2
 629 00ae FFF7FEFF 		bl	Motor_Cmd
 630 00b2 0021     		movs	r1, #0
ARM GAS  C:\Users\ktkuru\AppData\Local\Temp\ccb9iCJL.s 			page 12


 631 00b4 0120     		movs	r0, #1
 632 00b6 FFF7FEFF 		bl	Motor_Cmd
 633 00ba BCEEC88A 		vcvt.u32.f32	s16, s16
 634 00be 134B     		ldr	r3, .L104
 635 00c0 83ED0F8A 		vstr.32	s16, [r3, #60]	@ int
 636 00c4 FCEEE88A 		vcvt.u32.f32	s17, s17
 637 00c8 C3ED0E8A 		vstr.32	s17, [r3, #56]	@ int
 638 00cc BFE7     		b	.L92
 639              	.L102:
 640 00ce 0121     		movs	r1, #1
 641 00d0 0420     		movs	r0, #4
 642 00d2 FFF7FEFF 		bl	Motor_Cmd
 643 00d6 0021     		movs	r1, #0
 644 00d8 0320     		movs	r0, #3
 645 00da FFF7FEFF 		bl	Motor_Cmd
 646 00de 0021     		movs	r1, #0
 647 00e0 0220     		movs	r0, #2
 648 00e2 FFF7FEFF 		bl	Motor_Cmd
 649 00e6 0121     		movs	r1, #1
 650 00e8 0846     		mov	r0, r1
 651 00ea FFF7FEFF 		bl	Motor_Cmd
 652 00ee B1EE488A 		vneg.f32	s16, s16
 653 00f2 BCEEC88A 		vcvt.u32.f32	s16, s16
 654 00f6 054B     		ldr	r3, .L104
 655 00f8 83ED108A 		vstr.32	s16, [r3, #64]	@ int
 656 00fc F1EE688A 		vneg.f32	s17, s17
 657 0100 FCEEE88A 		vcvt.u32.f32	s17, s17
 658 0104 C3ED0D8A 		vstr.32	s17, [r3, #52]	@ int
 659 0108 A1E7     		b	.L92
 660              	.L105:
 661 010a 00BF     		.align	2
 662              	.L104:
 663 010c 00040140 		.word	1073808384
 665              		.section	.text.StopAllMotor,"ax",%progbits
 666              		.align	1
 667              		.global	StopAllMotor
 668              		.syntax unified
 669              		.thumb
 670              		.thumb_func
 672              	StopAllMotor:
 673              		@ args = 0, pretend = 0, frame = 0
 674              		@ frame_needed = 0, uses_anonymous_args = 0
 675 0000 08B5     		push	{r3, lr}
 676 0002 064B     		ldr	r3, .L110
 677 0004 1B78     		ldrb	r3, [r3]	@ zero_extendqisi2
 678 0006 23B1     		cbz	r3, .L107
 679 0008 0021     		movs	r1, #0
 680 000a 0846     		mov	r0, r1
 681 000c FFF7FEFF 		bl	Motor_Cmd
 682              	.L108:
 683 0010 FEE7     		b	.L108
 684              	.L107:
 685 0012 0121     		movs	r1, #1
 686 0014 0020     		movs	r0, #0
 687 0016 FFF7FEFF 		bl	Motor_Cmd
 688 001a 08BD     		pop	{r3, pc}
 689              	.L111:
ARM GAS  C:\Users\ktkuru\AppData\Local\Temp\ccb9iCJL.s 			page 13


 690              		.align	2
 691              	.L110:
 692 001c 00000000 		.word	Stop_flag
 694              		.global	__aeabi_dadd
 695              		.global	__aeabi_dcmpgt
 696              		.global	__aeabi_dcmpge
 697              		.section	.text.T3State_Update,"ax",%progbits
 698              		.align	1
 699              		.global	T3State_Update
 700              		.syntax unified
 701              		.thumb
 702              		.thumb_func
 704              	T3State_Update:
 705              		@ args = 0, pretend = 0, frame = 0
 706              		@ frame_needed = 0, uses_anonymous_args = 0
 707 0000 D0B5     		push	{r4, r6, r7, lr}
 708 0002 2DED088B 		vpush.64	{d8, d9, d10, d11}
 709 0006 B0EE408A 		vmov.f32	s16, s0
 710 000a F0EE608A 		vmov.f32	s17, s1
 711 000e F0EE41AA 		vmov.f32	s21, s2
 712 0012 F0EE619A 		vmov.f32	s19, s3
 713 0016 DFED7A7A 		vldr.32	s15, .L135+40
 714 001a B4EEE70A 		vcmpe.f32	s0, s15
 715 001e F1EE10FA 		vmrs	APSR_nzcv, FPSCR
 716 0022 03DD     		ble	.L113
 717 0024 DFED777A 		vldr.32	s15, .L135+44
 718 0028 37EEC08A 		vsub.f32	s16, s15, s0
 719              	.L113:
 720 002c 764C     		ldr	r4, .L135+48
 721 002e 2068     		ldr	r0, [r4]	@ float
 722 0030 FFF7FEFF 		bl	__aeabi_f2d
 723 0034 68A3     		adr	r3, .L135
 724 0036 D3E90023 		ldrd	r2, [r3]
 725 003a FFF7FEFF 		bl	__aeabi_dadd
 726 003e FFF7FEFF 		bl	__aeabi_d2f
 727 0042 2060     		str	r0, [r4]	@ float
 728 0044 FFF7FEFF 		bl	__aeabi_f2d
 729 0048 65A3     		adr	r3, .L135+8
 730 004a D3E90023 		ldrd	r2, [r3]
 731 004e FFF7FEFF 		bl	__aeabi_dcmpgt
 732 0052 08B1     		cbz	r0, .L115
 733 0054 0022     		movs	r2, #0
 734 0056 2260     		str	r2, [r4]	@ float
 735              	.L115:
 736 0058 18EE100A 		vmov	r0, s16
 737 005c FFF7FEFF 		bl	__aeabi_f2d
 738 0060 61A3     		adr	r3, .L135+16
 739 0062 D3E90023 		ldrd	r2, [r3]
 740 0066 FFF7FEFF 		bl	__aeabi_dmul
 741 006a 0022     		movs	r2, #0
 742 006c 674B     		ldr	r3, .L135+52
 743 006e FFF7FEFF 		bl	__aeabi_ddiv
 744 0072 FFF7FEFF 		bl	__aeabi_d2f
 745 0076 09EE100A 		vmov	s18, r0
 746 007a B0EE490A 		vmov.f32	s0, s18
 747 007e FFF7FEFF 		bl	cosf
 748 0082 60EE287A 		vmul.f32	s15, s0, s17
ARM GAS  C:\Users\ktkuru\AppData\Local\Temp\ccb9iCJL.s 			page 14


 749 0086 17EE900A 		vmov	r0, s15
 750 008a FFF7FEFF 		bl	__aeabi_f2d
 751 008e 58A3     		adr	r3, .L135+24
 752 0090 D3E90023 		ldrd	r2, [r3]
 753 0094 FFF7FEFF 		bl	__aeabi_ddiv
 754 0098 FFF7FEFF 		bl	__aeabi_d2f
 755 009c 00EE100A 		vmov	s0, r0
 756 00a0 FFF7FEFF 		bl	atanf
 757 00a4 10EE100A 		vmov	r0, s0
 758 00a8 FFF7FEFF 		bl	__aeabi_f2d
 759 00ac 4EA3     		adr	r3, .L135+16
 760 00ae D3E90023 		ldrd	r2, [r3]
 761 00b2 FFF7FEFF 		bl	__aeabi_ddiv
 762 00b6 0022     		movs	r2, #0
 763 00b8 544B     		ldr	r3, .L135+52
 764 00ba FFF7FEFF 		bl	__aeabi_dmul
 765 00be FFF7FEFF 		bl	__aeabi_d2f
 766 00c2 08EE100A 		vmov	s16, r0
 767 00c6 B0EE490A 		vmov.f32	s0, s18
 768 00ca FFF7FEFF 		bl	sinf
 769 00ce 60EE287A 		vmul.f32	s15, s0, s17
 770 00d2 17EE900A 		vmov	r0, s15
 771 00d6 FFF7FEFF 		bl	__aeabi_f2d
 772 00da 45A3     		adr	r3, .L135+24
 773 00dc D3E90023 		ldrd	r2, [r3]
 774 00e0 FFF7FEFF 		bl	__aeabi_ddiv
 775 00e4 FFF7FEFF 		bl	__aeabi_d2f
 776 00e8 00EE100A 		vmov	s0, r0
 777 00ec FFF7FEFF 		bl	atanf
 778 00f0 10EE100A 		vmov	r0, s0
 779 00f4 FFF7FEFF 		bl	__aeabi_f2d
 780 00f8 3BA3     		adr	r3, .L135+16
 781 00fa D3E90023 		ldrd	r2, [r3]
 782 00fe FFF7FEFF 		bl	__aeabi_ddiv
 783 0102 0022     		movs	r2, #0
 784 0104 414B     		ldr	r3, .L135+52
 785 0106 FFF7FEFF 		bl	__aeabi_dmul
 786 010a FFF7FEFF 		bl	__aeabi_d2f
 787 010e 0BEE100A 		vmov	s22, r0
 788 0112 3D4B     		ldr	r3, .L135+48
 789 0114 1C68     		ldr	r4, [r3]	@ float
 790 0116 2046     		mov	r0, r4	@ float
 791 0118 FFF7FEFF 		bl	__aeabi_f2d
 792 011c 30A3     		adr	r3, .L135+8
 793 011e D3E90023 		ldrd	r2, [r3]
 794 0122 FFF7FEFF 		bl	__aeabi_ddiv
 795 0126 34A3     		adr	r3, .L135+32
 796 0128 D3E90023 		ldrd	r2, [r3]
 797 012c FFF7FEFF 		bl	__aeabi_dmul
 798 0130 FFF7FEFF 		bl	__aeabi_d2f
 799 0134 0AEE100A 		vmov	s20, r0
 800 0138 B0EE4A0A 		vmov.f32	s0, s20
 801 013c FFF7FEFF 		bl	sinf
 802 0140 20EE088A 		vmul.f32	s16, s0, s16
 803 0144 20EE0BBA 		vmul.f32	s22, s0, s22
 804 0148 DFED317A 		vldr.32	s15, .L135+56
 805 014c B4EEE79A 		vcmpe.f32	s18, s15
ARM GAS  C:\Users\ktkuru\AppData\Local\Temp\ccb9iCJL.s 			page 15


 806 0150 F1EE10FA 		vmrs	APSR_nzcv, FPSCR
 807 0154 11DB     		blt	.L133
 808 0156 F1EE699A 		vneg.f32	s19, s19
 809 015a 2E4B     		ldr	r3, .L135+60
 810 015c 0122     		movs	r2, #1
 811 015e 1A70     		strb	r2, [r3]
 812              	.L119:
 813 0160 2D48     		ldr	r0, .L135+64
 814 0162 0460     		str	r4, [r0]	@ float
 815 0164 80ED018A 		vstr.32	s16, [r0, #4]
 816 0168 80ED02BA 		vstr.32	s22, [r0, #8]
 817 016c C0ED03AA 		vstr.32	s21, [r0, #12]
 818 0170 C0ED049A 		vstr.32	s19, [r0, #16]
 819 0174 BDEC088B 		vldm	sp!, {d8-d11}
 820 0178 D0BD     		pop	{r4, r6, r7, pc}
 821              	.L133:
 822 017a B5EEC0AA 		vcmpe.f32	s20, #0
 823 017e F1EE10FA 		vmrs	APSR_nzcv, FPSCR
 824 0182 0FDB     		blt	.L120
 825 0184 1AEE100A 		vmov	r0, s20
 826 0188 FFF7FEFF 		bl	__aeabi_f2d
 827 018c 16A3     		adr	r3, .L135+16
 828 018e D3E90023 		ldrd	r2, [r3]
 829 0192 FFF7FEFF 		bl	__aeabi_dcmplt
 830 0196 28B1     		cbz	r0, .L120
 831 0198 F1EE699A 		vneg.f32	s19, s19
 832              	.L123:
 833 019c 1D4B     		ldr	r3, .L135+60
 834 019e 0022     		movs	r2, #0
 835 01a0 1A70     		strb	r2, [r3]
 836 01a2 DDE7     		b	.L119
 837              	.L120:
 838 01a4 1AEE100A 		vmov	r0, s20
 839 01a8 FFF7FEFF 		bl	__aeabi_f2d
 840 01ac 0646     		mov	r6, r0
 841 01ae 0F46     		mov	r7, r1
 842 01b0 0DA3     		adr	r3, .L135+16
 843 01b2 D3E90023 		ldrd	r2, [r3]
 844 01b6 FFF7FEFF 		bl	__aeabi_dcmpge
 845 01ba 0028     		cmp	r0, #0
 846 01bc EED0     		beq	.L123
 847 01be 0EA3     		adr	r3, .L135+32
 848 01c0 D3E90023 		ldrd	r2, [r3]
 849 01c4 3046     		mov	r0, r6
 850 01c6 3946     		mov	r1, r7
 851 01c8 FFF7FEFF 		bl	__aeabi_dcmplt
 852 01cc 0028     		cmp	r0, #0
 853 01ce E5D0     		beq	.L123
 854 01d0 F1EE6AAA 		vneg.f32	s21, s21
 855 01d4 E2E7     		b	.L123
 856              	.L136:
 857 01d6 00BF     		.align	3
 858              	.L135:
 859 01d8 C35B316D 		.word	1831951299
 860 01dc 4958853F 		.word	1065703497
 861 01e0 0C022B87 		.word	-2027224564
 862 01e4 16D9FA3F 		.word	1073404182
ARM GAS  C:\Users\ktkuru\AppData\Local\Temp\ccb9iCJL.s 			page 16


 863 01e8 4AD8124D 		.word	1293080650
 864 01ec FB210940 		.word	1074340347
 865 01f0 85EB51B8 		.word	-1202590843
 866 01f4 1E85EB3F 		.word	1072399646
 867 01f8 4AD8124D 		.word	1293080650
 868 01fc FB211940 		.word	1075388923
 869 0200 00003443 		.word	1127481344
 870 0204 0000B443 		.word	1135869952
 871 0208 00000000 		.word	time.1
 872 020c 00806640 		.word	1080459264
 873 0210 0000B442 		.word	1119092736
 874 0214 00000000 		.word	State_Data
 875 0218 00000000 		.word	Output.0
 877              		.section	.bss.Output.0,"aw",%nobits
 878              		.align	2
 881              	Output.0:
 882 0000 00000000 		.space	20
 882      00000000 
 882      00000000 
 882      00000000 
 882      00000000 
 883              		.section	.bss.time.1,"aw",%nobits
 884              		.align	2
 887              	time.1:
 888 0000 00000000 		.space	4
 889              		.section	.bss.output.2,"aw",%nobits
 890              		.align	2
 893              	output.2:
 894 0000 00000000 		.space	4
 895              		.section	.bss.T1Lderivative.3,"aw",%nobits
 896              		.align	2
 899              	T1Lderivative.3:
 900 0000 00000000 		.space	4
 901              		.section	.bss.T1LlastError.4,"aw",%nobits
 902              		.align	2
 905              	T1LlastError.4:
 906 0000 00000000 		.space	4
 907              		.section	.bss.T1Lintegral.7,"aw",%nobits
 908              		.align	2
 911              	T1Lintegral.7:
 912 0000 00000000 		.space	4
 913              		.section	.bss.T1Lerror.8,"aw",%nobits
 914              		.align	2
 917              	T1Lerror.8:
 918 0000 00000000 		.space	4
 919              		.section	.bss.output.9,"aw",%nobits
 920              		.align	2
 923              	output.9:
 924 0000 00000000 		.space	4
 925              		.section	.bss.T4Sderivative.10,"aw",%nobits
 926              		.align	2
 929              	T4Sderivative.10:
 930 0000 00000000 		.space	4
 931              		.section	.bss.T4SlastError.11,"aw",%nobits
 932              		.align	2
 935              	T4SlastError.11:
 936 0000 00000000 		.space	4
ARM GAS  C:\Users\ktkuru\AppData\Local\Temp\ccb9iCJL.s 			page 17


 937              		.section	.bss.T4Sintegral.14,"aw",%nobits
 938              		.align	2
 941              	T4Sintegral.14:
 942 0000 00000000 		.space	4
 943              		.section	.bss.T4Serror.15,"aw",%nobits
 944              		.align	2
 947              	T4Serror.15:
 948 0000 00000000 		.space	4
 949              		.global	MotorLocation
 950              		.section	.bss.MotorLocation,"aw",%nobits
 953              	MotorLocation:
 954 0000 00       		.space	1
 955              		.global	State_Data
 956              		.section	.bss.State_Data,"aw",%nobits
 959              	State_Data:
 960 0000 00       		.space	1
 961              		.ident	"GCC: (Arm GNU Toolchain 13.3.Rel1 (Build arm-13.24)) 13.3.1 20240614"
ARM GAS  C:\Users\ktkuru\AppData\Local\Temp\ccb9iCJL.s 			page 18


DEFINED SYMBOLS
                            *ABS*:00000000 control.c
C:\Users\ktkuru\AppData\Local\Temp\ccb9iCJL.s:22     .text.GetPolar:00000000 $t
C:\Users\ktkuru\AppData\Local\Temp\ccb9iCJL.s:28     .text.GetPolar:00000000 GetPolar
C:\Users\ktkuru\AppData\Local\Temp\ccb9iCJL.s:171    .text.GetPolar:000001b0 $d
C:\Users\ktkuru\AppData\Local\Temp\ccb9iCJL.s:183    .text.PidControl_Stop:00000000 $t
C:\Users\ktkuru\AppData\Local\Temp\ccb9iCJL.s:189    .text.PidControl_Stop:00000000 PidControl_Stop
C:\Users\ktkuru\AppData\Local\Temp\ccb9iCJL.s:252    .text.PidControl_Stop:000000b0 $d
C:\Users\ktkuru\AppData\Local\Temp\ccb9iCJL.s:947    .bss.T4Serror.15:00000000 T4Serror.15
C:\Users\ktkuru\AppData\Local\Temp\ccb9iCJL.s:941    .bss.T4Sintegral.14:00000000 T4Sintegral.14
C:\Users\ktkuru\AppData\Local\Temp\ccb9iCJL.s:935    .bss.T4SlastError.11:00000000 T4SlastError.11
C:\Users\ktkuru\AppData\Local\Temp\ccb9iCJL.s:929    .bss.T4Sderivative.10:00000000 T4Sderivative.10
C:\Users\ktkuru\AppData\Local\Temp\ccb9iCJL.s:923    .bss.output.9:00000000 output.9
C:\Users\ktkuru\AppData\Local\Temp\ccb9iCJL.s:264    .text.PidControl_LineMove:00000000 $t
C:\Users\ktkuru\AppData\Local\Temp\ccb9iCJL.s:270    .text.PidControl_LineMove:00000000 PidControl_LineMove
C:\Users\ktkuru\AppData\Local\Temp\ccb9iCJL.s:333    .text.PidControl_LineMove:000000b0 $d
C:\Users\ktkuru\AppData\Local\Temp\ccb9iCJL.s:917    .bss.T1Lerror.8:00000000 T1Lerror.8
C:\Users\ktkuru\AppData\Local\Temp\ccb9iCJL.s:911    .bss.T1Lintegral.7:00000000 T1Lintegral.7
C:\Users\ktkuru\AppData\Local\Temp\ccb9iCJL.s:905    .bss.T1LlastError.4:00000000 T1LlastError.4
C:\Users\ktkuru\AppData\Local\Temp\ccb9iCJL.s:899    .bss.T1Lderivative.3:00000000 T1Lderivative.3
C:\Users\ktkuru\AppData\Local\Temp\ccb9iCJL.s:893    .bss.output.2:00000000 output.2
C:\Users\ktkuru\AppData\Local\Temp\ccb9iCJL.s:345    .rodata.Motor_PWM_TIM8_Init.str1.4:00000000 $d
C:\Users\ktkuru\AppData\Local\Temp\ccb9iCJL.s:352    .text.Motor_PWM_TIM8_Init:00000000 $t
C:\Users\ktkuru\AppData\Local\Temp\ccb9iCJL.s:358    .text.Motor_PWM_TIM8_Init:00000000 Motor_PWM_TIM8_Init
C:\Users\ktkuru\AppData\Local\Temp\ccb9iCJL.s:454    .text.Motor_PWM_TIM8_Init:000000f8 $d
C:\Users\ktkuru\AppData\Local\Temp\ccb9iCJL.s:459    .text.Motor_Cmd:00000000 $t
C:\Users\ktkuru\AppData\Local\Temp\ccb9iCJL.s:465    .text.Motor_Cmd:00000000 Motor_Cmd
C:\Users\ktkuru\AppData\Local\Temp\ccb9iCJL.s:473    .text.Motor_Cmd:00000008 $d
C:\Users\ktkuru\AppData\Local\Temp\ccb9iCJL.s:555    .text.Motor_Cmd:000000bc $d
C:\Users\ktkuru\AppData\Local\Temp\ccb9iCJL.s:558    .text.T3Motor_CmdCombination:00000000 $t
C:\Users\ktkuru\AppData\Local\Temp\ccb9iCJL.s:564    .text.T3Motor_CmdCombination:00000000 T3Motor_CmdCombination
C:\Users\ktkuru\AppData\Local\Temp\ccb9iCJL.s:663    .text.T3Motor_CmdCombination:0000010c $d
C:\Users\ktkuru\AppData\Local\Temp\ccb9iCJL.s:666    .text.StopAllMotor:00000000 $t
C:\Users\ktkuru\AppData\Local\Temp\ccb9iCJL.s:672    .text.StopAllMotor:00000000 StopAllMotor
C:\Users\ktkuru\AppData\Local\Temp\ccb9iCJL.s:692    .text.StopAllMotor:0000001c $d
C:\Users\ktkuru\AppData\Local\Temp\ccb9iCJL.s:698    .text.T3State_Update:00000000 $t
C:\Users\ktkuru\AppData\Local\Temp\ccb9iCJL.s:704    .text.T3State_Update:00000000 T3State_Update
C:\Users\ktkuru\AppData\Local\Temp\ccb9iCJL.s:859    .text.T3State_Update:000001d8 $d
C:\Users\ktkuru\AppData\Local\Temp\ccb9iCJL.s:887    .bss.time.1:00000000 time.1
C:\Users\ktkuru\AppData\Local\Temp\ccb9iCJL.s:959    .bss.State_Data:00000000 State_Data
C:\Users\ktkuru\AppData\Local\Temp\ccb9iCJL.s:881    .bss.Output.0:00000000 Output.0
C:\Users\ktkuru\AppData\Local\Temp\ccb9iCJL.s:878    .bss.Output.0:00000000 $d
C:\Users\ktkuru\AppData\Local\Temp\ccb9iCJL.s:884    .bss.time.1:00000000 $d
C:\Users\ktkuru\AppData\Local\Temp\ccb9iCJL.s:890    .bss.output.2:00000000 $d
C:\Users\ktkuru\AppData\Local\Temp\ccb9iCJL.s:896    .bss.T1Lderivative.3:00000000 $d
C:\Users\ktkuru\AppData\Local\Temp\ccb9iCJL.s:902    .bss.T1LlastError.4:00000000 $d
C:\Users\ktkuru\AppData\Local\Temp\ccb9iCJL.s:908    .bss.T1Lintegral.7:00000000 $d
C:\Users\ktkuru\AppData\Local\Temp\ccb9iCJL.s:914    .bss.T1Lerror.8:00000000 $d
C:\Users\ktkuru\AppData\Local\Temp\ccb9iCJL.s:920    .bss.output.9:00000000 $d
C:\Users\ktkuru\AppData\Local\Temp\ccb9iCJL.s:926    .bss.T4Sderivative.10:00000000 $d
C:\Users\ktkuru\AppData\Local\Temp\ccb9iCJL.s:932    .bss.T4SlastError.11:00000000 $d
C:\Users\ktkuru\AppData\Local\Temp\ccb9iCJL.s:938    .bss.T4Sintegral.14:00000000 $d
C:\Users\ktkuru\AppData\Local\Temp\ccb9iCJL.s:944    .bss.T4Serror.15:00000000 $d
C:\Users\ktkuru\AppData\Local\Temp\ccb9iCJL.s:953    .bss.MotorLocation:00000000 MotorLocation
C:\Users\ktkuru\AppData\Local\Temp\ccb9iCJL.s:954    .bss.MotorLocation:00000000 $d
C:\Users\ktkuru\AppData\Local\Temp\ccb9iCJL.s:960    .bss.State_Data:00000000 $d
C:\Users\ktkuru\AppData\Local\Temp\ccb9iCJL.s:478    .text.Motor_Cmd:0000000d $d
ARM GAS  C:\Users\ktkuru\AppData\Local\Temp\ccb9iCJL.s 			page 19


C:\Users\ktkuru\AppData\Local\Temp\ccb9iCJL.s:478    .text.Motor_Cmd:0000000e $t

UNDEFINED SYMBOLS
__aeabi_f2d
__aeabi_dmul
__aeabi_d2f
__aeabi_ddiv
tanf
sqrtf
atanf
def
dis
Opolar
polar
__aeabi_dcmplt
RCC_APB2PeriphClockCmd
RCC_AHB1PeriphClockCmd
GPIO_Config
GPIO_PinAFConfig
TIM_TimeBaseInit
TIM_OC1Init
TIM_OC2Init
TIM_OC3Init
TIM_OC4Init
TIM_OC1PreloadConfig
TIM_OC2PreloadConfig
TIM_OC3PreloadConfig
TIM_OC4PreloadConfig
TIM_ARRPreloadConfig
puts
TIM_CtrlPWMOutputs
TIM_Cmd
Stop_flag
__aeabi_dadd
__aeabi_dcmpgt
__aeabi_dcmpge
cosf
sinf
