ARM GAS  C:\Users\ktkuru\AppData\Local\Temp\ccQX4l3e.s 			page 1


   1              		.cpu cortex-m4
   2              		.arch armv7e-m
   3              		.fpu fpv4-sp-d16
   4              		.eabi_attribute 27, 1
   5              		.eabi_attribute 28, 1
   6              		.eabi_attribute 20, 1
   7              		.eabi_attribute 21, 1
   8              		.eabi_attribute 23, 3
   9              		.eabi_attribute 24, 1
  10              		.eabi_attribute 25, 1
  11              		.eabi_attribute 26, 1
  12              		.eabi_attribute 30, 1
  13              		.eabi_attribute 34, 1
  14              		.eabi_attribute 18, 4
  15              		.file	"control.c"
  16              		.text
  17              		.global	__aeabi_f2d
  18              		.global	__aeabi_dmul
  19              		.global	__aeabi_d2f
  20              		.global	__aeabi_ddiv
  21              		.section	.text.GetDef,"ax",%progbits
  22              		.align	1
  23              		.global	GetDef
  24              		.syntax unified
  25              		.thumb
  26              		.thumb_func
  28              	GetDef:
  29              		@ args = 0, pretend = 0, frame = 0
  30              		@ frame_needed = 0, uses_anonymous_args = 0
  31 0000 08B5     		push	{r3, lr}
  32 0002 2DED048B 		vpush.64	{d8, d9}
  33 0006 B0EE608A 		vmov.f32	s16, s1
  34 000a B5EEC00A 		vcmpe.f32	s0, #0
  35 000e F1EE10FA 		vmrs	APSR_nzcv, FPSCR
  36 0012 4AD4     		bmi	.L9
  37              	.L2:
  38 0014 B5EEC08A 		vcmpe.f32	s16, #0
  39 0018 F1EE10FA 		vmrs	APSR_nzcv, FPSCR
  40 001c 48D4     		bmi	.L10
  41              	.L4:
  42 001e DFED288A 		vldr.32	s17, .L11+8
  43 0022 C0EE287A 		vdiv.f32	s15, s0, s17
  44 0026 17EE900A 		vmov	r0, s15
  45 002a FFF7FEFF 		bl	__aeabi_f2d
  46 002e 22A3     		adr	r3, .L11
  47 0030 D3E90023 		ldrd	r2, [r3]
  48 0034 FFF7FEFF 		bl	__aeabi_dmul
  49 0038 FFF7FEFF 		bl	__aeabi_d2f
  50 003c 09EE100A 		vmov	s18, r0
  51 0040 C8EE287A 		vdiv.f32	s15, s16, s17
  52 0044 17EE900A 		vmov	r0, s15
  53 0048 FFF7FEFF 		bl	__aeabi_f2d
  54 004c 1AA3     		adr	r3, .L11
  55 004e D3E90023 		ldrd	r2, [r3]
  56 0052 FFF7FEFF 		bl	__aeabi_dmul
  57 0056 FFF7FEFF 		bl	__aeabi_d2f
  58 005a 08EE900A 		vmov	s17, r0
ARM GAS  C:\Users\ktkuru\AppData\Local\Temp\ccQX4l3e.s 			page 2


  59 005e B0EE490A 		vmov.f32	s0, s18
  60 0062 FFF7FEFF 		bl	tanf
  61 0066 20EE008A 		vmul.f32	s16, s0, s0
  62 006a B0EE680A 		vmov.f32	s0, s17
  63 006e FFF7FEFF 		bl	tanf
  64 0072 20EE000A 		vmul.f32	s0, s0, s0
  65 0076 38EE000A 		vadd.f32	s0, s16, s0
  66 007a FFF7FEFF 		bl	sqrtf
  67 007e FFF7FEFF 		bl	atanf
  68 0082 10EE100A 		vmov	r0, s0
  69 0086 FFF7FEFF 		bl	__aeabi_f2d
  70 008a 0022     		movs	r2, #0
  71 008c 0D4B     		ldr	r3, .L11+12
  72 008e FFF7FEFF 		bl	__aeabi_dmul
  73 0092 09A3     		adr	r3, .L11
  74 0094 D3E90023 		ldrd	r2, [r3]
  75 0098 FFF7FEFF 		bl	__aeabi_ddiv
  76 009c FFF7FEFF 		bl	__aeabi_d2f
  77 00a0 094B     		ldr	r3, .L11+16
  78 00a2 1860     		str	r0, [r3]	@ float
  79 00a4 BDEC048B 		vldm	sp!, {d8-d9}
  80 00a8 08BD     		pop	{r3, pc}
  81              	.L9:
  82 00aa B1EE400A 		vneg.f32	s0, s0
  83 00ae B1E7     		b	.L2
  84              	.L10:
  85 00b0 B1EE488A 		vneg.f32	s16, s16
  86 00b4 B3E7     		b	.L4
  87              	.L12:
  88 00b6 00BF     		.align	3
  89              	.L11:
  90 00b8 4AD8124D 		.word	1293080650
  91 00bc FB210940 		.word	1074340347
  92 00c0 00003443 		.word	1127481344
  93 00c4 00806640 		.word	1080459264
  94 00c8 00000000 		.word	def
  96              		.global	__aeabi_dcmplt
  97              		.global	__aeabi_dcmpgt
  98              		.section	.text.PidControl_Stop,"ax",%progbits
  99              		.align	1
 100              		.global	PidControl_Stop
 101              		.syntax unified
 102              		.thumb
 103              		.thumb_func
 105              	PidControl_Stop:
 106              		@ args = 0, pretend = 0, frame = 0
 107              		@ frame_needed = 0, uses_anonymous_args = 0
 108 0000 38B5     		push	{r3, r4, r5, lr}
 109 0002 2DED028B 		vpush.64	{d8}
 110 0006 30EE608A 		vsub.f32	s16, s0, s1
 111 000a 334B     		ldr	r3, .L27+16
 112 000c 83ED008A 		vstr.32	s16, [r3]
 113 0010 324B     		ldr	r3, .L27+20
 114 0012 D3ED007A 		vldr.32	s15, [r3]
 115 0016 77EE887A 		vadd.f32	s15, s15, s16
 116 001a C3ED007A 		vstr.32	s15, [r3]
 117 001e 304B     		ldr	r3, .L27+24
ARM GAS  C:\Users\ktkuru\AppData\Local\Temp\ccQX4l3e.s 			page 3


 118 0020 1868     		ldr	r0, [r3]	@ float
 119 0022 FFF7FEFF 		bl	__aeabi_f2d
 120 0026 0446     		mov	r4, r0
 121 0028 0D46     		mov	r5, r1
 122 002a 27A3     		adr	r3, .L27
 123 002c D3E90023 		ldrd	r2, [r3]
 124 0030 FFF7FEFF 		bl	__aeabi_dcmplt
 125 0034 50B1     		cbz	r0, .L14
 126 0036 26A3     		adr	r3, .L27+8
 127 0038 D3E90023 		ldrd	r2, [r3]
 128 003c 2046     		mov	r0, r4
 129 003e 2946     		mov	r1, r5
 130 0040 FFF7FEFF 		bl	__aeabi_dcmpgt
 131 0044 10B1     		cbz	r0, .L14
 132 0046 254B     		ldr	r3, .L27+20
 133 0048 0022     		movs	r2, #0
 134 004a 1A60     		str	r2, [r3]	@ float
 135              	.L14:
 136 004c 234B     		ldr	r3, .L27+20
 137 004e D3ED007A 		vldr.32	s15, [r3]
 138 0052 9FED247A 		vldr.32	s14, .L27+28
 139 0056 F4EEC77A 		vcmpe.f32	s15, s14
 140 005a F1EE10FA 		vmrs	APSR_nzcv, FPSCR
 141 005e 27D5     		bpl	.L25
 142 0060 83ED007A 		vstr.32	s14, [r3]
 143              	.L19:
 144 0064 204B     		ldr	r3, .L27+32
 145 0066 D3ED007A 		vldr.32	s15, [r3]
 146 006a 78EE677A 		vsub.f32	s15, s16, s15
 147 006e 1F4A     		ldr	r2, .L27+36
 148 0070 C2ED007A 		vstr.32	s15, [r2]
 149 0074 1E4A     		ldr	r2, .L27+40
 150 0076 92ED000A 		vldr.32	s0, [r2]
 151 007a 28EE000A 		vmul.f32	s0, s16, s0
 152 007e 1D4A     		ldr	r2, .L27+44
 153 0080 92ED007A 		vldr.32	s14, [r2]
 154 0084 154A     		ldr	r2, .L27+20
 155 0086 D2ED006A 		vldr.32	s13, [r2]
 156 008a 27EE267A 		vmul.f32	s14, s14, s13
 157 008e 30EE070A 		vadd.f32	s0, s0, s14
 158 0092 194A     		ldr	r2, .L27+48
 159 0094 92ED007A 		vldr.32	s14, [r2]
 160 0098 67EE877A 		vmul.f32	s15, s15, s14
 161 009c 30EE270A 		vadd.f32	s0, s0, s15
 162 00a0 164A     		ldr	r2, .L27+52
 163 00a2 82ED000A 		vstr.32	s0, [r2]
 164 00a6 83ED008A 		vstr.32	s16, [r3]
 165 00aa BDEC028B 		vldm	sp!, {d8}
 166 00ae 38BD     		pop	{r3, r4, r5, pc}
 167              	.L25:
 168 00b0 9FED137A 		vldr.32	s14, .L27+56
 169 00b4 F4EEC77A 		vcmpe.f32	s15, s14
 170 00b8 F1EE10FA 		vmrs	APSR_nzcv, FPSCR
 171 00bc D2DD     		ble	.L19
 172 00be 074B     		ldr	r3, .L27+20
 173 00c0 83ED007A 		vstr.32	s14, [r3]
 174 00c4 CEE7     		b	.L19
ARM GAS  C:\Users\ktkuru\AppData\Local\Temp\ccQX4l3e.s 			page 4


 175              	.L28:
 176 00c6 00BF     		.align	3
 177              	.L27:
 178 00c8 EC51B81E 		.word	515396076
 179 00cc 85EB1C40 		.word	1075637125
 180 00d0 0AD7A370 		.word	1889785610
 181 00d4 3D0A1C40 		.word	1075579453
 182 00d8 00000000 		.word	T4Serror.6
 183 00dc 00000000 		.word	T4Sintegral.5
 184 00e0 00000000 		.word	def
 185 00e4 004003C6 		.word	-972865536
 186 00e8 00000000 		.word	T4SlastError.2
 187 00ec 00000000 		.word	T4Sderivative.1
 188 00f0 00000000 		.word	T4SKp
 189 00f4 00000000 		.word	T4SKi
 190 00f8 00000000 		.word	T4SKd
 191 00fc 00000000 		.word	output.0
 192 0100 00400346 		.word	1174618112
 194              		.section	.rodata.Motor_PWM_TIM8_Init.str1.4,"aMS",%progbits,1
 195              		.align	2
 196              	.LC0:
 197 0000 2D3E4D6F 		.ascii	"->Motor->TIM8_OC1_OC2_OC3_OC4 Init  done\000"
 197      746F722D 
 197      3E54494D 
 197      385F4F43 
 197      315F4F43 
 198 0029 000000   		.align	2
 199              	.LC1:
 200 002c 2D3E4D6F 		.ascii	"->Motor->TIM1_TIM8 Enable  done\000"
 200      746F722D 
 200      3E54494D 
 200      315F5449 
 200      4D382045 
 201              		.section	.text.Motor_PWM_TIM8_Init,"ax",%progbits
 202              		.align	1
 203              		.global	Motor_PWM_TIM8_Init
 204              		.syntax unified
 205              		.thumb
 206              		.thumb_func
 208              	Motor_PWM_TIM8_Init:
 209              		@ args = 0, pretend = 0, frame = 32
 210              		@ frame_needed = 0, uses_anonymous_args = 0
 211 0000 70B5     		push	{r4, r5, r6, lr}
 212 0002 88B0     		sub	sp, sp, #32
 213 0004 0121     		movs	r1, #1
 214 0006 0220     		movs	r0, #2
 215 0008 FFF7FEFF 		bl	RCC_APB2PeriphClockCmd
 216 000c 0121     		movs	r1, #1
 217 000e 0420     		movs	r0, #4
 218 0010 FFF7FEFF 		bl	RCC_AHB1PeriphClockCmd
 219 0014 384C     		ldr	r4, .L31
 220 0016 0023     		movs	r3, #0
 221 0018 0222     		movs	r2, #2
 222 001a 4FF47071 		mov	r1, #960
 223 001e 2046     		mov	r0, r4
 224 0020 FFF7FEFF 		bl	GPIO_Config
 225 0024 0322     		movs	r2, #3
ARM GAS  C:\Users\ktkuru\AppData\Local\Temp\ccQX4l3e.s 			page 5


 226 0026 0621     		movs	r1, #6
 227 0028 2046     		mov	r0, r4
 228 002a FFF7FEFF 		bl	GPIO_PinAFConfig
 229 002e 0322     		movs	r2, #3
 230 0030 0721     		movs	r1, #7
 231 0032 2046     		mov	r0, r4
 232 0034 FFF7FEFF 		bl	GPIO_PinAFConfig
 233 0038 0322     		movs	r2, #3
 234 003a 0821     		movs	r1, #8
 235 003c 2046     		mov	r0, r4
 236 003e FFF7FEFF 		bl	GPIO_PinAFConfig
 237 0042 0322     		movs	r2, #3
 238 0044 0921     		movs	r1, #9
 239 0046 2046     		mov	r0, r4
 240 0048 FFF7FEFF 		bl	GPIO_PinAFConfig
 241 004c 42F2CF03 		movw	r3, #8399
 242 0050 0693     		str	r3, [sp, #24]
 243 0052 0126     		movs	r6, #1
 244 0054 ADF81460 		strh	r6, [sp, #20]	@ movhi
 245 0058 0025     		movs	r5, #0
 246 005a ADF81C50 		strh	r5, [sp, #28]	@ movhi
 247 005e ADF81650 		strh	r5, [sp, #22]	@ movhi
 248 0062 A4F58234 		sub	r4, r4, #66560
 249 0066 05A9     		add	r1, sp, #20
 250 0068 2046     		mov	r0, r4
 251 006a FFF7FEFF 		bl	TIM_TimeBaseInit
 252 006e 6023     		movs	r3, #96
 253 0070 ADF80030 		strh	r3, [sp]	@ movhi
 254 0074 ADF80260 		strh	r6, [sp, #2]	@ movhi
 255 0078 ADF80450 		strh	r5, [sp, #4]	@ movhi
 256 007c 0295     		str	r5, [sp, #8]
 257 007e ADF80C50 		strh	r5, [sp, #12]	@ movhi
 258 0082 ADF80E50 		strh	r5, [sp, #14]	@ movhi
 259 0086 ADF81050 		strh	r5, [sp, #16]	@ movhi
 260 008a ADF81250 		strh	r5, [sp, #18]	@ movhi
 261 008e 6946     		mov	r1, sp
 262 0090 2046     		mov	r0, r4
 263 0092 FFF7FEFF 		bl	TIM_OC1Init
 264 0096 6946     		mov	r1, sp
 265 0098 2046     		mov	r0, r4
 266 009a FFF7FEFF 		bl	TIM_OC2Init
 267 009e 6946     		mov	r1, sp
 268 00a0 2046     		mov	r0, r4
 269 00a2 FFF7FEFF 		bl	TIM_OC3Init
 270 00a6 6946     		mov	r1, sp
 271 00a8 2046     		mov	r0, r4
 272 00aa FFF7FEFF 		bl	TIM_OC4Init
 273 00ae 0821     		movs	r1, #8
 274 00b0 2046     		mov	r0, r4
 275 00b2 FFF7FEFF 		bl	TIM_OC1PreloadConfig
 276 00b6 0821     		movs	r1, #8
 277 00b8 2046     		mov	r0, r4
 278 00ba FFF7FEFF 		bl	TIM_OC2PreloadConfig
 279 00be 0821     		movs	r1, #8
 280 00c0 2046     		mov	r0, r4
 281 00c2 FFF7FEFF 		bl	TIM_OC3PreloadConfig
 282 00c6 0821     		movs	r1, #8
ARM GAS  C:\Users\ktkuru\AppData\Local\Temp\ccQX4l3e.s 			page 6


 283 00c8 2046     		mov	r0, r4
 284 00ca FFF7FEFF 		bl	TIM_OC4PreloadConfig
 285 00ce 3146     		mov	r1, r6
 286 00d0 2046     		mov	r0, r4
 287 00d2 FFF7FEFF 		bl	TIM_ARRPreloadConfig
 288 00d6 0948     		ldr	r0, .L31+4
 289 00d8 FFF7FEFF 		bl	puts
 290 00dc 3146     		mov	r1, r6
 291 00de 2046     		mov	r0, r4
 292 00e0 FFF7FEFF 		bl	TIM_CtrlPWMOutputs
 293 00e4 3146     		mov	r1, r6
 294 00e6 2046     		mov	r0, r4
 295 00e8 FFF7FEFF 		bl	TIM_Cmd
 296 00ec 0448     		ldr	r0, .L31+8
 297 00ee FFF7FEFF 		bl	puts
 298 00f2 08B0     		add	sp, sp, #32
 299              		@ sp needed
 300 00f4 70BD     		pop	{r4, r5, r6, pc}
 301              	.L32:
 302 00f6 00BF     		.align	2
 303              	.L31:
 304 00f8 00080240 		.word	1073874944
 305 00fc 00000000 		.word	.LC0
 306 0100 2C000000 		.word	.LC1
 308              		.section	.text.Motor_Cmd,"ax",%progbits
 309              		.align	1
 310              		.global	Motor_Cmd
 311              		.syntax unified
 312              		.thumb
 313              		.thumb_func
 315              	Motor_Cmd:
 316              		@ args = 0, pretend = 0, frame = 0
 317              		@ frame_needed = 0, uses_anonymous_args = 0
 318              		@ link register save eliminated.
 319 0000 0428     		cmp	r0, #4
 320 0002 5AD8     		bhi	.L33
 321 0004 DFE800F0 		tbb	[pc, r0]
 322              	.L36:
 323 0008 47       		.byte	(.L40-.L36)/2
 324 0009 36       		.byte	(.L39-.L36)/2
 325 000a 25       		.byte	(.L38-.L36)/2
 326 000b 03       		.byte	(.L37-.L36)/2
 327 000c 14       		.byte	(.L35-.L36)/2
 328 000d 00       		.p2align 1
 329              	.L37:
 330 000e 0129     		cmp	r1, #1
 331 0010 06D0     		beq	.L46
 332 0012 2A4B     		ldr	r3, .L50
 333 0014 0022     		movs	r2, #0
 334 0016 C3F89822 		str	r2, [r3, #664]
 335 001a C3F89C22 		str	r2, [r3, #668]
 336 001e 7047     		bx	lr
 337              	.L46:
 338 0020 264B     		ldr	r3, .L50
 339 0022 0022     		movs	r2, #0
 340 0024 C3F89822 		str	r2, [r3, #664]
 341 0028 0122     		movs	r2, #1
ARM GAS  C:\Users\ktkuru\AppData\Local\Temp\ccQX4l3e.s 			page 7


 342 002a C3F89C22 		str	r2, [r3, #668]
 343 002e 7047     		bx	lr
 344              	.L35:
 345 0030 0129     		cmp	r1, #1
 346 0032 06D0     		beq	.L47
 347 0034 214B     		ldr	r3, .L50
 348 0036 0022     		movs	r2, #0
 349 0038 C3F89022 		str	r2, [r3, #656]
 350 003c C3F89422 		str	r2, [r3, #660]
 351 0040 7047     		bx	lr
 352              	.L47:
 353 0042 1E4B     		ldr	r3, .L50
 354 0044 0122     		movs	r2, #1
 355 0046 C3F89022 		str	r2, [r3, #656]
 356 004a 0022     		movs	r2, #0
 357 004c C3F89422 		str	r2, [r3, #660]
 358 0050 7047     		bx	lr
 359              	.L38:
 360 0052 0129     		cmp	r1, #1
 361 0054 06D0     		beq	.L48
 362 0056 194B     		ldr	r3, .L50
 363 0058 0022     		movs	r2, #0
 364 005a C3F88822 		str	r2, [r3, #648]
 365 005e C3F88C22 		str	r2, [r3, #652]
 366 0062 7047     		bx	lr
 367              	.L48:
 368 0064 154B     		ldr	r3, .L50
 369 0066 0022     		movs	r2, #0
 370 0068 C3F88822 		str	r2, [r3, #648]
 371 006c 0122     		movs	r2, #1
 372 006e C3F88C22 		str	r2, [r3, #652]
 373 0072 7047     		bx	lr
 374              	.L39:
 375 0074 0129     		cmp	r1, #1
 376 0076 06D0     		beq	.L49
 377 0078 104B     		ldr	r3, .L50
 378 007a 0022     		movs	r2, #0
 379 007c C3F88022 		str	r2, [r3, #640]
 380 0080 C3F88422 		str	r2, [r3, #644]
 381 0084 7047     		bx	lr
 382              	.L49:
 383 0086 0D4B     		ldr	r3, .L50
 384 0088 0022     		movs	r2, #0
 385 008a C3F88022 		str	r2, [r3, #640]
 386 008e 0122     		movs	r2, #1
 387 0090 C3F88422 		str	r2, [r3, #644]
 388 0094 7047     		bx	lr
 389              	.L40:
 390 0096 094B     		ldr	r3, .L50
 391 0098 0022     		movs	r2, #0
 392 009a C3F88022 		str	r2, [r3, #640]
 393 009e C3F88422 		str	r2, [r3, #644]
 394 00a2 C3F88822 		str	r2, [r3, #648]
 395 00a6 C3F88C22 		str	r2, [r3, #652]
 396 00aa C3F89022 		str	r2, [r3, #656]
 397 00ae C3F89422 		str	r2, [r3, #660]
 398 00b2 C3F89822 		str	r2, [r3, #664]
ARM GAS  C:\Users\ktkuru\AppData\Local\Temp\ccQX4l3e.s 			page 8


 399 00b6 C3F89C22 		str	r2, [r3, #668]
 400              	.L33:
 401 00ba 7047     		bx	lr
 402              	.L51:
 403              		.align	2
 404              	.L50:
 405 00bc 00804242 		.word	1111654400
 407              		.section	.text.StopAllMotor,"ax",%progbits
 408              		.align	1
 409              		.global	StopAllMotor
 410              		.syntax unified
 411              		.thumb
 412              		.thumb_func
 414              	StopAllMotor:
 415              		@ args = 0, pretend = 0, frame = 0
 416              		@ frame_needed = 0, uses_anonymous_args = 0
 417 0000 08B5     		push	{r3, lr}
 418 0002 064B     		ldr	r3, .L56
 419 0004 1B78     		ldrb	r3, [r3]	@ zero_extendqisi2
 420 0006 23B1     		cbz	r3, .L53
 421 0008 0021     		movs	r1, #0
 422 000a 0846     		mov	r0, r1
 423 000c FFF7FEFF 		bl	Motor_Cmd
 424              	.L54:
 425 0010 FEE7     		b	.L54
 426              	.L53:
 427 0012 0121     		movs	r1, #1
 428 0014 0020     		movs	r0, #0
 429 0016 FFF7FEFF 		bl	Motor_Cmd
 430 001a 08BD     		pop	{r3, pc}
 431              	.L57:
 432              		.align	2
 433              	.L56:
 434 001c 00000000 		.word	Stop_flag
 436              		.section	.text.MotorState,"ax",%progbits
 437              		.align	1
 438              		.global	MotorState
 439              		.syntax unified
 440              		.thumb
 441              		.thumb_func
 443              	MotorState:
 444              		@ args = 0, pretend = 0, frame = 0
 445              		@ frame_needed = 0, uses_anonymous_args = 0
 446 0000 08B5     		push	{r3, lr}
 447 0002 F5EEC00A 		vcmpe.f32	s1, #0
 448 0006 F1EE10FA 		vmrs	APSR_nzcv, FPSCR
 449 000a 09DD     		ble	.L59
 450 000c B5EEC00A 		vcmpe.f32	s0, #0
 451 0010 F1EE10FA 		vmrs	APSR_nzcv, FPSCR
 452 0014 18DC     		bgt	.L79
 453 0016 B5EEC00A 		vcmpe.f32	s0, #0
 454 001a F1EE10FA 		vmrs	APSR_nzcv, FPSCR
 455 001e 24D4     		bmi	.L80
 456              	.L59:
 457 0020 F5EEC00A 		vcmpe.f32	s1, #0
 458 0024 F1EE10FA 		vmrs	APSR_nzcv, FPSCR
 459 0028 09D5     		bpl	.L65
ARM GAS  C:\Users\ktkuru\AppData\Local\Temp\ccQX4l3e.s 			page 9


 460 002a B5EEC00A 		vcmpe.f32	s0, #0
 461 002e F1EE10FA 		vmrs	APSR_nzcv, FPSCR
 462 0032 2BDC     		bgt	.L81
 463 0034 B5EEC00A 		vcmpe.f32	s0, #0
 464 0038 F1EE10FA 		vmrs	APSR_nzcv, FPSCR
 465 003c 37D4     		bmi	.L82
 466              	.L65:
 467 003e 0021     		movs	r1, #0
 468 0040 0846     		mov	r0, r1
 469 0042 FFF7FEFF 		bl	Motor_Cmd
 470              	.L58:
 471 0046 08BD     		pop	{r3, pc}
 472              	.L79:
 473 0048 0021     		movs	r1, #0
 474 004a 0320     		movs	r0, #3
 475 004c FFF7FEFF 		bl	Motor_Cmd
 476 0050 0121     		movs	r1, #1
 477 0052 0420     		movs	r0, #4
 478 0054 FFF7FEFF 		bl	Motor_Cmd
 479 0058 0121     		movs	r1, #1
 480 005a 0220     		movs	r0, #2
 481 005c FFF7FEFF 		bl	Motor_Cmd
 482 0060 0021     		movs	r1, #0
 483 0062 0120     		movs	r0, #1
 484 0064 FFF7FEFF 		bl	Motor_Cmd
 485 0068 EDE7     		b	.L58
 486              	.L80:
 487 006a 0121     		movs	r1, #1
 488 006c 0320     		movs	r0, #3
 489 006e FFF7FEFF 		bl	Motor_Cmd
 490 0072 0021     		movs	r1, #0
 491 0074 0420     		movs	r0, #4
 492 0076 FFF7FEFF 		bl	Motor_Cmd
 493 007a 0121     		movs	r1, #1
 494 007c 0220     		movs	r0, #2
 495 007e FFF7FEFF 		bl	Motor_Cmd
 496 0082 0021     		movs	r1, #0
 497 0084 0120     		movs	r0, #1
 498 0086 FFF7FEFF 		bl	Motor_Cmd
 499 008a DCE7     		b	.L58
 500              	.L81:
 501 008c 0021     		movs	r1, #0
 502 008e 0320     		movs	r0, #3
 503 0090 FFF7FEFF 		bl	Motor_Cmd
 504 0094 0121     		movs	r1, #1
 505 0096 0420     		movs	r0, #4
 506 0098 FFF7FEFF 		bl	Motor_Cmd
 507 009c 0021     		movs	r1, #0
 508 009e 0220     		movs	r0, #2
 509 00a0 FFF7FEFF 		bl	Motor_Cmd
 510 00a4 0121     		movs	r1, #1
 511 00a6 0846     		mov	r0, r1
 512 00a8 FFF7FEFF 		bl	Motor_Cmd
 513 00ac CBE7     		b	.L58
 514              	.L82:
 515 00ae 0121     		movs	r1, #1
 516 00b0 0320     		movs	r0, #3
ARM GAS  C:\Users\ktkuru\AppData\Local\Temp\ccQX4l3e.s 			page 10


 517 00b2 FFF7FEFF 		bl	Motor_Cmd
 518 00b6 0021     		movs	r1, #0
 519 00b8 0420     		movs	r0, #4
 520 00ba FFF7FEFF 		bl	Motor_Cmd
 521 00be 0021     		movs	r1, #0
 522 00c0 0220     		movs	r0, #2
 523 00c2 FFF7FEFF 		bl	Motor_Cmd
 524 00c6 0121     		movs	r1, #1
 525 00c8 0846     		mov	r0, r1
 526 00ca FFF7FEFF 		bl	Motor_Cmd
 527 00ce BAE7     		b	.L58
 529              		.section	.bss.output.0,"aw",%nobits
 530              		.align	2
 533              	output.0:
 534 0000 00000000 		.space	4
 535              		.section	.bss.T4Sderivative.1,"aw",%nobits
 536              		.align	2
 539              	T4Sderivative.1:
 540 0000 00000000 		.space	4
 541              		.section	.bss.T4SlastError.2,"aw",%nobits
 542              		.align	2
 545              	T4SlastError.2:
 546 0000 00000000 		.space	4
 547              		.section	.bss.T4Sintegral.5,"aw",%nobits
 548              		.align	2
 551              	T4Sintegral.5:
 552 0000 00000000 		.space	4
 553              		.section	.bss.T4Serror.6,"aw",%nobits
 554              		.align	2
 557              	T4Serror.6:
 558 0000 00000000 		.space	4
 559              		.ident	"GCC: (Arm GNU Toolchain 13.3.Rel1 (Build arm-13.24)) 13.3.1 20240614"
ARM GAS  C:\Users\ktkuru\AppData\Local\Temp\ccQX4l3e.s 			page 11


DEFINED SYMBOLS
                            *ABS*:00000000 control.c
C:\Users\ktkuru\AppData\Local\Temp\ccQX4l3e.s:22     .text.GetDef:00000000 $t
C:\Users\ktkuru\AppData\Local\Temp\ccQX4l3e.s:28     .text.GetDef:00000000 GetDef
C:\Users\ktkuru\AppData\Local\Temp\ccQX4l3e.s:90     .text.GetDef:000000b8 $d
C:\Users\ktkuru\AppData\Local\Temp\ccQX4l3e.s:99     .text.PidControl_Stop:00000000 $t
C:\Users\ktkuru\AppData\Local\Temp\ccQX4l3e.s:105    .text.PidControl_Stop:00000000 PidControl_Stop
C:\Users\ktkuru\AppData\Local\Temp\ccQX4l3e.s:178    .text.PidControl_Stop:000000c8 $d
C:\Users\ktkuru\AppData\Local\Temp\ccQX4l3e.s:557    .bss.T4Serror.6:00000000 T4Serror.6
C:\Users\ktkuru\AppData\Local\Temp\ccQX4l3e.s:551    .bss.T4Sintegral.5:00000000 T4Sintegral.5
C:\Users\ktkuru\AppData\Local\Temp\ccQX4l3e.s:545    .bss.T4SlastError.2:00000000 T4SlastError.2
C:\Users\ktkuru\AppData\Local\Temp\ccQX4l3e.s:539    .bss.T4Sderivative.1:00000000 T4Sderivative.1
C:\Users\ktkuru\AppData\Local\Temp\ccQX4l3e.s:533    .bss.output.0:00000000 output.0
C:\Users\ktkuru\AppData\Local\Temp\ccQX4l3e.s:195    .rodata.Motor_PWM_TIM8_Init.str1.4:00000000 $d
C:\Users\ktkuru\AppData\Local\Temp\ccQX4l3e.s:202    .text.Motor_PWM_TIM8_Init:00000000 $t
C:\Users\ktkuru\AppData\Local\Temp\ccQX4l3e.s:208    .text.Motor_PWM_TIM8_Init:00000000 Motor_PWM_TIM8_Init
C:\Users\ktkuru\AppData\Local\Temp\ccQX4l3e.s:304    .text.Motor_PWM_TIM8_Init:000000f8 $d
C:\Users\ktkuru\AppData\Local\Temp\ccQX4l3e.s:309    .text.Motor_Cmd:00000000 $t
C:\Users\ktkuru\AppData\Local\Temp\ccQX4l3e.s:315    .text.Motor_Cmd:00000000 Motor_Cmd
C:\Users\ktkuru\AppData\Local\Temp\ccQX4l3e.s:323    .text.Motor_Cmd:00000008 $d
C:\Users\ktkuru\AppData\Local\Temp\ccQX4l3e.s:405    .text.Motor_Cmd:000000bc $d
C:\Users\ktkuru\AppData\Local\Temp\ccQX4l3e.s:408    .text.StopAllMotor:00000000 $t
C:\Users\ktkuru\AppData\Local\Temp\ccQX4l3e.s:414    .text.StopAllMotor:00000000 StopAllMotor
C:\Users\ktkuru\AppData\Local\Temp\ccQX4l3e.s:434    .text.StopAllMotor:0000001c $d
C:\Users\ktkuru\AppData\Local\Temp\ccQX4l3e.s:437    .text.MotorState:00000000 $t
C:\Users\ktkuru\AppData\Local\Temp\ccQX4l3e.s:443    .text.MotorState:00000000 MotorState
C:\Users\ktkuru\AppData\Local\Temp\ccQX4l3e.s:530    .bss.output.0:00000000 $d
C:\Users\ktkuru\AppData\Local\Temp\ccQX4l3e.s:536    .bss.T4Sderivative.1:00000000 $d
C:\Users\ktkuru\AppData\Local\Temp\ccQX4l3e.s:542    .bss.T4SlastError.2:00000000 $d
C:\Users\ktkuru\AppData\Local\Temp\ccQX4l3e.s:548    .bss.T4Sintegral.5:00000000 $d
C:\Users\ktkuru\AppData\Local\Temp\ccQX4l3e.s:554    .bss.T4Serror.6:00000000 $d
C:\Users\ktkuru\AppData\Local\Temp\ccQX4l3e.s:328    .text.Motor_Cmd:0000000d $d
C:\Users\ktkuru\AppData\Local\Temp\ccQX4l3e.s:328    .text.Motor_Cmd:0000000e $t

UNDEFINED SYMBOLS
__aeabi_f2d
__aeabi_dmul
__aeabi_d2f
__aeabi_ddiv
tanf
sqrtf
atanf
def
__aeabi_dcmplt
__aeabi_dcmpgt
T4SKp
T4SKi
T4SKd
RCC_APB2PeriphClockCmd
RCC_AHB1PeriphClockCmd
GPIO_Config
GPIO_PinAFConfig
TIM_TimeBaseInit
TIM_OC1Init
TIM_OC2Init
TIM_OC3Init
TIM_OC4Init
ARM GAS  C:\Users\ktkuru\AppData\Local\Temp\ccQX4l3e.s 			page 12


TIM_OC1PreloadConfig
TIM_OC2PreloadConfig
TIM_OC3PreloadConfig
TIM_OC4PreloadConfig
TIM_ARRPreloadConfig
puts
TIM_CtrlPWMOutputs
TIM_Cmd
Stop_flag
