ARM GAS  C:\Users\ktkuru\AppData\Local\Temp\ccBhUN5S.s 			page 1


   1              		.cpu cortex-m4
   2              		.arch armv7e-m
   3              		.fpu fpv4-sp-d16
   4              		.eabi_attribute 27, 1
   5              		.eabi_attribute 28, 1
   6              		.eabi_attribute 20, 1
   7              		.eabi_attribute 21, 1
   8              		.eabi_attribute 23, 3
   9              		.eabi_attribute 24, 1
  10              		.eabi_attribute 25, 1
  11              		.eabi_attribute 26, 1
  12              		.eabi_attribute 30, 1
  13              		.eabi_attribute 34, 1
  14              		.eabi_attribute 18, 4
  15              		.file	"Control_Task.c"
  16              		.text
  17              		.section	.text.Task4_StopFast,"ax",%progbits
  18              		.align	1
  19              		.global	Task4_StopFast
  20              		.syntax unified
  21              		.thumb
  22              		.thumb_func
  24              	Task4_StopFast:
  25              		@ args = 0, pretend = 0, frame = 0
  26              		@ frame_needed = 0, uses_anonymous_args = 0
  27 0000 08B5     		push	{r3, lr}
  28 0002 0B4B     		ldr	r3, .L3
  29 0004 D3ED000A 		vldr.32	s1, [r3]
  30 0008 0A4B     		ldr	r3, .L3+4
  31 000a 93ED000A 		vldr.32	s0, [r3]
  32 000e FFF7FEFF 		bl	GetPolar
  33 0012 0948     		ldr	r0, .L3+8
  34 0014 C368     		ldr	r3, [r0, #12]
  35 0016 094A     		ldr	r2, .L3+12
  36 0018 D2ED000A 		vldr.32	s1, [r2]
  37 001c 9FED080A 		vldr.32	s0, .L3+16
  38 0020 9847     		blx	r3
  39 0022 084B     		ldr	r3, .L3+20
  40 0024 83ED000A 		vstr.32	s0, [r3]
  41 0028 FFF7FEFF 		bl	PWM_Allocation
  42 002c 08BD     		pop	{r3, pc}
  43              	.L4:
  44 002e 00BF     		.align	2
  45              	.L3:
  46 0030 00000000 		.word	pitch
  47 0034 00000000 		.word	roll
  48 0038 00000000 		.word	Taks4Pid.30
  49 003c 00000000 		.word	dis
  50 0040 00000000 		.word	0
  51 0044 00000000 		.word	Output.29
  53              		.global	__aeabi_f2d
  54              		.global	__aeabi_ddiv
  55              		.global	__aeabi_d2f
  56              		.global	__aeabi_dmul
  57              		.global	__aeabi_dcmple
  58              		.global	__aeabi_dcmpge
  59              		.global	__aeabi_dadd
ARM GAS  C:\Users\ktkuru\AppData\Local\Temp\ccBhUN5S.s 			page 2


  60              		.global	__aeabi_dcmplt
  61              		.section	.text.Task1_LineMove,"ax",%progbits
  62              		.align	1
  63              		.global	Task1_LineMove
  64              		.syntax unified
  65              		.thumb
  66              		.thumb_func
  68              	Task1_LineMove:
  69              		@ args = 0, pretend = 0, frame = 0
  70              		@ frame_needed = 0, uses_anonymous_args = 0
  71 0000 D0B5     		push	{r4, r6, r7, lr}
  72 0002 2DED028B 		vpush.64	{d8}
  73 0006 0446     		mov	r4, r0
  74 0008 10EE100A 		vmov	r0, s0
  75 000c FFF7FEFF 		bl	__aeabi_f2d
  76 0010 0646     		mov	r6, r0
  77 0012 0F46     		mov	r7, r1
  78 0014 78A3     		adr	r3, .L23+96
  79 0016 D3E90023 		ldrd	r2, [r3]
  80 001a FFF7FEFF 		bl	__aeabi_ddiv
  81 001e FFF7FEFF 		bl	__aeabi_d2f
  82 0022 00EE100A 		vmov	s0, r0
  83 0026 FFF7FEFF 		bl	atanf
  84 002a DFED677A 		vldr.32	s15, .L23+48
  85 002e 60EE277A 		vmul.f32	s15, s0, s15
  86 0032 17EE900A 		vmov	r0, s15
  87 0036 FFF7FEFF 		bl	__aeabi_f2d
  88 003a 57A3     		adr	r3, .L23
  89 003c D3E90023 		ldrd	r2, [r3]
  90 0040 FFF7FEFF 		bl	__aeabi_ddiv
  91 0044 FFF7FEFF 		bl	__aeabi_d2f
  92 0048 08EE100A 		vmov	s16, r0
  93 004c 5F4B     		ldr	r3, .L23+52
  94 004e 1860     		str	r0, [r3]	@ float
  95 0050 5F4B     		ldr	r3, .L23+56
  96 0052 1868     		ldr	r0, [r3]	@ float
  97 0054 FFF7FEFF 		bl	__aeabi_f2d
  98 0058 51A3     		adr	r3, .L23+8
  99 005a D3E90023 		ldrd	r2, [r3]
 100 005e FFF7FEFF 		bl	__aeabi_dmul
 101 0062 51A3     		adr	r3, .L23+16
 102 0064 D3E90023 		ldrd	r2, [r3]
 103 0068 FFF7FEFF 		bl	__aeabi_ddiv
 104 006c FFF7FEFF 		bl	__aeabi_d2f
 105 0070 00EE100A 		vmov	s0, r0
 106 0074 FFF7FEFF 		bl	sinf
 107 0078 28EE008A 		vmul.f32	s16, s16, s0
 108 007c 554B     		ldr	r3, .L23+60
 109 007e 83ED008A 		vstr.32	s16, [r3]
 110 0082 FCB9     		cbnz	r4, .L6
 111 0084 4AA3     		adr	r3, .L23+24
 112 0086 D3E90023 		ldrd	r2, [r3]
 113 008a 3046     		mov	r0, r6
 114 008c 3946     		mov	r1, r7
 115 008e FFF7FEFF 		bl	__aeabi_dcmple
 116 0092 0028     		cmp	r0, #0
 117 0094 46D0     		beq	.L19
ARM GAS  C:\Users\ktkuru\AppData\Local\Temp\ccBhUN5S.s 			page 3


 118 0096 504E     		ldr	r6, .L23+64
 119 0098 F368     		ldr	r3, [r6, #12]
 120 009a 3046     		mov	r0, r6
 121 009c 4F4A     		ldr	r2, .L23+68
 122 009e D2ED000A 		vldr.32	s1, [r2]
 123 00a2 B0EE480A 		vmov.f32	s0, s16
 124 00a6 9847     		blx	r3
 125 00a8 4D4B     		ldr	r3, .L23+72
 126 00aa 83ED000A 		vstr.32	s0, [r3]
 127 00ae F368     		ldr	r3, [r6, #12]
 128 00b0 3046     		mov	r0, r6
 129 00b2 4C4A     		ldr	r2, .L23+76
 130 00b4 D2ED000A 		vldr.32	s1, [r2]
 131 00b8 9FED4B0A 		vldr.32	s0, .L23+80
 132 00bc 9847     		blx	r3
 133 00be 4B4B     		ldr	r3, .L23+84
 134 00c0 83ED000A 		vstr.32	s0, [r3]
 135              	.L6:
 136 00c4 424E     		ldr	r6, .L23+56
 137 00c6 3068     		ldr	r0, [r6]	@ float
 138 00c8 FFF7FEFF 		bl	__aeabi_f2d
 139 00cc 3AA3     		adr	r3, .L23+32
 140 00ce D3E90023 		ldrd	r2, [r3]
 141 00d2 FFF7FEFF 		bl	__aeabi_dadd
 142 00d6 FFF7FEFF 		bl	__aeabi_d2f
 143 00da 3060     		str	r0, [r6]	@ float
 144 00dc FFF7FEFF 		bl	__aeabi_f2d
 145 00e0 31A3     		adr	r3, .L23+16
 146 00e2 D3E90023 		ldrd	r2, [r3]
 147 00e6 FFF7FEFF 		bl	__aeabi_dcmplt
 148 00ea 0028     		cmp	r0, #0
 149 00ec 4ED0     		beq	.L20
 150 00ee 002C     		cmp	r4, #0
 151 00f0 4FD1     		bne	.L5
 152 00f2 3B4B     		ldr	r3, .L23+72
 153 00f4 D3ED007A 		vldr.32	s15, [r3]
 154 00f8 F5EEC07A 		vcmpe.f32	s15, #0
 155 00fc F1EE10FA 		vmrs	APSR_nzcv, FPSCR
 156 0100 31DD     		ble	.L21
 157 0102 0121     		movs	r1, #1
 158 0104 0420     		movs	r0, #4
 159 0106 FFF7FEFF 		bl	Motor_Cmd
 160 010a 0021     		movs	r1, #0
 161 010c 0320     		movs	r0, #3
 162 010e FFF7FEFF 		bl	Motor_Cmd
 163 0112 334B     		ldr	r3, .L23+72
 164 0114 D3ED007A 		vldr.32	s15, [r3]
 165 0118 FCEEE77A 		vcvt.u32.f32	s15, s15
 166 011c 344B     		ldr	r3, .L23+88
 167 011e C3ED107A 		vstr.32	s15, [r3, #64]	@ int
 168 0122 36E0     		b	.L5
 169              	.L19:
 170 0124 26A3     		adr	r3, .L23+40
 171 0126 D3E90023 		ldrd	r2, [r3]
 172 012a 3046     		mov	r0, r6
 173 012c 3946     		mov	r1, r7
 174 012e FFF7FEFF 		bl	__aeabi_dcmpge
ARM GAS  C:\Users\ktkuru\AppData\Local\Temp\ccBhUN5S.s 			page 4


 175 0132 0028     		cmp	r0, #0
 176 0134 C6D0     		beq	.L6
 177 0136 2F4E     		ldr	r6, .L23+92
 178 0138 F368     		ldr	r3, [r6, #12]
 179 013a 3046     		mov	r0, r6
 180 013c 274A     		ldr	r2, .L23+68
 181 013e D2ED000A 		vldr.32	s1, [r2]
 182 0142 B0EE480A 		vmov.f32	s0, s16
 183 0146 9847     		blx	r3
 184 0148 254B     		ldr	r3, .L23+72
 185 014a 83ED000A 		vstr.32	s0, [r3]
 186 014e F368     		ldr	r3, [r6, #12]
 187 0150 3046     		mov	r0, r6
 188 0152 244A     		ldr	r2, .L23+76
 189 0154 D2ED000A 		vldr.32	s1, [r2]
 190 0158 9FED230A 		vldr.32	s0, .L23+80
 191 015c 9847     		blx	r3
 192 015e 234B     		ldr	r3, .L23+84
 193 0160 83ED000A 		vstr.32	s0, [r3]
 194 0164 AEE7     		b	.L6
 195              	.L21:
 196 0166 0021     		movs	r1, #0
 197 0168 0420     		movs	r0, #4
 198 016a FFF7FEFF 		bl	Motor_Cmd
 199 016e 0121     		movs	r1, #1
 200 0170 0320     		movs	r0, #3
 201 0172 FFF7FEFF 		bl	Motor_Cmd
 202 0176 1A4B     		ldr	r3, .L23+72
 203 0178 D3ED007A 		vldr.32	s15, [r3]
 204 017c F1EE677A 		vneg.f32	s15, s15
 205 0180 FCEEE77A 		vcvt.u32.f32	s15, s15
 206 0184 1A4B     		ldr	r3, .L23+88
 207 0186 C3ED0F7A 		vstr.32	s15, [r3, #60]	@ int
 208 018a 02E0     		b	.L5
 209              	.L20:
 210 018c 104B     		ldr	r3, .L23+56
 211 018e 0022     		movs	r2, #0
 212 0190 1A60     		str	r2, [r3]	@ float
 213              	.L5:
 214 0192 BDEC028B 		vldm	sp!, {d8}
 215 0196 D0BD     		pop	{r4, r6, r7, pc}
 216              	.L24:
 217              		.align	3
 218              	.L23:
 219 0198 4AD8124D 		.word	1293080650
 220 019c FB210940 		.word	1074340347
 221 01a0 4AD8124D 		.word	1293080650
 222 01a4 FB211940 		.word	1075388923
 223 01a8 0C022B87 		.word	-2027224564
 224 01ac 16D9FA3F 		.word	1073404182
 225 01b0 7B14AE47 		.word	1202590843
 226 01b4 E17AC43F 		.word	1069841121
 227 01b8 A8734529 		.word	692417448
 228 01bc 2158853F 		.word	1065703457
 229 01c0 C3F5285C 		.word	1546188227
 230 01c4 8FC2C53F 		.word	1069925007
 231 01c8 00003443 		.word	1127481344
ARM GAS  C:\Users\ktkuru\AppData\Local\Temp\ccBhUN5S.s 			page 5


 232 01cc 00000000 		.word	A.28
 233 01d0 00000000 		.word	time.27
 234 01d4 00000000 		.word	target_angle
 235 01d8 00000000 		.word	Taks1Pid1.26
 236 01dc 00000000 		.word	roll
 237 01e0 00000000 		.word	VOutput.25
 238 01e4 00000000 		.word	pitch
 239 01e8 00000000 		.word	0
 240 01ec 00000000 		.word	LOutput.24
 241 01f0 00040140 		.word	1073808384
 242 01f4 00000000 		.word	Taks1Pid2.23
 243 01f8 85EB51B8 		.word	-1202590843
 244 01fc 1E85EB3F 		.word	1072399646
 246              		.section	.text.Task3_AngleMove,"ax",%progbits
 247              		.align	1
 248              		.global	Task3_AngleMove
 249              		.syntax unified
 250              		.thumb
 251              		.thumb_func
 253              	Task3_AngleMove:
 254              		@ args = 0, pretend = 0, frame = 0
 255              		@ frame_needed = 0, uses_anonymous_args = 0
 256 0000 10B5     		push	{r4, lr}
 257 0002 2DED048B 		vpush.64	{d8, d9}
 258 0006 B0EE608A 		vmov.f32	s16, s1
 259 000a DFEDCD7A 		vldr.32	s15, .L146+40
 260 000e B4EEE70A 		vcmpe.f32	s0, s15
 261 0012 F1EE10FA 		vmrs	APSR_nzcv, FPSCR
 262 0016 40F3DB80 		ble	.L115
 263 001a DFEDCA7A 		vldr.32	s15, .L146+44
 264 001e 37EEC00A 		vsub.f32	s0, s15, s0
 265 0022 F3EE0F7A 		vmov.f32	s15, #3.1e+1
 266 0026 B4EEE70A 		vcmpe.f32	s0, s15
 267 002a F1EE10FA 		vmrs	APSR_nzcv, FPSCR
 268 002e 00F2A180 		bhi	.L116
 269 0032 C54B     		ldr	r3, .L146+48
 270 0034 D3ED037A 		vldr.32	s15, [r3, #12]	@ int
 271 0038 F8EEE77A 		vcvt.f32.s32	s15, s15
 272 003c 30EE270A 		vadd.f32	s0, s0, s15
 273 0040 0224     		movs	r4, #2
 274              	.L30:
 275 0042 10EE100A 		vmov	r0, s0
 276 0046 FFF7FEFF 		bl	__aeabi_f2d
 277 004a B3A3     		adr	r3, .L146
 278 004c D3E90023 		ldrd	r2, [r3]
 279 0050 FFF7FEFF 		bl	__aeabi_dmul
 280 0054 0022     		movs	r2, #0
 281 0056 BD4B     		ldr	r3, .L146+52
 282 0058 FFF7FEFF 		bl	__aeabi_ddiv
 283 005c FFF7FEFF 		bl	__aeabi_d2f
 284 0060 08EE900A 		vmov	s17, r0
 285 0064 B0EE680A 		vmov.f32	s0, s17
 286 0068 FFF7FEFF 		bl	cosf
 287 006c 60EE087A 		vmul.f32	s15, s0, s16
 288 0070 17EE900A 		vmov	r0, s15
 289 0074 FFF7FEFF 		bl	__aeabi_f2d
 290 0078 A9A3     		adr	r3, .L146+8
ARM GAS  C:\Users\ktkuru\AppData\Local\Temp\ccBhUN5S.s 			page 6


 291 007a D3E90023 		ldrd	r2, [r3]
 292 007e FFF7FEFF 		bl	__aeabi_ddiv
 293 0082 FFF7FEFF 		bl	__aeabi_d2f
 294 0086 00EE100A 		vmov	s0, r0
 295 008a FFF7FEFF 		bl	atanf
 296 008e 10EE100A 		vmov	r0, s0
 297 0092 FFF7FEFF 		bl	__aeabi_f2d
 298 0096 A0A3     		adr	r3, .L146
 299 0098 D3E90023 		ldrd	r2, [r3]
 300 009c FFF7FEFF 		bl	__aeabi_ddiv
 301 00a0 0022     		movs	r2, #0
 302 00a2 AA4B     		ldr	r3, .L146+52
 303 00a4 FFF7FEFF 		bl	__aeabi_dmul
 304 00a8 FFF7FEFF 		bl	__aeabi_d2f
 305 00ac 09EE100A 		vmov	s18, r0
 306 00b0 A74B     		ldr	r3, .L146+56
 307 00b2 1860     		str	r0, [r3]	@ float
 308 00b4 B0EE680A 		vmov.f32	s0, s17
 309 00b8 FFF7FEFF 		bl	sinf
 310 00bc 60EE087A 		vmul.f32	s15, s0, s16
 311 00c0 17EE900A 		vmov	r0, s15
 312 00c4 FFF7FEFF 		bl	__aeabi_f2d
 313 00c8 95A3     		adr	r3, .L146+8
 314 00ca D3E90023 		ldrd	r2, [r3]
 315 00ce FFF7FEFF 		bl	__aeabi_ddiv
 316 00d2 FFF7FEFF 		bl	__aeabi_d2f
 317 00d6 00EE100A 		vmov	s0, r0
 318 00da FFF7FEFF 		bl	atanf
 319 00de 10EE100A 		vmov	r0, s0
 320 00e2 FFF7FEFF 		bl	__aeabi_f2d
 321 00e6 8CA3     		adr	r3, .L146
 322 00e8 D3E90023 		ldrd	r2, [r3]
 323 00ec FFF7FEFF 		bl	__aeabi_ddiv
 324 00f0 0022     		movs	r2, #0
 325 00f2 964B     		ldr	r3, .L146+52
 326 00f4 FFF7FEFF 		bl	__aeabi_dmul
 327 00f8 FFF7FEFF 		bl	__aeabi_d2f
 328 00fc 08EE100A 		vmov	s16, r0
 329 0100 944B     		ldr	r3, .L146+60
 330 0102 1860     		str	r0, [r3]	@ float
 331 0104 944B     		ldr	r3, .L146+64
 332 0106 1868     		ldr	r0, [r3]	@ float
 333 0108 FFF7FEFF 		bl	__aeabi_f2d
 334 010c 86A3     		adr	r3, .L146+16
 335 010e D3E90023 		ldrd	r2, [r3]
 336 0112 FFF7FEFF 		bl	__aeabi_ddiv
 337 0116 86A3     		adr	r3, .L146+24
 338 0118 D3E90023 		ldrd	r2, [r3]
 339 011c FFF7FEFF 		bl	__aeabi_dmul
 340 0120 FFF7FEFF 		bl	__aeabi_d2f
 341 0124 00EE100A 		vmov	s0, r0
 342 0128 FFF7FEFF 		bl	sinf
 343 012c 29EE009A 		vmul.f32	s18, s18, s0
 344 0130 8A4B     		ldr	r3, .L146+68
 345 0132 83ED009A 		vstr.32	s18, [r3]
 346 0136 28EE008A 		vmul.f32	s16, s16, s0
 347 013a 894B     		ldr	r3, .L146+72
ARM GAS  C:\Users\ktkuru\AppData\Local\Temp\ccBhUN5S.s 			page 7


 348 013c 83ED008A 		vstr.32	s16, [r3]
 349 0140 DFED807A 		vldr.32	s15, .L146+44
 350 0144 68EEA77A 		vmul.f32	s15, s17, s15
 351 0148 17EE900A 		vmov	r0, s15
 352 014c FFF7FEFF 		bl	__aeabi_f2d
 353 0150 71A3     		adr	r3, .L146
 354 0152 D3E90023 		ldrd	r2, [r3]
 355 0156 FFF7FEFF 		bl	__aeabi_ddiv
 356 015a FFF7FEFF 		bl	__aeabi_d2f
 357 015e 07EE900A 		vmov	s15, r0
 358 0162 012C     		cmp	r4, #1
 359 0164 00F09680 		beq	.L137
 360 0168 022C     		cmp	r4, #2
 361 016a 00F00D82 		beq	.L138
 362              	.L25:
 363 016e BDEC048B 		vldm	sp!, {d8-d9}
 364 0172 10BD     		pop	{r4, pc}
 365              	.L116:
 366 0174 F3EE0F7A 		vmov.f32	s15, #3.1e+1
 367 0178 B4EEE70A 		vcmpe.f32	s0, s15
 368 017c F1EE10FA 		vmrs	APSR_nzcv, FPSCR
 369 0180 7CDD     		ble	.L117
 370 0182 DFED787A 		vldr.32	s15, .L146+76
 371 0186 B4EEE70A 		vcmpe.f32	s0, s15
 372 018a F1EE10FA 		vmrs	APSR_nzcv, FPSCR
 373 018e 08D8     		bhi	.L118
 374 0190 6D4B     		ldr	r3, .L146+48
 375 0192 D3ED047A 		vldr.32	s15, [r3, #16]	@ int
 376 0196 F8EEE77A 		vcvt.f32.s32	s15, s15
 377 019a 30EE270A 		vadd.f32	s0, s0, s15
 378 019e 0224     		movs	r4, #2
 379 01a0 4FE7     		b	.L30
 380              	.L118:
 381 01a2 DFED707A 		vldr.32	s15, .L146+76
 382 01a6 B4EEE70A 		vcmpe.f32	s0, s15
 383 01aa F1EE10FA 		vmrs	APSR_nzcv, FPSCR
 384 01ae 67DD     		ble	.L119
 385 01b0 DFED6D7A 		vldr.32	s15, .L146+80
 386 01b4 B4EEE70A 		vcmpe.f32	s0, s15
 387 01b8 F1EE10FA 		vmrs	APSR_nzcv, FPSCR
 388 01bc 62D8     		bhi	.L120
 389 01be 624B     		ldr	r3, .L146+48
 390 01c0 D3ED057A 		vldr.32	s15, [r3, #20]	@ int
 391 01c4 F8EEE77A 		vcvt.f32.s32	s15, s15
 392 01c8 30EE270A 		vadd.f32	s0, s0, s15
 393 01cc 0224     		movs	r4, #2
 394 01ce 38E7     		b	.L30
 395              	.L115:
 396 01d0 DFED5B7A 		vldr.32	s15, .L146+40
 397 01d4 B4EEE70A 		vcmpe.f32	s0, s15
 398 01d8 F1EE10FA 		vmrs	APSR_nzcv, FPSCR
 399 01dc 3DD5     		bpl	.L121
 400 01de F3EE0F7A 		vmov.f32	s15, #3.1e+1
 401 01e2 B4EEE70A 		vcmpe.f32	s0, s15
 402 01e6 F1EE10FA 		vmrs	APSR_nzcv, FPSCR
 403 01ea 08D8     		bhi	.L122
 404 01ec 564B     		ldr	r3, .L146+48
ARM GAS  C:\Users\ktkuru\AppData\Local\Temp\ccBhUN5S.s 			page 8


 405 01ee D3ED007A 		vldr.32	s15, [r3]	@ int
 406 01f2 F8EEE77A 		vcvt.f32.s32	s15, s15
 407 01f6 30EE270A 		vadd.f32	s0, s0, s15
 408 01fa 0124     		movs	r4, #1
 409 01fc 21E7     		b	.L30
 410              	.L122:
 411 01fe F3EE0F7A 		vmov.f32	s15, #3.1e+1
 412 0202 B4EEE70A 		vcmpe.f32	s0, s15
 413 0206 F1EE10FA 		vmrs	APSR_nzcv, FPSCR
 414 020a 3DDD     		ble	.L123
 415 020c DFED577A 		vldr.32	s15, .L146+84
 416 0210 B4EEE70A 		vcmpe.f32	s0, s15
 417 0214 F1EE10FA 		vmrs	APSR_nzcv, FPSCR
 418 0218 08D8     		bhi	.L124
 419 021a 4B4B     		ldr	r3, .L146+48
 420 021c D3ED017A 		vldr.32	s15, [r3, #4]	@ int
 421 0220 F8EEE77A 		vcvt.f32.s32	s15, s15
 422 0224 30EE270A 		vadd.f32	s0, s0, s15
 423 0228 0124     		movs	r4, #1
 424 022a 0AE7     		b	.L30
 425              	.L124:
 426 022c DFED4F7A 		vldr.32	s15, .L146+84
 427 0230 B4EEE70A 		vcmpe.f32	s0, s15
 428 0234 F1EE10FA 		vmrs	APSR_nzcv, FPSCR
 429 0238 28DD     		ble	.L125
 430 023a DFED4D7A 		vldr.32	s15, .L146+88
 431 023e B4EEE70A 		vcmpe.f32	s0, s15
 432 0242 F1EE10FA 		vmrs	APSR_nzcv, FPSCR
 433 0246 23D8     		bhi	.L126
 434 0248 3F4B     		ldr	r3, .L146+48
 435 024a D3ED027A 		vldr.32	s15, [r3, #8]	@ int
 436 024e F8EEE77A 		vcvt.f32.s32	s15, s15
 437 0252 30EE270A 		vadd.f32	s0, s0, s15
 438 0256 0124     		movs	r4, #1
 439 0258 F3E6     		b	.L30
 440              	.L121:
 441 025a DFED397A 		vldr.32	s15, .L146+40
 442 025e B4EE670A 		vcmp.f32	s0, s15
 443 0262 F1EE10FA 		vmrs	APSR_nzcv, FPSCR
 444 0266 7FF4ECAE 		bne	.L30
 445 026a 374B     		ldr	r3, .L146+48
 446 026c D3ED067A 		vldr.32	s15, [r3, #24]	@ int
 447 0270 F8EEE77A 		vcvt.f32.s32	s15, s15
 448 0274 30EE270A 		vadd.f32	s0, s0, s15
 449 0278 0124     		movs	r4, #1
 450 027a E2E6     		b	.L30
 451              	.L117:
 452 027c 0224     		movs	r4, #2
 453 027e E0E6     		b	.L30
 454              	.L119:
 455 0280 0224     		movs	r4, #2
 456 0282 DEE6     		b	.L30
 457              	.L120:
 458 0284 0224     		movs	r4, #2
 459 0286 DCE6     		b	.L30
 460              	.L123:
 461 0288 0124     		movs	r4, #1
ARM GAS  C:\Users\ktkuru\AppData\Local\Temp\ccBhUN5S.s 			page 9


 462 028a DAE6     		b	.L30
 463              	.L125:
 464 028c 0124     		movs	r4, #1
 465 028e D8E6     		b	.L30
 466              	.L126:
 467 0290 0124     		movs	r4, #1
 468 0292 D6E6     		b	.L30
 469              	.L137:
 470 0294 2C4B     		ldr	r3, .L146+48
 471 0296 1B68     		ldr	r3, [r3]
 472 0298 1E33     		adds	r3, r3, #30
 473 029a 07EE103A 		vmov	s14, r3	@ int
 474 029e B8EEC77A 		vcvt.f32.s32	s14, s14
 475 02a2 B4EEE77A 		vcmpe.f32	s14, s15
 476 02a6 F1EE10FA 		vmrs	APSR_nzcv, FPSCR
 477 02aa 78DB     		blt	.L127
 478 02ac 3148     		ldr	r0, .L146+92
 479 02ae C368     		ldr	r3, [r0, #12]
 480 02b0 314A     		ldr	r2, .L146+96
 481 02b2 D2ED000A 		vldr.32	s1, [r2]
 482 02b6 B0EE490A 		vmov.f32	s0, s18
 483 02ba 9847     		blx	r3
 484 02bc 2F4B     		ldr	r3, .L146+100
 485 02be 83ED000A 		vstr.32	s0, [r3]
 486 02c2 2F48     		ldr	r0, .L146+104
 487 02c4 C368     		ldr	r3, [r0, #12]
 488 02c6 2F4A     		ldr	r2, .L146+108
 489 02c8 D2ED000A 		vldr.32	s1, [r2]
 490 02cc F1EE600A 		vneg.f32	s1, s1
 491 02d0 234A     		ldr	r2, .L146+72
 492 02d2 92ED000A 		vldr.32	s0, [r2]
 493 02d6 9847     		blx	r3
 494 02d8 B0EE408A 		vmov.f32	s16, s0
 495 02dc 2A4B     		ldr	r3, .L146+112
 496 02de 83ED000A 		vstr.32	s0, [r3]
 497 02e2 1D4C     		ldr	r4, .L146+64
 498 02e4 2068     		ldr	r0, [r4]	@ float
 499 02e6 FFF7FEFF 		bl	__aeabi_f2d
 500 02ea 13A3     		adr	r3, .L146+32
 501 02ec D3E90023 		ldrd	r2, [r3]
 502 02f0 FFF7FEFF 		bl	__aeabi_dadd
 503 02f4 FFF7FEFF 		bl	__aeabi_d2f
 504 02f8 2060     		str	r0, [r4]	@ float
 505 02fa FFF7FEFF 		bl	__aeabi_f2d
 506 02fe 0AA3     		adr	r3, .L146+16
 507 0300 D3E90023 		ldrd	r2, [r3]
 508 0304 FFF7FEFF 		bl	__aeabi_dcmplt
 509 0308 0028     		cmp	r0, #0
 510 030a 3FD1     		bne	.L139
 511 030c 124B     		ldr	r3, .L146+64
 512 030e 0022     		movs	r2, #0
 513 0310 1A60     		str	r2, [r3]	@ float
 514 0312 2CE7     		b	.L25
 515              	.L147:
 516 0314 AFF30080 		.align	3
 517              	.L146:
 518 0318 4AD8124D 		.word	1293080650
ARM GAS  C:\Users\ktkuru\AppData\Local\Temp\ccBhUN5S.s 			page 10


 519 031c FB210940 		.word	1074340347
 520 0320 85EB51B8 		.word	-1202590843
 521 0324 1E85EB3F 		.word	1072399646
 522 0328 0C022B87 		.word	-2027224564
 523 032c 16D9FA3F 		.word	1073404182
 524 0330 4AD8124D 		.word	1293080650
 525 0334 FB211940 		.word	1075388923
 526 0338 C35B316D 		.word	1831951299
 527 033c 4958853F 		.word	1065703497
 528 0340 0000B442 		.word	1119092736
 529 0344 00003443 		.word	1127481344
 530 0348 00000000 		.word	de
 531 034c 00806640 		.word	1080459264
 532 0350 00000000 		.word	target_roll.22
 533 0354 00000000 		.word	target_pitch.21
 534 0358 00000000 		.word	time.20
 535 035c 00000000 		.word	Vtarget_angle.19
 536 0360 00000000 		.word	Ltarget_angle.18
 537 0364 00003842 		.word	1110966272
 538 0368 00007442 		.word	1114898432
 539 036c 00003442 		.word	1110704128
 540 0370 00006042 		.word	1113587712
 541 0374 00000000 		.word	Taks3Pid1.17
 542 0378 00000000 		.word	roll
 543 037c 00000000 		.word	VOutput.16
 544 0380 00000000 		.word	Taks3Pid2.15
 545 0384 00000000 		.word	pitch
 546 0388 00000000 		.word	LOutput.14
 547              	.L139:
 548 038c 0120     		movs	r0, #1
 549 038e F0EE480A 		vmov.f32	s1, s16
 550 0392 AD4B     		ldr	r3, .L148+40
 551 0394 93ED000A 		vldr.32	s0, [r3]
 552 0398 FFF7FEFF 		bl	T3Motor_CmdCombination
 553 039c E7E6     		b	.L25
 554              	.L127:
 555 039e B4EEE77A 		vcmpe.f32	s14, s15
 556 03a2 F1EE10FA 		vmrs	APSR_nzcv, FPSCR
 557 03a6 47D5     		bpl	.L51
 558 03a8 A84B     		ldr	r3, .L148+44
 559 03aa 5B68     		ldr	r3, [r3, #4]
 560 03ac 2D33     		adds	r3, r3, #45
 561 03ae 07EE103A 		vmov	s14, r3	@ int
 562 03b2 B8EEC77A 		vcvt.f32.s32	s14, s14
 563 03b6 B4EEE77A 		vcmpe.f32	s14, s15
 564 03ba F1EE10FA 		vmrs	APSR_nzcv, FPSCR
 565 03be 3BDB     		blt	.L51
 566 03c0 A348     		ldr	r0, .L148+48
 567 03c2 C368     		ldr	r3, [r0, #12]
 568 03c4 A34A     		ldr	r2, .L148+52
 569 03c6 D2ED000A 		vldr.32	s1, [r2]
 570 03ca B0EE490A 		vmov.f32	s0, s18
 571 03ce 9847     		blx	r3
 572 03d0 9D4B     		ldr	r3, .L148+40
 573 03d2 83ED000A 		vstr.32	s0, [r3]
 574 03d6 A048     		ldr	r0, .L148+56
 575 03d8 C368     		ldr	r3, [r0, #12]
ARM GAS  C:\Users\ktkuru\AppData\Local\Temp\ccBhUN5S.s 			page 11


 576 03da A04A     		ldr	r2, .L148+60
 577 03dc D2ED000A 		vldr.32	s1, [r2]
 578 03e0 F1EE600A 		vneg.f32	s1, s1
 579 03e4 9E4A     		ldr	r2, .L148+64
 580 03e6 92ED000A 		vldr.32	s0, [r2]
 581 03ea 9847     		blx	r3
 582 03ec B0EE408A 		vmov.f32	s16, s0
 583 03f0 9C4B     		ldr	r3, .L148+68
 584 03f2 83ED000A 		vstr.32	s0, [r3]
 585 03f6 9C4C     		ldr	r4, .L148+72
 586 03f8 2068     		ldr	r0, [r4]	@ float
 587 03fa FFF7FEFF 		bl	__aeabi_f2d
 588 03fe 88A3     		adr	r3, .L148
 589 0400 D3E90023 		ldrd	r2, [r3]
 590 0404 FFF7FEFF 		bl	__aeabi_dadd
 591 0408 FFF7FEFF 		bl	__aeabi_d2f
 592 040c 2060     		str	r0, [r4]	@ float
 593 040e FFF7FEFF 		bl	__aeabi_f2d
 594 0412 85A3     		adr	r3, .L148+8
 595 0414 D3E90023 		ldrd	r2, [r3]
 596 0418 FFF7FEFF 		bl	__aeabi_dcmplt
 597 041c 18B9     		cbnz	r0, .L140
 598 041e 924B     		ldr	r3, .L148+72
 599 0420 0022     		movs	r2, #0
 600 0422 1A60     		str	r2, [r3]	@ float
 601 0424 A3E6     		b	.L25
 602              	.L140:
 603 0426 0120     		movs	r0, #1
 604 0428 F0EE480A 		vmov.f32	s1, s16
 605 042c 864B     		ldr	r3, .L148+40
 606 042e 93ED000A 		vldr.32	s0, [r3]
 607 0432 FFF7FEFF 		bl	T3Motor_CmdCombination
 608 0436 9AE6     		b	.L25
 609              	.L51:
 610 0438 844B     		ldr	r3, .L148+44
 611 043a 5B68     		ldr	r3, [r3, #4]
 612 043c 2D33     		adds	r3, r3, #45
 613 043e 07EE103A 		vmov	s14, r3	@ int
 614 0442 B8EEC77A 		vcvt.f32.s32	s14, s14
 615 0446 B4EEE77A 		vcmpe.f32	s14, s15
 616 044a F1EE10FA 		vmrs	APSR_nzcv, FPSCR
 617 044e 4AD5     		bpl	.L56
 618 0450 7E4B     		ldr	r3, .L148+44
 619 0452 9B68     		ldr	r3, [r3, #8]
 620 0454 3C33     		adds	r3, r3, #60
 621 0456 07EE103A 		vmov	s14, r3	@ int
 622 045a B8EEC77A 		vcvt.f32.s32	s14, s14
 623 045e B4EEE77A 		vcmpe.f32	s14, s15
 624 0462 F1EE10FA 		vmrs	APSR_nzcv, FPSCR
 625 0466 3EDB     		blt	.L56
 626 0468 804B     		ldr	r3, .L148+76
 627 046a 814A     		ldr	r2, .L148+80
 628 046c 1A60     		str	r2, [r3]	@ float
 629 046e 8148     		ldr	r0, .L148+84
 630 0470 C368     		ldr	r3, [r0, #12]
 631 0472 784A     		ldr	r2, .L148+52
 632 0474 D2ED000A 		vldr.32	s1, [r2]
ARM GAS  C:\Users\ktkuru\AppData\Local\Temp\ccBhUN5S.s 			page 12


 633 0478 B0EE490A 		vmov.f32	s0, s18
 634 047c 9847     		blx	r3
 635 047e 724B     		ldr	r3, .L148+40
 636 0480 83ED000A 		vstr.32	s0, [r3]
 637 0484 7C48     		ldr	r0, .L148+88
 638 0486 C368     		ldr	r3, [r0, #12]
 639 0488 744A     		ldr	r2, .L148+60
 640 048a D2ED000A 		vldr.32	s1, [r2]
 641 048e F1EE600A 		vneg.f32	s1, s1
 642 0492 734A     		ldr	r2, .L148+64
 643 0494 92ED000A 		vldr.32	s0, [r2]
 644 0498 9847     		blx	r3
 645 049a B0EE408A 		vmov.f32	s16, s0
 646 049e 714B     		ldr	r3, .L148+68
 647 04a0 83ED000A 		vstr.32	s0, [r3]
 648 04a4 704C     		ldr	r4, .L148+72
 649 04a6 2068     		ldr	r0, [r4]	@ float
 650 04a8 FFF7FEFF 		bl	__aeabi_f2d
 651 04ac 60A3     		adr	r3, .L148+16
 652 04ae D3E90023 		ldrd	r2, [r3]
 653 04b2 FFF7FEFF 		bl	__aeabi_dadd
 654 04b6 FFF7FEFF 		bl	__aeabi_d2f
 655 04ba 2060     		str	r0, [r4]	@ float
 656 04bc FFF7FEFF 		bl	__aeabi_f2d
 657 04c0 59A3     		adr	r3, .L148+8
 658 04c2 D3E90023 		ldrd	r2, [r3]
 659 04c6 FFF7FEFF 		bl	__aeabi_dcmplt
 660 04ca 18B9     		cbnz	r0, .L141
 661 04cc 664B     		ldr	r3, .L148+72
 662 04ce 0022     		movs	r2, #0
 663 04d0 1A60     		str	r2, [r3]	@ float
 664 04d2 4CE6     		b	.L25
 665              	.L141:
 666 04d4 0120     		movs	r0, #1
 667 04d6 F0EE480A 		vmov.f32	s1, s16
 668 04da 5B4B     		ldr	r3, .L148+40
 669 04dc 93ED000A 		vldr.32	s0, [r3]
 670 04e0 FFF7FEFF 		bl	T3Motor_CmdCombination
 671 04e4 43E6     		b	.L25
 672              	.L56:
 673 04e6 594B     		ldr	r3, .L148+44
 674 04e8 9B68     		ldr	r3, [r3, #8]
 675 04ea 3C33     		adds	r3, r3, #60
 676 04ec 07EE103A 		vmov	s14, r3	@ int
 677 04f0 B8EEC77A 		vcvt.f32.s32	s14, s14
 678 04f4 B4EEE77A 		vcmpe.f32	s14, s15
 679 04f8 F1EE10FA 		vmrs	APSR_nzcv, FPSCR
 680 04fc 7FF537AE 		bpl	.L25
 681 0500 9FED5E7A 		vldr.32	s14, .L148+92
 682 0504 F4EEC77A 		vcmpe.f32	s15, s14
 683 0508 F1EE10FA 		vmrs	APSR_nzcv, FPSCR
 684 050c 3FF62FAE 		bhi	.L25
 685 0510 5B48     		ldr	r0, .L148+96
 686 0512 C368     		ldr	r3, [r0, #12]
 687 0514 4F4A     		ldr	r2, .L148+52
 688 0516 D2ED000A 		vldr.32	s1, [r2]
 689 051a B0EE490A 		vmov.f32	s0, s18
ARM GAS  C:\Users\ktkuru\AppData\Local\Temp\ccBhUN5S.s 			page 13


 690 051e 9847     		blx	r3
 691 0520 494B     		ldr	r3, .L148+40
 692 0522 83ED000A 		vstr.32	s0, [r3]
 693 0526 5748     		ldr	r0, .L148+100
 694 0528 C368     		ldr	r3, [r0, #12]
 695 052a 4C4A     		ldr	r2, .L148+60
 696 052c D2ED000A 		vldr.32	s1, [r2]
 697 0530 F1EE600A 		vneg.f32	s1, s1
 698 0534 4A4A     		ldr	r2, .L148+64
 699 0536 92ED000A 		vldr.32	s0, [r2]
 700 053a 9847     		blx	r3
 701 053c B0EE408A 		vmov.f32	s16, s0
 702 0540 484B     		ldr	r3, .L148+68
 703 0542 83ED000A 		vstr.32	s0, [r3]
 704 0546 484C     		ldr	r4, .L148+72
 705 0548 2068     		ldr	r0, [r4]	@ float
 706 054a FFF7FEFF 		bl	__aeabi_f2d
 707 054e 3AA3     		adr	r3, .L148+24
 708 0550 D3E90023 		ldrd	r2, [r3]
 709 0554 FFF7FEFF 		bl	__aeabi_dadd
 710 0558 FFF7FEFF 		bl	__aeabi_d2f
 711 055c 2060     		str	r0, [r4]	@ float
 712 055e FFF7FEFF 		bl	__aeabi_f2d
 713 0562 31A3     		adr	r3, .L148+8
 714 0564 D3E90023 		ldrd	r2, [r3]
 715 0568 FFF7FEFF 		bl	__aeabi_dcmplt
 716 056c 18B9     		cbnz	r0, .L142
 717 056e 3E4B     		ldr	r3, .L148+72
 718 0570 0022     		movs	r2, #0
 719 0572 1A60     		str	r2, [r3]	@ float
 720 0574 FBE5     		b	.L25
 721              	.L142:
 722 0576 0120     		movs	r0, #1
 723 0578 F0EE480A 		vmov.f32	s1, s16
 724 057c 324B     		ldr	r3, .L148+40
 725 057e 93ED000A 		vldr.32	s0, [r3]
 726 0582 FFF7FEFF 		bl	T3Motor_CmdCombination
 727 0586 F2E5     		b	.L25
 728              	.L138:
 729 0588 304B     		ldr	r3, .L148+44
 730 058a DB68     		ldr	r3, [r3, #12]
 731 058c 1E33     		adds	r3, r3, #30
 732 058e 07EE103A 		vmov	s14, r3	@ int
 733 0592 B8EEC77A 		vcvt.f32.s32	s14, s14
 734 0596 B4EEE77A 		vcmpe.f32	s14, s15
 735 059a F1EE10FA 		vmrs	APSR_nzcv, FPSCR
 736 059e 77DB     		blt	.L132
 737 05a0 3948     		ldr	r0, .L148+104
 738 05a2 C368     		ldr	r3, [r0, #12]
 739 05a4 2B4A     		ldr	r2, .L148+52
 740 05a6 D2ED000A 		vldr.32	s1, [r2]
 741 05aa F1EE600A 		vneg.f32	s1, s1
 742 05ae B0EE490A 		vmov.f32	s0, s18
 743 05b2 9847     		blx	r3
 744 05b4 244B     		ldr	r3, .L148+40
 745 05b6 83ED000A 		vstr.32	s0, [r3]
 746 05ba 3448     		ldr	r0, .L148+108
ARM GAS  C:\Users\ktkuru\AppData\Local\Temp\ccBhUN5S.s 			page 14


 747 05bc C368     		ldr	r3, [r0, #12]
 748 05be 274A     		ldr	r2, .L148+60
 749 05c0 D2ED000A 		vldr.32	s1, [r2]
 750 05c4 F1EE600A 		vneg.f32	s1, s1
 751 05c8 254A     		ldr	r2, .L148+64
 752 05ca 92ED000A 		vldr.32	s0, [r2]
 753 05ce 9847     		blx	r3
 754 05d0 B0EE408A 		vmov.f32	s16, s0
 755 05d4 234B     		ldr	r3, .L148+68
 756 05d6 83ED000A 		vstr.32	s0, [r3]
 757 05da 234C     		ldr	r4, .L148+72
 758 05dc 2068     		ldr	r0, [r4]	@ float
 759 05de FFF7FEFF 		bl	__aeabi_f2d
 760 05e2 17A3     		adr	r3, .L148+32
 761 05e4 D3E90023 		ldrd	r2, [r3]
 762 05e8 FFF7FEFF 		bl	__aeabi_dadd
 763 05ec FFF7FEFF 		bl	__aeabi_d2f
 764 05f0 2060     		str	r0, [r4]	@ float
 765 05f2 FFF7FEFF 		bl	__aeabi_f2d
 766 05f6 0CA3     		adr	r3, .L148+8
 767 05f8 D3E90023 		ldrd	r2, [r3]
 768 05fc FFF7FEFF 		bl	__aeabi_dcmplt
 769 0600 18B9     		cbnz	r0, .L143
 770 0602 194B     		ldr	r3, .L148+72
 771 0604 0022     		movs	r2, #0
 772 0606 1A60     		str	r2, [r3]	@ float
 773 0608 B1E5     		b	.L25
 774              	.L143:
 775 060a 0020     		movs	r0, #0
 776 060c F0EE480A 		vmov.f32	s1, s16
 777 0610 0D4B     		ldr	r3, .L148+40
 778 0612 93ED000A 		vldr.32	s0, [r3]
 779 0616 FFF7FEFF 		bl	T3Motor_CmdCombination
 780 061a A8E5     		b	.L25
 781              	.L149:
 782 061c AFF30080 		.align	3
 783              	.L148:
 784 0620 30B2AE1B 		.word	464433712
 785 0624 00BB843F 		.word	1065663232
 786 0628 0C022B87 		.word	-2027224564
 787 062c 16D9FA3F 		.word	1073404182
 788 0630 DCC9F154 		.word	1425131996
 789 0634 D169873F 		.word	1065839057
 790 0638 F1941F02 		.word	35624177
 791 063c 582E853F 		.word	1065692760
 792 0640 62EAF879 		.word	2046356066
 793 0644 9D1E853F 		.word	1065688733
 794 0648 00000000 		.word	VOutput.16
 795 064c 00000000 		.word	de
 796 0650 00000000 		.word	Taks3Pid3.13
 797 0654 00000000 		.word	roll
 798 0658 00000000 		.word	Taks3Pid4.12
 799 065c 00000000 		.word	pitch
 800 0660 00000000 		.word	Ltarget_angle.18
 801 0664 00000000 		.word	LOutput.14
 802 0668 00000000 		.word	time.20
 803 066c 00000000 		.word	Target_dis
ARM GAS  C:\Users\ktkuru\AppData\Local\Temp\ccBhUN5S.s 			page 15


 804 0670 0AD7233E 		.word	1042536202
 805 0674 00000000 		.word	Taks3Pid5.11
 806 0678 00000000 		.word	Taks3Pid6.10
 807 067c 0000A042 		.word	1117782016
 808 0680 00000000 		.word	Taks3Pid7.9
 809 0684 00000000 		.word	Taks3Pid8.8
 810 0688 00000000 		.word	Taks3Pid1.17
 811 068c 00000000 		.word	Taks3Pid2.15
 812              	.L132:
 813 0690 B4EEE77A 		vcmpe.f32	s14, s15
 814 0694 F1EE10FA 		vmrs	APSR_nzcv, FPSCR
 815 0698 49D5     		bpl	.L69
 816 069a 574B     		ldr	r3, .L150+24
 817 069c 1B69     		ldr	r3, [r3, #16]
 818 069e 2D33     		adds	r3, r3, #45
 819 06a0 07EE103A 		vmov	s14, r3	@ int
 820 06a4 B8EEC77A 		vcvt.f32.s32	s14, s14
 821 06a8 B4EEE77A 		vcmpe.f32	s14, s15
 822 06ac F1EE10FA 		vmrs	APSR_nzcv, FPSCR
 823 06b0 3DDB     		blt	.L69
 824 06b2 5248     		ldr	r0, .L150+28
 825 06b4 C368     		ldr	r3, [r0, #12]
 826 06b6 524A     		ldr	r2, .L150+32
 827 06b8 D2ED000A 		vldr.32	s1, [r2]
 828 06bc F1EE600A 		vneg.f32	s1, s1
 829 06c0 B0EE490A 		vmov.f32	s0, s18
 830 06c4 9847     		blx	r3
 831 06c6 4F4B     		ldr	r3, .L150+36
 832 06c8 83ED000A 		vstr.32	s0, [r3]
 833 06cc 4E48     		ldr	r0, .L150+40
 834 06ce C368     		ldr	r3, [r0, #12]
 835 06d0 4E4A     		ldr	r2, .L150+44
 836 06d2 D2ED000A 		vldr.32	s1, [r2]
 837 06d6 F1EE600A 		vneg.f32	s1, s1
 838 06da 4D4A     		ldr	r2, .L150+48
 839 06dc 92ED000A 		vldr.32	s0, [r2]
 840 06e0 9847     		blx	r3
 841 06e2 B0EE408A 		vmov.f32	s16, s0
 842 06e6 4B4B     		ldr	r3, .L150+52
 843 06e8 83ED000A 		vstr.32	s0, [r3]
 844 06ec 4A4C     		ldr	r4, .L150+56
 845 06ee 2068     		ldr	r0, [r4]	@ float
 846 06f0 FFF7FEFF 		bl	__aeabi_f2d
 847 06f4 3AA3     		adr	r3, .L150
 848 06f6 D3E90023 		ldrd	r2, [r3]
 849 06fa FFF7FEFF 		bl	__aeabi_dadd
 850 06fe FFF7FEFF 		bl	__aeabi_d2f
 851 0702 2060     		str	r0, [r4]	@ float
 852 0704 FFF7FEFF 		bl	__aeabi_f2d
 853 0708 37A3     		adr	r3, .L150+8
 854 070a D3E90023 		ldrd	r2, [r3]
 855 070e FFF7FEFF 		bl	__aeabi_dcmplt
 856 0712 18B9     		cbnz	r0, .L144
 857 0714 404B     		ldr	r3, .L150+56
 858 0716 0022     		movs	r2, #0
 859 0718 1A60     		str	r2, [r3]	@ float
 860 071a 28E5     		b	.L25
ARM GAS  C:\Users\ktkuru\AppData\Local\Temp\ccBhUN5S.s 			page 16


 861              	.L144:
 862 071c 0020     		movs	r0, #0
 863 071e F0EE480A 		vmov.f32	s1, s16
 864 0722 384B     		ldr	r3, .L150+36
 865 0724 93ED000A 		vldr.32	s0, [r3]
 866 0728 FFF7FEFF 		bl	T3Motor_CmdCombination
 867 072c 1FE5     		b	.L25
 868              	.L69:
 869 072e 324B     		ldr	r3, .L150+24
 870 0730 1B69     		ldr	r3, [r3, #16]
 871 0732 2D33     		adds	r3, r3, #45
 872 0734 07EE103A 		vmov	s14, r3	@ int
 873 0738 B8EEC77A 		vcvt.f32.s32	s14, s14
 874 073c B4EEE77A 		vcmpe.f32	s14, s15
 875 0740 F1EE10FA 		vmrs	APSR_nzcv, FPSCR
 876 0744 7FF513AD 		bpl	.L25
 877 0748 2B4B     		ldr	r3, .L150+24
 878 074a 5B69     		ldr	r3, [r3, #20]
 879 074c 3C33     		adds	r3, r3, #60
 880 074e 07EE103A 		vmov	s14, r3	@ int
 881 0752 B8EEC77A 		vcvt.f32.s32	s14, s14
 882 0756 B4EEE77A 		vcmpe.f32	s14, s15
 883 075a F1EE10FA 		vmrs	APSR_nzcv, FPSCR
 884 075e FFF606AD 		blt	.L25
 885 0762 2E48     		ldr	r0, .L150+60
 886 0764 C368     		ldr	r3, [r0, #12]
 887 0766 264A     		ldr	r2, .L150+32
 888 0768 D2ED000A 		vldr.32	s1, [r2]
 889 076c F1EE600A 		vneg.f32	s1, s1
 890 0770 B0EE490A 		vmov.f32	s0, s18
 891 0774 9847     		blx	r3
 892 0776 234B     		ldr	r3, .L150+36
 893 0778 83ED000A 		vstr.32	s0, [r3]
 894 077c 2848     		ldr	r0, .L150+64
 895 077e C368     		ldr	r3, [r0, #12]
 896 0780 224A     		ldr	r2, .L150+44
 897 0782 D2ED000A 		vldr.32	s1, [r2]
 898 0786 F1EE600A 		vneg.f32	s1, s1
 899 078a 214A     		ldr	r2, .L150+48
 900 078c 92ED000A 		vldr.32	s0, [r2]
 901 0790 9847     		blx	r3
 902 0792 B0EE408A 		vmov.f32	s16, s0
 903 0796 1F4B     		ldr	r3, .L150+52
 904 0798 83ED000A 		vstr.32	s0, [r3]
 905 079c 1E4C     		ldr	r4, .L150+56
 906 079e 2068     		ldr	r0, [r4]	@ float
 907 07a0 FFF7FEFF 		bl	__aeabi_f2d
 908 07a4 12A3     		adr	r3, .L150+16
 909 07a6 D3E90023 		ldrd	r2, [r3]
 910 07aa FFF7FEFF 		bl	__aeabi_dadd
 911 07ae FFF7FEFF 		bl	__aeabi_d2f
 912 07b2 2060     		str	r0, [r4]	@ float
 913 07b4 FFF7FEFF 		bl	__aeabi_f2d
 914 07b8 0BA3     		adr	r3, .L150+8
 915 07ba D3E90023 		ldrd	r2, [r3]
 916 07be FFF7FEFF 		bl	__aeabi_dcmplt
 917 07c2 18B9     		cbnz	r0, .L145
ARM GAS  C:\Users\ktkuru\AppData\Local\Temp\ccBhUN5S.s 			page 17


 918 07c4 144B     		ldr	r3, .L150+56
 919 07c6 0022     		movs	r2, #0
 920 07c8 1A60     		str	r2, [r3]	@ float
 921 07ca D0E4     		b	.L25
 922              	.L145:
 923 07cc 0020     		movs	r0, #0
 924 07ce F0EE480A 		vmov.f32	s1, s16
 925 07d2 0C4B     		ldr	r3, .L150+36
 926 07d4 93ED000A 		vldr.32	s0, [r3]
 927 07d8 FFF7FEFF 		bl	T3Motor_CmdCombination
 928 07dc C7E4     		b	.L25
 929              	.L151:
 930 07de 00BF     		.align	3
 931              	.L150:
 932 07e0 4595AB69 		.word	1772852549
 933 07e4 28FF843F 		.word	1065680680
 934 07e8 0C022B87 		.word	-2027224564
 935 07ec 16D9FA3F 		.word	1073404182
 936 07f0 175CBDD4 		.word	-725787625
 937 07f4 1929853F 		.word	1065691417
 938 07f8 00000000 		.word	de
 939 07fc 00000000 		.word	Taks3Pid3.13
 940 0800 00000000 		.word	roll
 941 0804 00000000 		.word	VOutput.16
 942 0808 00000000 		.word	Taks3Pid4.12
 943 080c 00000000 		.word	pitch
 944 0810 00000000 		.word	Ltarget_angle.18
 945 0814 00000000 		.word	LOutput.14
 946 0818 00000000 		.word	time.20
 947 081c 00000000 		.word	Taks3Pid5.11
 948 0820 00000000 		.word	Taks3Pid6.10
 950              		.section	.text.EXTI15_10_IRQHandler,"ax",%progbits
 951              		.align	1
 952              		.global	EXTI15_10_IRQHandler
 953              		.syntax unified
 954              		.thumb
 955              		.thumb_func
 957              	EXTI15_10_IRQHandler:
 958              		@ args = 0, pretend = 0, frame = 8
 959              		@ frame_needed = 0, uses_anonymous_args = 0
 960 0000 00B5     		push	{lr}
 961 0002 83B0     		sub	sp, sp, #12
 962 0004 4FF40040 		mov	r0, #32768
 963 0008 FFF7FEFF 		bl	EXTI_GetITStatus
 964 000c 10B9     		cbnz	r0, .L161
 965              	.L152:
 966 000e 03B0     		add	sp, sp, #12
 967              		@ sp needed
 968 0010 5DF804FB 		ldr	pc, [sp], #4
 969              	.L161:
 970 0014 4FF40040 		mov	r0, #32768
 971 0018 FFF7FEFF 		bl	EXTI_ClearITPendingBit
 972 001c 1A4A     		ldr	r2, .L162
 973 001e 1B49     		ldr	r1, .L162+4
 974 0020 1B48     		ldr	r0, .L162+8
 975 0022 FFF7FEFF 		bl	mpu_dmp_get_data
 976 0026 1B4B     		ldr	r3, .L162+12
ARM GAS  C:\Users\ktkuru\AppData\Local\Temp\ccBhUN5S.s 			page 18


 977 0028 1B78     		ldrb	r3, [r3]	@ zero_extendqisi2
 978 002a 013B     		subs	r3, r3, #1
 979 002c 042B     		cmp	r3, #4
 980 002e 28D8     		bhi	.L154
 981 0030 01A2     		adr	r2, .L155
 982 0032 52F823F0 		ldr	pc, [r2, r3, lsl #2]
 983 0036 00BF     		.p2align 2
 984              	.L155:
 985 0038 4D000000 		.word	.L158+1
 986 003c 83000000 		.word	.L154+1
 987 0040 6B000000 		.word	.L157+1
 988 0044 7D000000 		.word	.L156+1
 989 0048 0F000000 		.word	.L152+1
 990              		.p2align 1
 991              	.L158:
 992 004c 124B     		ldr	r3, .L162+16
 993 004e D3ED007A 		vldr.32	s15, [r3]
 994 0052 FCEEE77A 		vcvt.u32.f32	s15, s15
 995 0056 CDED017A 		vstr.32	s15, [sp, #4]	@ int
 996 005a 9DF80400 		ldrb	r0, [sp, #4]	@ zero_extendqisi2
 997 005e 0F4B     		ldr	r3, .L162+20
 998 0060 93ED000A 		vldr.32	s0, [r3]
 999 0064 FFF7FEFF 		bl	Task1_LineMove
 1000 0068 D1E7     		b	.L152
 1001              	.L157:
 1002 006a 0C4B     		ldr	r3, .L162+20
 1003 006c D3ED000A 		vldr.32	s1, [r3]
 1004 0070 094B     		ldr	r3, .L162+16
 1005 0072 93ED000A 		vldr.32	s0, [r3]
 1006 0076 FFF7FEFF 		bl	Task3_AngleMove
 1007 007a C8E7     		b	.L152
 1008              	.L156:
 1009 007c FFF7FEFF 		bl	Task4_StopFast
 1010 0080 C5E7     		b	.L152
 1011              	.L154:
 1012 0082 FFF7FEFF 		bl	StopAllMotor
 1013 0086 C2E7     		b	.L152
 1014              	.L163:
 1015              		.align	2
 1016              	.L162:
 1017 0088 00000000 		.word	yaw
 1018 008c 00000000 		.word	roll
 1019 0090 00000000 		.word	pitch
 1020 0094 00000000 		.word	mode
 1021 0098 00000000 		.word	Target_angle
 1022 009c 00000000 		.word	Target_dis
 1024              		.global	__aeabi_dcmpgt
 1025              		.section	.text.Task5_CircleMove,"ax",%progbits
 1026              		.align	1
 1027              		.global	Task5_CircleMove
 1028              		.syntax unified
 1029              		.thumb
 1030              		.thumb_func
 1032              	Task5_CircleMove:
 1033              		@ args = 0, pretend = 0, frame = 0
 1034              		@ frame_needed = 0, uses_anonymous_args = 0
 1035 0000 2DE97043 		push	{r4, r5, r6, r8, r9, lr}
ARM GAS  C:\Users\ktkuru\AppData\Local\Temp\ccBhUN5S.s 			page 19


 1036 0004 2DED048B 		vpush.64	{d8, d9}
 1037 0008 10EE104A 		vmov	r4, s0
 1038 000c 2046     		mov	r0, r4	@ float
 1039 000e FFF7FEFF 		bl	__aeabi_f2d
 1040 0012 8046     		mov	r8, r0
 1041 0014 8946     		mov	r9, r1
 1042 0016 C9A3     		adr	r3, .L204+124
 1043 0018 D3E90023 		ldrd	r2, [r3]
 1044 001c FFF7FEFF 		bl	__aeabi_dcmpge
 1045 0020 38B1     		cbz	r0, .L165
 1046 0022 C8A3     		adr	r3, .L204+132
 1047 0024 D3E90023 		ldrd	r2, [r3]
 1048 0028 4046     		mov	r0, r8
 1049 002a 4946     		mov	r1, r9
 1050 002c FFF7FEFF 		bl	__aeabi_dcmple
 1051 0030 18BB     		cbnz	r0, .L186
 1052              	.L165:
 1053 0032 C6A3     		adr	r3, .L204+140
 1054 0034 D3E90023 		ldrd	r2, [r3]
 1055 0038 4046     		mov	r0, r8
 1056 003a 4946     		mov	r1, r9
 1057 003c FFF7FEFF 		bl	__aeabi_dcmpge
 1058 0040 48B1     		cbz	r0, .L168
 1059 0042 C4A3     		adr	r3, .L204+148
 1060 0044 D3E90023 		ldrd	r2, [r3]
 1061 0048 4046     		mov	r0, r8
 1062 004a 4946     		mov	r1, r9
 1063 004c FFF7FEFF 		bl	__aeabi_dcmple
 1064 0050 0028     		cmp	r0, #0
 1065 0052 40F0AA80 		bne	.L187
 1066              	.L168:
 1067 0056 C1A3     		adr	r3, .L204+156
 1068 0058 D3E90023 		ldrd	r2, [r3]
 1069 005c 4046     		mov	r0, r8
 1070 005e 4946     		mov	r1, r9
 1071 0060 FFF7FEFF 		bl	__aeabi_dcmpge
 1072 0064 50B1     		cbz	r0, .L167
 1073 0066 BFA3     		adr	r3, .L204+164
 1074 0068 D3E90023 		ldrd	r2, [r3]
 1075 006c 4046     		mov	r0, r8
 1076 006e 4946     		mov	r1, r9
 1077 0070 FFF7FEFF 		bl	__aeabi_dcmple
 1078 0074 10B1     		cbz	r0, .L167
 1079 0076 A04C     		ldr	r4, .L204+56
 1080 0078 00E0     		b	.L167
 1081              	.L186:
 1082 007a A04C     		ldr	r4, .L204+60
 1083              	.L167:
 1084 007c 2046     		mov	r0, r4	@ float
 1085 007e FFF7FEFF 		bl	__aeabi_f2d
 1086 0082 8FA3     		adr	r3, .L204
 1087 0084 D3E90023 		ldrd	r2, [r3]
 1088 0088 FFF7FEFF 		bl	__aeabi_dadd
 1089 008c FFF7FEFF 		bl	__aeabi_d2f
 1090 0090 08EE100A 		vmov	s16, r0
 1091 0094 9A4B     		ldr	r3, .L204+64
 1092 0096 D3ED000A 		vldr.32	s1, [r3]
ARM GAS  C:\Users\ktkuru\AppData\Local\Temp\ccBhUN5S.s 			page 20


 1093 009a 9A4B     		ldr	r3, .L204+68
 1094 009c 93ED000A 		vldr.32	s0, [r3]
 1095 00a0 FFF7FEFF 		bl	GetPolar
 1096 00a4 B6EE0C0A 		vmov.f32	s0, #8.75e-1
 1097 00a8 88EE000A 		vdiv.f32	s0, s16, s0
 1098 00ac FFF7FEFF 		bl	asinf
 1099 00b0 DFED957A 		vldr.32	s15, .L204+72
 1100 00b4 60EE277A 		vmul.f32	s15, s0, s15
 1101 00b8 17EE900A 		vmov	r0, s15
 1102 00bc FFF7FEFF 		bl	__aeabi_f2d
 1103 00c0 81A3     		adr	r3, .L204+8
 1104 00c2 D3E90023 		ldrd	r2, [r3]
 1105 00c6 FFF7FEFF 		bl	__aeabi_ddiv
 1106 00ca FFF7FEFF 		bl	__aeabi_d2f
 1107 00ce 08EE100A 		vmov	s16, r0
 1108 00d2 8E4B     		ldr	r3, .L204+76
 1109 00d4 1860     		str	r0, [r3]	@ float
 1110 00d6 8E4C     		ldr	r4, .L204+80
 1111 00d8 D4ED008A 		vldr.32	s17, [r4]
 1112 00dc 18EE900A 		vmov	r0, s17
 1113 00e0 FFF7FEFF 		bl	__aeabi_f2d
 1114 00e4 7AA3     		adr	r3, .L204+16
 1115 00e6 D3E90023 		ldrd	r2, [r3]
 1116 00ea FFF7FEFF 		bl	__aeabi_dmul
 1117 00ee FFF7FEFF 		bl	__aeabi_d2f
 1118 00f2 09EE100A 		vmov	s18, r0
 1119 00f6 B0EE490A 		vmov.f32	s0, s18
 1120 00fa FFF7FEFF 		bl	sinf
 1121 00fe 68EE009A 		vmul.f32	s19, s16, s0
 1122 0102 844B     		ldr	r3, .L204+84
 1123 0104 C3ED009A 		vstr.32	s19, [r3]
 1124 0108 B0EE490A 		vmov.f32	s0, s18
 1125 010c FFF7FEFF 		bl	cosf
 1126 0110 28EE008A 		vmul.f32	s16, s16, s0
 1127 0114 804B     		ldr	r3, .L204+88
 1128 0116 83ED008A 		vstr.32	s16, [r3]
 1129 011a 804B     		ldr	r3, .L204+92
 1130 011c D3ED007A 		vldr.32	s15, [r3]
 1131 0120 78EEA78A 		vadd.f32	s17, s17, s15
 1132 0124 C4ED008A 		vstr.32	s17, [r4]
 1133 0128 18EE900A 		vmov	r0, s17
 1134 012c FFF7FEFF 		bl	__aeabi_f2d
 1135 0130 69A3     		adr	r3, .L204+24
 1136 0132 D3E90023 		ldrd	r2, [r3]
 1137 0136 FFF7FEFF 		bl	__aeabi_dcmpgt
 1138 013a 0028     		cmp	r0, #0
 1139 013c 37D1     		bne	.L203
 1140 013e 19EE100A 		vmov	r0, s18
 1141 0142 FFF7FEFF 		bl	__aeabi_f2d
 1142 0146 0446     		mov	r4, r0
 1143 0148 0D46     		mov	r5, r1
 1144 014a 65A3     		adr	r3, .L204+32
 1145 014c D3E90023 		ldrd	r2, [r3]
 1146 0150 FFF7FEFF 		bl	__aeabi_dcmplt
 1147 0154 70B3     		cbz	r0, .L174
 1148 0156 B5EEC09A 		vcmpe.f32	s18, #0
 1149 015a F1EE10FA 		vmrs	APSR_nzcv, FPSCR
ARM GAS  C:\Users\ktkuru\AppData\Local\Temp\ccBhUN5S.s 			page 21


 1150 015e 29DB     		blt	.L174
 1151 0160 6F48     		ldr	r0, .L204+96
 1152 0162 C368     		ldr	r3, [r0, #12]
 1153 0164 6F4A     		ldr	r2, .L204+100
 1154 0166 D2ED000A 		vldr.32	s1, [r2]
 1155 016a B0EE690A 		vmov.f32	s0, s19
 1156 016e 9847     		blx	r3
 1157 0170 6D4B     		ldr	r3, .L204+104
 1158 0172 83ED000A 		vstr.32	s0, [r3]
 1159 0176 6D48     		ldr	r0, .L204+108
 1160 0178 C368     		ldr	r3, [r0, #12]
 1161 017a 6D4A     		ldr	r2, .L204+112
 1162 017c D2ED000A 		vldr.32	s1, [r2]
 1163 0180 654A     		ldr	r2, .L204+88
 1164 0182 92ED000A 		vldr.32	s0, [r2]
 1165 0186 9847     		blx	r3
 1166 0188 6A4B     		ldr	r3, .L204+116
 1167 018a 83ED000A 		vstr.32	s0, [r3]
 1168 018e 0126     		movs	r6, #1
 1169              	.L177:
 1170 0190 684B     		ldr	r3, .L204+116
 1171 0192 D3ED000A 		vldr.32	s1, [r3]
 1172 0196 644B     		ldr	r3, .L204+104
 1173 0198 93ED000A 		vldr.32	s0, [r3]
 1174 019c 3046     		mov	r0, r6
 1175 019e FFF7FEFF 		bl	T5Motor_CmdCombination
 1176              	.L164:
 1177 01a2 BDEC048B 		vldm	sp!, {d8-d9}
 1178 01a6 BDE87083 		pop	{r4, r5, r6, r8, r9, pc}
 1179              	.L187:
 1180 01aa 634C     		ldr	r4, .L204+120
 1181 01ac 66E7     		b	.L167
 1182              	.L203:
 1183 01ae 0022     		movs	r2, #0
 1184 01b0 2260     		str	r2, [r4]	@ float
 1185 01b2 F6E7     		b	.L164
 1186              	.L174:
 1187 01b4 44A3     		adr	r3, .L204+8
 1188 01b6 D3E90023 		ldrd	r2, [r3]
 1189 01ba 2046     		mov	r0, r4
 1190 01bc 2946     		mov	r1, r5
 1191 01be FFF7FEFF 		bl	__aeabi_dcmplt
 1192 01c2 10B3     		cbz	r0, .L178
 1193 01c4 46A3     		adr	r3, .L204+32
 1194 01c6 D3E90023 		ldrd	r2, [r3]
 1195 01ca 2046     		mov	r0, r4
 1196 01cc 2946     		mov	r1, r5
 1197 01ce FFF7FEFF 		bl	__aeabi_dcmpge
 1198 01d2 D0B1     		cbz	r0, .L178
 1199 01d4 5248     		ldr	r0, .L204+96
 1200 01d6 C368     		ldr	r3, [r0, #12]
 1201 01d8 524A     		ldr	r2, .L204+100
 1202 01da D2ED000A 		vldr.32	s1, [r2]
 1203 01de B0EE690A 		vmov.f32	s0, s19
 1204 01e2 9847     		blx	r3
 1205 01e4 504B     		ldr	r3, .L204+104
 1206 01e6 83ED000A 		vstr.32	s0, [r3]
ARM GAS  C:\Users\ktkuru\AppData\Local\Temp\ccBhUN5S.s 			page 22


 1207 01ea 5048     		ldr	r0, .L204+108
 1208 01ec C368     		ldr	r3, [r0, #12]
 1209 01ee 504A     		ldr	r2, .L204+112
 1210 01f0 D2ED000A 		vldr.32	s1, [r2]
 1211 01f4 F1EE600A 		vneg.f32	s1, s1
 1212 01f8 474A     		ldr	r2, .L204+88
 1213 01fa 92ED000A 		vldr.32	s0, [r2]
 1214 01fe 9847     		blx	r3
 1215 0200 4C4B     		ldr	r3, .L204+116
 1216 0202 83ED000A 		vstr.32	s0, [r3]
 1217 0206 0226     		movs	r6, #2
 1218 0208 C2E7     		b	.L177
 1219              	.L178:
 1220 020a 37A3     		adr	r3, .L204+40
 1221 020c D3E90023 		ldrd	r2, [r3]
 1222 0210 2046     		mov	r0, r4
 1223 0212 2946     		mov	r1, r5
 1224 0214 FFF7FEFF 		bl	__aeabi_dcmplt
 1225 0218 20B3     		cbz	r0, .L181
 1226 021a 2BA3     		adr	r3, .L204+8
 1227 021c D3E90023 		ldrd	r2, [r3]
 1228 0220 2046     		mov	r0, r4
 1229 0222 2946     		mov	r1, r5
 1230 0224 FFF7FEFF 		bl	__aeabi_dcmpge
 1231 0228 E0B1     		cbz	r0, .L181
 1232 022a 3D48     		ldr	r0, .L204+96
 1233 022c C368     		ldr	r3, [r0, #12]
 1234 022e 3D4A     		ldr	r2, .L204+100
 1235 0230 D2ED000A 		vldr.32	s1, [r2]
 1236 0234 F1EE600A 		vneg.f32	s1, s1
 1237 0238 B0EE690A 		vmov.f32	s0, s19
 1238 023c 9847     		blx	r3
 1239 023e 3A4B     		ldr	r3, .L204+104
 1240 0240 83ED000A 		vstr.32	s0, [r3]
 1241 0244 3948     		ldr	r0, .L204+108
 1242 0246 C368     		ldr	r3, [r0, #12]
 1243 0248 394A     		ldr	r2, .L204+112
 1244 024a D2ED000A 		vldr.32	s1, [r2]
 1245 024e F1EE600A 		vneg.f32	s1, s1
 1246 0252 314A     		ldr	r2, .L204+88
 1247 0254 92ED000A 		vldr.32	s0, [r2]
 1248 0258 9847     		blx	r3
 1249 025a 364B     		ldr	r3, .L204+116
 1250 025c 83ED000A 		vstr.32	s0, [r3]
 1251 0260 0326     		movs	r6, #3
 1252 0262 95E7     		b	.L177
 1253              	.L181:
 1254 0264 22A3     		adr	r3, .L204+48
 1255 0266 D3E90023 		ldrd	r2, [r3]
 1256 026a 2046     		mov	r0, r4
 1257 026c 2946     		mov	r1, r5
 1258 026e FFF7FEFF 		bl	__aeabi_dcmplt
 1259 0272 0028     		cmp	r0, #0
 1260 0274 8CD0     		beq	.L177
 1261 0276 1CA3     		adr	r3, .L204+40
 1262 0278 D3E90023 		ldrd	r2, [r3]
 1263 027c 2046     		mov	r0, r4
ARM GAS  C:\Users\ktkuru\AppData\Local\Temp\ccBhUN5S.s 			page 23


 1264 027e 2946     		mov	r1, r5
 1265 0280 FFF7FEFF 		bl	__aeabi_dcmpge
 1266 0284 0028     		cmp	r0, #0
 1267 0286 83D0     		beq	.L177
 1268 0288 2548     		ldr	r0, .L204+96
 1269 028a C368     		ldr	r3, [r0, #12]
 1270 028c 254A     		ldr	r2, .L204+100
 1271 028e D2ED000A 		vldr.32	s1, [r2]
 1272 0292 F1EE600A 		vneg.f32	s1, s1
 1273 0296 B0EE690A 		vmov.f32	s0, s19
 1274 029a 9847     		blx	r3
 1275 029c 224B     		ldr	r3, .L204+104
 1276 029e 83ED000A 		vstr.32	s0, [r3]
 1277 02a2 2248     		ldr	r0, .L204+108
 1278 02a4 C368     		ldr	r3, [r0, #12]
 1279 02a6 224A     		ldr	r2, .L204+112
 1280 02a8 D2ED000A 		vldr.32	s1, [r2]
 1281 02ac 1A4A     		ldr	r2, .L204+88
 1282 02ae 92ED000A 		vldr.32	s0, [r2]
 1283 02b2 9847     		blx	r3
 1284 02b4 1F4B     		ldr	r3, .L204+116
 1285 02b6 83ED000A 		vstr.32	s0, [r3]
 1286 02ba 0426     		movs	r6, #4
 1287 02bc 68E7     		b	.L177
 1288              	.L205:
 1289 02be 00BF     		.align	3
 1290              	.L204:
 1291 02c0 9A999999 		.word	-1717986918
 1292 02c4 9999A93F 		.word	1068079513
 1293 02c8 4AD8124D 		.word	1293080650
 1294 02cc FB210940 		.word	1074340347
 1295 02d0 7983A29B 		.word	-1683848327
 1296 02d4 A1F40D40 		.word	1074656417
 1297 02d8 0C022B87 		.word	-2027224564
 1298 02dc 16D9FA3F 		.word	1073404182
 1299 02e0 4AD8124D 		.word	1293080650
 1300 02e4 FB21F93F 		.word	1073291771
 1301 02e8 3822CE79 		.word	2043552312
 1302 02ec 7CD91240 		.word	1074977148
 1303 02f0 4AD8124D 		.word	1293080650
 1304 02f4 FB211940 		.word	1075388923
 1305 02f8 0AD7A33E 		.word	1050924810
 1306 02fc 8FC2753E 		.word	1047904911
 1307 0300 00000000 		.word	pitch
 1308 0304 00000000 		.word	roll
 1309 0308 00003443 		.word	1127481344
 1310 030c 00000000 		.word	A.7
 1311 0310 00000000 		.word	time.6
 1312 0314 00000000 		.word	Vtarget_angle.5
 1313 0318 00000000 		.word	Ltarget_angle.4
 1314 031c 00000000 		.word	timepp
 1315 0320 00000000 		.word	Taks5Pid.3
 1316 0324 00000000 		.word	absroll
 1317 0328 00000000 		.word	VOutput.2
 1318 032c 00000000 		.word	Taks5Pid2.1
 1319 0330 00000000 		.word	abspitch
 1320 0334 00000000 		.word	LOutput.0
ARM GAS  C:\Users\ktkuru\AppData\Local\Temp\ccBhUN5S.s 			page 24


 1321 0338 713D8A3E 		.word	1049247089
 1322 033c B81E85EB 		.word	-343597384
 1323 0340 51B8CE3F 		.word	1070512209
 1324 0344 A4703D0A 		.word	171798692
 1325 0348 D7A3D03F 		.word	1070638039
 1326 034c 8FC2F528 		.word	687194767
 1327 0350 5C8FD23F 		.word	1070763868
 1328 0354 D7A3703D 		.word	1030792151
 1329 0358 0AD7D33F 		.word	1070847754
 1330 035c C3F5285C 		.word	1546188227
 1331 0360 8FC2D53F 		.word	1070973583
 1332 0364 0AD7A370 		.word	1889785610
 1333 0368 3D0AD73F 		.word	1071057469
 1335              		.section	.text.TIM2_IRQHandler,"ax",%progbits
 1336              		.align	1
 1337              		.global	TIM2_IRQHandler
 1338              		.syntax unified
 1339              		.thumb
 1340              		.thumb_func
 1342              	TIM2_IRQHandler:
 1343              		@ args = 0, pretend = 0, frame = 0
 1344              		@ frame_needed = 0, uses_anonymous_args = 0
 1345 0000 08B5     		push	{r3, lr}
 1346 0002 0121     		movs	r1, #1
 1347 0004 4FF08040 		mov	r0, #1073741824
 1348 0008 FFF7FEFF 		bl	TIM_GetITStatus
 1349 000c 00B9     		cbnz	r0, .L209
 1350              	.L206:
 1351 000e 08BD     		pop	{r3, pc}
 1352              	.L209:
 1353 0010 0121     		movs	r1, #1
 1354 0012 4FF08040 		mov	r0, #1073741824
 1355 0016 FFF7FEFF 		bl	TIM_ClearITPendingBit
 1356 001a 034B     		ldr	r3, .L210
 1357 001c 93ED000A 		vldr.32	s0, [r3]
 1358 0020 FFF7FEFF 		bl	Task5_CircleMove
 1359 0024 F3E7     		b	.L206
 1360              	.L211:
 1361 0026 00BF     		.align	2
 1362              	.L210:
 1363 0028 00000000 		.word	target_R
 1365              		.section	.bss.LOutput.0,"aw",%nobits
 1366              		.align	2
 1369              	LOutput.0:
 1370 0000 00000000 		.space	4
 1371              		.section	.data.Taks5Pid2.1,"aw"
 1372              		.align	2
 1375              	Taks5Pid2.1:
 1376 0000 00809343 		.word	1133740032
 1377 0004 00000000 		.word	0
 1378 0008 00000000 		.word	0
 1379 000c 00000000 		.word	PidControl_LineMove
 1380              		.section	.bss.VOutput.2,"aw",%nobits
 1381              		.align	2
 1384              	VOutput.2:
 1385 0000 00000000 		.space	4
 1386              		.section	.data.Taks5Pid.3,"aw"
ARM GAS  C:\Users\ktkuru\AppData\Local\Temp\ccBhUN5S.s 			page 25


 1387              		.align	2
 1390              	Taks5Pid.3:
 1391 0000 00809343 		.word	1133740032
 1392 0004 00000000 		.word	0
 1393 0008 00000000 		.word	0
 1394 000c 00000000 		.word	PidControl_LineMove
 1395              		.section	.bss.Ltarget_angle.4,"aw",%nobits
 1396              		.align	2
 1399              	Ltarget_angle.4:
 1400 0000 00000000 		.space	4
 1401              		.section	.bss.Vtarget_angle.5,"aw",%nobits
 1402              		.align	2
 1405              	Vtarget_angle.5:
 1406 0000 00000000 		.space	4
 1407              		.section	.bss.time.6,"aw",%nobits
 1408              		.align	2
 1411              	time.6:
 1412 0000 00000000 		.space	4
 1413              		.section	.bss.A.7,"aw",%nobits
 1414              		.align	2
 1417              	A.7:
 1418 0000 00000000 		.space	4
 1419              		.section	.data.Taks3Pid8.8,"aw"
 1420              		.align	2
 1423              	Taks3Pid8.8:
 1424 0000 0000AA43 		.word	1135214592
 1425 0004 00000000 		.word	0
 1426 0008 0000B4C2 		.word	-1028390912
 1427 000c 00000000 		.word	PidControl_LineMove
 1428              		.section	.data.Taks3Pid7.9,"aw"
 1429              		.align	2
 1432              	Taks3Pid7.9:
 1433 0000 0000AA43 		.word	1135214592
 1434 0004 00000000 		.word	0
 1435 0008 0000B4C2 		.word	-1028390912
 1436 000c 00000000 		.word	PidControl_LineMove
 1437              		.section	.data.Taks3Pid6.10,"aw"
 1438              		.align	2
 1441              	Taks3Pid6.10:
 1442 0000 0000BE43 		.word	1136525312
 1443 0004 00000000 		.word	0
 1444 0008 0000F0C2 		.word	-1024458752
 1445 000c 00000000 		.word	PidControl_LineMove
 1446              		.section	.data.Taks3Pid5.11,"aw"
 1447              		.align	2
 1450              	Taks3Pid5.11:
 1451 0000 0000BE43 		.word	1136525312
 1452 0004 00000000 		.word	0
 1453 0008 0000F0C2 		.word	-1024458752
 1454 000c 00000000 		.word	PidControl_LineMove
 1455              		.section	.data.Taks3Pid4.12,"aw"
 1456              		.align	2
 1459              	Taks3Pid4.12:
 1460 0000 0080AC43 		.word	1135378432
 1461 0004 00000000 		.word	0
 1462 0008 0000DCC2 		.word	-1025769472
 1463 000c 00000000 		.word	PidControl_LineMove
ARM GAS  C:\Users\ktkuru\AppData\Local\Temp\ccBhUN5S.s 			page 26


 1464              		.section	.data.Taks3Pid3.13,"aw"
 1465              		.align	2
 1468              	Taks3Pid3.13:
 1469 0000 0080AC43 		.word	1135378432
 1470 0004 00000000 		.word	0
 1471 0008 0000DCC2 		.word	-1025769472
 1472 000c 00000000 		.word	PidControl_LineMove
 1473              		.section	.bss.LOutput.14,"aw",%nobits
 1474              		.align	2
 1477              	LOutput.14:
 1478 0000 00000000 		.space	4
 1479              		.section	.data.Taks3Pid2.15,"aw"
 1480              		.align	2
 1483              	Taks3Pid2.15:
 1484 0000 0000B443 		.word	1135869952
 1485 0004 00000000 		.word	0
 1486 0008 0000B4C2 		.word	-1028390912
 1487 000c 00000000 		.word	PidControl_LineMove
 1488              		.section	.bss.VOutput.16,"aw",%nobits
 1489              		.align	2
 1492              	VOutput.16:
 1493 0000 00000000 		.space	4
 1494              		.section	.data.Taks3Pid1.17,"aw"
 1495              		.align	2
 1498              	Taks3Pid1.17:
 1499 0000 0000B443 		.word	1135869952
 1500 0004 00000000 		.word	0
 1501 0008 0000B4C2 		.word	-1028390912
 1502 000c 00000000 		.word	PidControl_LineMove
 1503              		.section	.bss.Ltarget_angle.18,"aw",%nobits
 1504              		.align	2
 1507              	Ltarget_angle.18:
 1508 0000 00000000 		.space	4
 1509              		.section	.bss.Vtarget_angle.19,"aw",%nobits
 1510              		.align	2
 1513              	Vtarget_angle.19:
 1514 0000 00000000 		.space	4
 1515              		.section	.bss.time.20,"aw",%nobits
 1516              		.align	2
 1519              	time.20:
 1520 0000 00000000 		.space	4
 1521              		.section	.bss.target_pitch.21,"aw",%nobits
 1522              		.align	2
 1525              	target_pitch.21:
 1526 0000 00000000 		.space	4
 1527              		.section	.bss.target_roll.22,"aw",%nobits
 1528              		.align	2
 1531              	target_roll.22:
 1532 0000 00000000 		.space	4
 1533              		.section	.data.Taks1Pid2.23,"aw"
 1534              		.align	2
 1537              	Taks1Pid2.23:
 1538 0000 00806D44 		.word	1148026880
 1539 0004 00000000 		.word	0
 1540 0008 0000A0C3 		.word	-1012924416
 1541 000c 00000000 		.word	PidControl_LineMove
 1542              		.section	.bss.LOutput.24,"aw",%nobits
ARM GAS  C:\Users\ktkuru\AppData\Local\Temp\ccBhUN5S.s 			page 27


 1543              		.align	2
 1546              	LOutput.24:
 1547 0000 00000000 		.space	4
 1548              		.section	.bss.VOutput.25,"aw",%nobits
 1549              		.align	2
 1552              	VOutput.25:
 1553 0000 00000000 		.space	4
 1554              		.section	.data.Taks1Pid1.26,"aw"
 1555              		.align	2
 1558              	Taks1Pid1.26:
 1559 0000 00803B44 		.word	1144750080
 1560 0004 00000000 		.word	0
 1561 0008 008093C3 		.word	-1013743616
 1562 000c 00000000 		.word	PidControl_LineMove
 1563              		.section	.bss.time.27,"aw",%nobits
 1564              		.align	2
 1567              	time.27:
 1568 0000 00000000 		.space	4
 1569              		.section	.bss.A.28,"aw",%nobits
 1570              		.align	2
 1573              	A.28:
 1574 0000 00000000 		.space	4
 1575              		.section	.bss.Output.29,"aw",%nobits
 1576              		.align	2
 1579              	Output.29:
 1580 0000 00000000 		.space	4
 1581              		.section	.data.Taks4Pid.30,"aw"
 1582              		.align	2
 1585              	Taks4Pid.30:
 1586 0000 009A1747 		.word	1192729088
 1587 0004 00000000 		.word	0
 1588 0008 000096C3 		.word	-1013579776
 1589 000c 00000000 		.word	PidControl_Stop
 1590              		.global	timepp
 1591              		.section	.data.timepp,"aw"
 1592              		.align	2
 1595              	timepp:
 1596 0000 2D7A273C 		.word	1009220141
 1597              		.global	target_angle
 1598              		.section	.bss.target_angle,"aw",%nobits
 1599              		.align	2
 1602              	target_angle:
 1603 0000 00000000 		.space	4
 1604              		.global	target_R
 1605              		.section	.data.target_R,"aw"
 1606              		.align	2
 1609              	target_R:
 1610 0000 9A99193E 		.word	1041865114
 1611              		.global	mode
 1612              		.section	.bss.mode,"aw",%nobits
 1615              	mode:
 1616 0000 00       		.space	1
 1617              		.global	Target_angle
 1618              		.section	.bss.Target_angle,"aw",%nobits
 1619              		.align	2
 1622              	Target_angle:
 1623 0000 00000000 		.space	4
ARM GAS  C:\Users\ktkuru\AppData\Local\Temp\ccBhUN5S.s 			page 28


 1624              		.global	Target_dis
 1625              		.section	.bss.Target_dis,"aw",%nobits
 1626              		.align	2
 1629              	Target_dis:
 1630 0000 00000000 		.space	4
 1631              		.global	de
 1632              		.section	.data.de,"aw"
 1633              		.align	2
 1636              	de:
 1637 0000 FFFFFFFF 		.word	-1
 1638 0004 00000000 		.word	0
 1639 0008 FBFFFFFF 		.word	-5
 1640 000c F9FFFFFF 		.word	-7
 1641 0010 0C000000 		.word	12
 1642 0014 0A000000 		.word	10
 1643 0018 F6FFFFFF 		.word	-10
 1644              		.ident	"GCC: (Arm GNU Toolchain 13.3.Rel1 (Build arm-13.24)) 13.3.1 20240614"
ARM GAS  C:\Users\ktkuru\AppData\Local\Temp\ccBhUN5S.s 			page 29


DEFINED SYMBOLS
                            *ABS*:00000000 Control_Task.c
C:\Users\ktkuru\AppData\Local\Temp\ccBhUN5S.s:18     .text.Task4_StopFast:00000000 $t
C:\Users\ktkuru\AppData\Local\Temp\ccBhUN5S.s:24     .text.Task4_StopFast:00000000 Task4_StopFast
C:\Users\ktkuru\AppData\Local\Temp\ccBhUN5S.s:46     .text.Task4_StopFast:00000030 $d
C:\Users\ktkuru\AppData\Local\Temp\ccBhUN5S.s:1585   .data.Taks4Pid.30:00000000 Taks4Pid.30
C:\Users\ktkuru\AppData\Local\Temp\ccBhUN5S.s:1579   .bss.Output.29:00000000 Output.29
C:\Users\ktkuru\AppData\Local\Temp\ccBhUN5S.s:62     .text.Task1_LineMove:00000000 $t
C:\Users\ktkuru\AppData\Local\Temp\ccBhUN5S.s:68     .text.Task1_LineMove:00000000 Task1_LineMove
C:\Users\ktkuru\AppData\Local\Temp\ccBhUN5S.s:219    .text.Task1_LineMove:00000198 $d
C:\Users\ktkuru\AppData\Local\Temp\ccBhUN5S.s:1573   .bss.A.28:00000000 A.28
C:\Users\ktkuru\AppData\Local\Temp\ccBhUN5S.s:1567   .bss.time.27:00000000 time.27
C:\Users\ktkuru\AppData\Local\Temp\ccBhUN5S.s:1602   .bss.target_angle:00000000 target_angle
C:\Users\ktkuru\AppData\Local\Temp\ccBhUN5S.s:1558   .data.Taks1Pid1.26:00000000 Taks1Pid1.26
C:\Users\ktkuru\AppData\Local\Temp\ccBhUN5S.s:1552   .bss.VOutput.25:00000000 VOutput.25
C:\Users\ktkuru\AppData\Local\Temp\ccBhUN5S.s:1546   .bss.LOutput.24:00000000 LOutput.24
C:\Users\ktkuru\AppData\Local\Temp\ccBhUN5S.s:1537   .data.Taks1Pid2.23:00000000 Taks1Pid2.23
C:\Users\ktkuru\AppData\Local\Temp\ccBhUN5S.s:247    .text.Task3_AngleMove:00000000 $t
C:\Users\ktkuru\AppData\Local\Temp\ccBhUN5S.s:253    .text.Task3_AngleMove:00000000 Task3_AngleMove
C:\Users\ktkuru\AppData\Local\Temp\ccBhUN5S.s:518    .text.Task3_AngleMove:00000318 $d
C:\Users\ktkuru\AppData\Local\Temp\ccBhUN5S.s:1636   .data.de:00000000 de
C:\Users\ktkuru\AppData\Local\Temp\ccBhUN5S.s:1531   .bss.target_roll.22:00000000 target_roll.22
C:\Users\ktkuru\AppData\Local\Temp\ccBhUN5S.s:1525   .bss.target_pitch.21:00000000 target_pitch.21
C:\Users\ktkuru\AppData\Local\Temp\ccBhUN5S.s:1519   .bss.time.20:00000000 time.20
C:\Users\ktkuru\AppData\Local\Temp\ccBhUN5S.s:1513   .bss.Vtarget_angle.19:00000000 Vtarget_angle.19
C:\Users\ktkuru\AppData\Local\Temp\ccBhUN5S.s:1507   .bss.Ltarget_angle.18:00000000 Ltarget_angle.18
C:\Users\ktkuru\AppData\Local\Temp\ccBhUN5S.s:1498   .data.Taks3Pid1.17:00000000 Taks3Pid1.17
C:\Users\ktkuru\AppData\Local\Temp\ccBhUN5S.s:1492   .bss.VOutput.16:00000000 VOutput.16
C:\Users\ktkuru\AppData\Local\Temp\ccBhUN5S.s:1483   .data.Taks3Pid2.15:00000000 Taks3Pid2.15
C:\Users\ktkuru\AppData\Local\Temp\ccBhUN5S.s:1477   .bss.LOutput.14:00000000 LOutput.14
C:\Users\ktkuru\AppData\Local\Temp\ccBhUN5S.s:548    .text.Task3_AngleMove:0000038c $t
C:\Users\ktkuru\AppData\Local\Temp\ccBhUN5S.s:784    .text.Task3_AngleMove:00000620 $d
C:\Users\ktkuru\AppData\Local\Temp\ccBhUN5S.s:1468   .data.Taks3Pid3.13:00000000 Taks3Pid3.13
C:\Users\ktkuru\AppData\Local\Temp\ccBhUN5S.s:1459   .data.Taks3Pid4.12:00000000 Taks3Pid4.12
C:\Users\ktkuru\AppData\Local\Temp\ccBhUN5S.s:1629   .bss.Target_dis:00000000 Target_dis
C:\Users\ktkuru\AppData\Local\Temp\ccBhUN5S.s:1450   .data.Taks3Pid5.11:00000000 Taks3Pid5.11
C:\Users\ktkuru\AppData\Local\Temp\ccBhUN5S.s:1441   .data.Taks3Pid6.10:00000000 Taks3Pid6.10
C:\Users\ktkuru\AppData\Local\Temp\ccBhUN5S.s:1432   .data.Taks3Pid7.9:00000000 Taks3Pid7.9
C:\Users\ktkuru\AppData\Local\Temp\ccBhUN5S.s:1423   .data.Taks3Pid8.8:00000000 Taks3Pid8.8
C:\Users\ktkuru\AppData\Local\Temp\ccBhUN5S.s:813    .text.Task3_AngleMove:00000690 $t
C:\Users\ktkuru\AppData\Local\Temp\ccBhUN5S.s:932    .text.Task3_AngleMove:000007e0 $d
C:\Users\ktkuru\AppData\Local\Temp\ccBhUN5S.s:951    .text.EXTI15_10_IRQHandler:00000000 $t
C:\Users\ktkuru\AppData\Local\Temp\ccBhUN5S.s:957    .text.EXTI15_10_IRQHandler:00000000 EXTI15_10_IRQHandler
C:\Users\ktkuru\AppData\Local\Temp\ccBhUN5S.s:985    .text.EXTI15_10_IRQHandler:00000038 $d
C:\Users\ktkuru\AppData\Local\Temp\ccBhUN5S.s:990    .text.EXTI15_10_IRQHandler:0000004c $t
C:\Users\ktkuru\AppData\Local\Temp\ccBhUN5S.s:1017   .text.EXTI15_10_IRQHandler:00000088 $d
C:\Users\ktkuru\AppData\Local\Temp\ccBhUN5S.s:1615   .bss.mode:00000000 mode
C:\Users\ktkuru\AppData\Local\Temp\ccBhUN5S.s:1622   .bss.Target_angle:00000000 Target_angle
C:\Users\ktkuru\AppData\Local\Temp\ccBhUN5S.s:1026   .text.Task5_CircleMove:00000000 $t
C:\Users\ktkuru\AppData\Local\Temp\ccBhUN5S.s:1032   .text.Task5_CircleMove:00000000 Task5_CircleMove
C:\Users\ktkuru\AppData\Local\Temp\ccBhUN5S.s:1291   .text.Task5_CircleMove:000002c0 $d
C:\Users\ktkuru\AppData\Local\Temp\ccBhUN5S.s:1417   .bss.A.7:00000000 A.7
C:\Users\ktkuru\AppData\Local\Temp\ccBhUN5S.s:1411   .bss.time.6:00000000 time.6
C:\Users\ktkuru\AppData\Local\Temp\ccBhUN5S.s:1405   .bss.Vtarget_angle.5:00000000 Vtarget_angle.5
C:\Users\ktkuru\AppData\Local\Temp\ccBhUN5S.s:1399   .bss.Ltarget_angle.4:00000000 Ltarget_angle.4
C:\Users\ktkuru\AppData\Local\Temp\ccBhUN5S.s:1595   .data.timepp:00000000 timepp
C:\Users\ktkuru\AppData\Local\Temp\ccBhUN5S.s:1390   .data.Taks5Pid.3:00000000 Taks5Pid.3
ARM GAS  C:\Users\ktkuru\AppData\Local\Temp\ccBhUN5S.s 			page 30


C:\Users\ktkuru\AppData\Local\Temp\ccBhUN5S.s:1384   .bss.VOutput.2:00000000 VOutput.2
C:\Users\ktkuru\AppData\Local\Temp\ccBhUN5S.s:1375   .data.Taks5Pid2.1:00000000 Taks5Pid2.1
C:\Users\ktkuru\AppData\Local\Temp\ccBhUN5S.s:1369   .bss.LOutput.0:00000000 LOutput.0
C:\Users\ktkuru\AppData\Local\Temp\ccBhUN5S.s:1336   .text.TIM2_IRQHandler:00000000 $t
C:\Users\ktkuru\AppData\Local\Temp\ccBhUN5S.s:1342   .text.TIM2_IRQHandler:00000000 TIM2_IRQHandler
C:\Users\ktkuru\AppData\Local\Temp\ccBhUN5S.s:1363   .text.TIM2_IRQHandler:00000028 $d
C:\Users\ktkuru\AppData\Local\Temp\ccBhUN5S.s:1609   .data.target_R:00000000 target_R
C:\Users\ktkuru\AppData\Local\Temp\ccBhUN5S.s:1366   .bss.LOutput.0:00000000 $d
C:\Users\ktkuru\AppData\Local\Temp\ccBhUN5S.s:1372   .data.Taks5Pid2.1:00000000 $d
C:\Users\ktkuru\AppData\Local\Temp\ccBhUN5S.s:1381   .bss.VOutput.2:00000000 $d
C:\Users\ktkuru\AppData\Local\Temp\ccBhUN5S.s:1387   .data.Taks5Pid.3:00000000 $d
C:\Users\ktkuru\AppData\Local\Temp\ccBhUN5S.s:1396   .bss.Ltarget_angle.4:00000000 $d
C:\Users\ktkuru\AppData\Local\Temp\ccBhUN5S.s:1402   .bss.Vtarget_angle.5:00000000 $d
C:\Users\ktkuru\AppData\Local\Temp\ccBhUN5S.s:1408   .bss.time.6:00000000 $d
C:\Users\ktkuru\AppData\Local\Temp\ccBhUN5S.s:1414   .bss.A.7:00000000 $d
C:\Users\ktkuru\AppData\Local\Temp\ccBhUN5S.s:1420   .data.Taks3Pid8.8:00000000 $d
C:\Users\ktkuru\AppData\Local\Temp\ccBhUN5S.s:1429   .data.Taks3Pid7.9:00000000 $d
C:\Users\ktkuru\AppData\Local\Temp\ccBhUN5S.s:1438   .data.Taks3Pid6.10:00000000 $d
C:\Users\ktkuru\AppData\Local\Temp\ccBhUN5S.s:1447   .data.Taks3Pid5.11:00000000 $d
C:\Users\ktkuru\AppData\Local\Temp\ccBhUN5S.s:1456   .data.Taks3Pid4.12:00000000 $d
C:\Users\ktkuru\AppData\Local\Temp\ccBhUN5S.s:1465   .data.Taks3Pid3.13:00000000 $d
C:\Users\ktkuru\AppData\Local\Temp\ccBhUN5S.s:1474   .bss.LOutput.14:00000000 $d
C:\Users\ktkuru\AppData\Local\Temp\ccBhUN5S.s:1480   .data.Taks3Pid2.15:00000000 $d
C:\Users\ktkuru\AppData\Local\Temp\ccBhUN5S.s:1489   .bss.VOutput.16:00000000 $d
C:\Users\ktkuru\AppData\Local\Temp\ccBhUN5S.s:1495   .data.Taks3Pid1.17:00000000 $d
C:\Users\ktkuru\AppData\Local\Temp\ccBhUN5S.s:1504   .bss.Ltarget_angle.18:00000000 $d
C:\Users\ktkuru\AppData\Local\Temp\ccBhUN5S.s:1510   .bss.Vtarget_angle.19:00000000 $d
C:\Users\ktkuru\AppData\Local\Temp\ccBhUN5S.s:1516   .bss.time.20:00000000 $d
C:\Users\ktkuru\AppData\Local\Temp\ccBhUN5S.s:1522   .bss.target_pitch.21:00000000 $d
C:\Users\ktkuru\AppData\Local\Temp\ccBhUN5S.s:1528   .bss.target_roll.22:00000000 $d
C:\Users\ktkuru\AppData\Local\Temp\ccBhUN5S.s:1534   .data.Taks1Pid2.23:00000000 $d
C:\Users\ktkuru\AppData\Local\Temp\ccBhUN5S.s:1543   .bss.LOutput.24:00000000 $d
C:\Users\ktkuru\AppData\Local\Temp\ccBhUN5S.s:1549   .bss.VOutput.25:00000000 $d
C:\Users\ktkuru\AppData\Local\Temp\ccBhUN5S.s:1555   .data.Taks1Pid1.26:00000000 $d
C:\Users\ktkuru\AppData\Local\Temp\ccBhUN5S.s:1564   .bss.time.27:00000000 $d
C:\Users\ktkuru\AppData\Local\Temp\ccBhUN5S.s:1570   .bss.A.28:00000000 $d
C:\Users\ktkuru\AppData\Local\Temp\ccBhUN5S.s:1576   .bss.Output.29:00000000 $d
C:\Users\ktkuru\AppData\Local\Temp\ccBhUN5S.s:1582   .data.Taks4Pid.30:00000000 $d
C:\Users\ktkuru\AppData\Local\Temp\ccBhUN5S.s:1592   .data.timepp:00000000 $d
C:\Users\ktkuru\AppData\Local\Temp\ccBhUN5S.s:1599   .bss.target_angle:00000000 $d
C:\Users\ktkuru\AppData\Local\Temp\ccBhUN5S.s:1606   .data.target_R:00000000 $d
C:\Users\ktkuru\AppData\Local\Temp\ccBhUN5S.s:1616   .bss.mode:00000000 $d
C:\Users\ktkuru\AppData\Local\Temp\ccBhUN5S.s:1619   .bss.Target_angle:00000000 $d
C:\Users\ktkuru\AppData\Local\Temp\ccBhUN5S.s:1626   .bss.Target_dis:00000000 $d
C:\Users\ktkuru\AppData\Local\Temp\ccBhUN5S.s:1633   .data.de:00000000 $d

UNDEFINED SYMBOLS
GetPolar
PWM_Allocation
pitch
roll
dis
__aeabi_f2d
__aeabi_ddiv
__aeabi_d2f
__aeabi_dmul
__aeabi_dcmple
ARM GAS  C:\Users\ktkuru\AppData\Local\Temp\ccBhUN5S.s 			page 31


__aeabi_dcmpge
__aeabi_dadd
__aeabi_dcmplt
atanf
sinf
Motor_Cmd
cosf
T3Motor_CmdCombination
EXTI_GetITStatus
EXTI_ClearITPendingBit
mpu_dmp_get_data
StopAllMotor
yaw
__aeabi_dcmpgt
asinf
T5Motor_CmdCombination
absroll
abspitch
TIM_GetITStatus
TIM_ClearITPendingBit
PidControl_LineMove
PidControl_Stop
