ARM GAS  C:\Users\ktkuru\AppData\Local\Temp\ccd7ihvQ.s 			page 1


   1              		.cpu cortex-m4
   2              		.arch armv7e-m
   3              		.fpu fpv4-sp-d16
   4              		.eabi_attribute 27, 1
   5              		.eabi_attribute 28, 1
   6              		.eabi_attribute 20, 1
   7              		.eabi_attribute 21, 1
   8              		.eabi_attribute 23, 3
   9              		.eabi_attribute 24, 1
  10              		.eabi_attribute 25, 1
  11              		.eabi_attribute 26, 1
  12              		.eabi_attribute 30, 1
  13              		.eabi_attribute 34, 1
  14              		.eabi_attribute 18, 4
  15              		.file	"Control_Task.c"
  16              		.text
  17              		.section	.text.Task4_StopFast,"ax",%progbits
  18              		.align	1
  19              		.global	Task4_StopFast
  20              		.syntax unified
  21              		.thumb
  22              		.thumb_func
  24              	Task4_StopFast:
  25              		@ args = 0, pretend = 0, frame = 0
  26              		@ frame_needed = 0, uses_anonymous_args = 0
  27 0000 08B5     		push	{r3, lr}
  28 0002 064B     		ldr	r3, .L3
  29 0004 D3ED000A 		vldr.32	s1, [r3]
  30 0008 9FED050A 		vldr.32	s0, .L3+4
  31 000c FFF7FEFF 		bl	PidControl_Stop
  32 0010 044B     		ldr	r3, .L3+8
  33 0012 83ED000A 		vstr.32	s0, [r3]
  34 0016 FFF7FEFF 		bl	PWM_Allocation
  35 001a 08BD     		pop	{r3, pc}
  36              	.L4:
  37              		.align	2
  38              	.L3:
  39 001c 00000000 		.word	dis
  40 0020 00000000 		.word	0
  41 0024 00000000 		.word	Output.0
  43              		.section	.text.EXTI15_10_IRQHandler,"ax",%progbits
  44              		.align	1
  45              		.global	EXTI15_10_IRQHandler
  46              		.syntax unified
  47              		.thumb
  48              		.thumb_func
  50              	EXTI15_10_IRQHandler:
  51              		@ args = 0, pretend = 0, frame = 0
  52              		@ frame_needed = 0, uses_anonymous_args = 0
  53 0000 38B5     		push	{r3, r4, r5, lr}
  54 0002 4FF40040 		mov	r0, #32768
  55 0006 FFF7FEFF 		bl	EXTI_GetITStatus
  56 000a 00B9     		cbnz	r0, .L8
  57              	.L5:
  58 000c 38BD     		pop	{r3, r4, r5, pc}
  59              	.L8:
  60 000e 4FF40040 		mov	r0, #32768
ARM GAS  C:\Users\ktkuru\AppData\Local\Temp\ccd7ihvQ.s 			page 2


  61 0012 FFF7FEFF 		bl	EXTI_ClearITPendingBit
  62 0016 084C     		ldr	r4, .L9
  63 0018 084D     		ldr	r5, .L9+4
  64 001a 094A     		ldr	r2, .L9+8
  65 001c 2146     		mov	r1, r4
  66 001e 2846     		mov	r0, r5
  67 0020 FFF7FEFF 		bl	mpu_dmp_get_data
  68 0024 D5ED000A 		vldr.32	s1, [r5]
  69 0028 94ED000A 		vldr.32	s0, [r4]
  70 002c FFF7FEFF 		bl	GetPolar
  71 0030 FFF7FEFF 		bl	Task4_StopFast
  72 0034 EAE7     		b	.L5
  73              	.L10:
  74 0036 00BF     		.align	2
  75              	.L9:
  76 0038 00000000 		.word	roll
  77 003c 00000000 		.word	pitch
  78 0040 00000000 		.word	yaw
  80              		.section	.bss.Output.0,"aw",%nobits
  81              		.align	2
  84              	Output.0:
  85 0000 00000000 		.space	4
  86              		.global	T4SKd
  87              		.section	.data.T4SKd,"aw"
  88              		.align	2
  91              	T4SKd:
  92 0000 000048C3 		.word	-1018691584
  93              		.global	T4SKi
  94              		.section	.data.T4SKi,"aw"
  95              		.align	2
  98              	T4SKi:
  99 0000 000080BF 		.word	-1082130432
 100              		.global	T4SKp
 101              		.section	.data.T4SKp,"aw"
 102              		.align	2
 105              	T4SKp:
 106 0000 00002F44 		.word	1143930880
 107              		.ident	"GCC: (Arm GNU Toolchain 13.3.Rel1 (Build arm-13.24)) 13.3.1 20240614"
ARM GAS  C:\Users\ktkuru\AppData\Local\Temp\ccd7ihvQ.s 			page 3


DEFINED SYMBOLS
                            *ABS*:00000000 Control_Task.c
C:\Users\ktkuru\AppData\Local\Temp\ccd7ihvQ.s:18     .text.Task4_StopFast:00000000 $t
C:\Users\ktkuru\AppData\Local\Temp\ccd7ihvQ.s:24     .text.Task4_StopFast:00000000 Task4_StopFast
C:\Users\ktkuru\AppData\Local\Temp\ccd7ihvQ.s:39     .text.Task4_StopFast:0000001c $d
C:\Users\ktkuru\AppData\Local\Temp\ccd7ihvQ.s:84     .bss.Output.0:00000000 Output.0
C:\Users\ktkuru\AppData\Local\Temp\ccd7ihvQ.s:44     .text.EXTI15_10_IRQHandler:00000000 $t
C:\Users\ktkuru\AppData\Local\Temp\ccd7ihvQ.s:50     .text.EXTI15_10_IRQHandler:00000000 EXTI15_10_IRQHandler
C:\Users\ktkuru\AppData\Local\Temp\ccd7ihvQ.s:76     .text.EXTI15_10_IRQHandler:00000038 $d
C:\Users\ktkuru\AppData\Local\Temp\ccd7ihvQ.s:81     .bss.Output.0:00000000 $d
C:\Users\ktkuru\AppData\Local\Temp\ccd7ihvQ.s:91     .data.T4SKd:00000000 T4SKd
C:\Users\ktkuru\AppData\Local\Temp\ccd7ihvQ.s:88     .data.T4SKd:00000000 $d
C:\Users\ktkuru\AppData\Local\Temp\ccd7ihvQ.s:98     .data.T4SKi:00000000 T4SKi
C:\Users\ktkuru\AppData\Local\Temp\ccd7ihvQ.s:95     .data.T4SKi:00000000 $d
C:\Users\ktkuru\AppData\Local\Temp\ccd7ihvQ.s:105    .data.T4SKp:00000000 T4SKp
C:\Users\ktkuru\AppData\Local\Temp\ccd7ihvQ.s:102    .data.T4SKp:00000000 $d

UNDEFINED SYMBOLS
PidControl_Stop
PWM_Allocation
dis
EXTI_GetITStatus
EXTI_ClearITPendingBit
mpu_dmp_get_data
GetPolar
roll
pitch
yaw
