ARM GAS  C:\Users\ktkuru\AppData\Local\Temp\ccqfvYKz.s 			page 1


   1              		.cpu cortex-m4
   2              		.arch armv7e-m
   3              		.fpu fpv4-sp-d16
   4              		.eabi_attribute 27, 1
   5              		.eabi_attribute 28, 1
   6              		.eabi_attribute 20, 1
   7              		.eabi_attribute 21, 1
   8              		.eabi_attribute 23, 3
   9              		.eabi_attribute 24, 1
  10              		.eabi_attribute 25, 1
  11              		.eabi_attribute 26, 1
  12              		.eabi_attribute 30, 1
  13              		.eabi_attribute 34, 1
  14              		.eabi_attribute 18, 4
  15              		.file	"externfunc.c"
  16              		.text
  17              		.section	.text.HMI_ResCheck,"ax",%progbits
  18              		.align	1
  19              		.global	HMI_ResCheck
  20              		.syntax unified
  21              		.thumb
  22              		.thumb_func
  24              	HMI_ResCheck:
  25              		@ args = 0, pretend = 0, frame = 0
  26              		@ frame_needed = 0, uses_anonymous_args = 0
  27              		@ link register save eliminated.
  28 0000 144B     		ldr	r3, .L9
  29 0002 1B88     		ldrh	r3, [r3]
  30 0004 313B     		subs	r3, r3, #49
  31 0006 042B     		cmp	r3, #4
  32 0008 22D8     		bhi	.L1
  33 000a DFE803F0 		tbb	[pc, r3]
  34              	.L4:
  35 000e 03       		.byte	(.L7-.L4)/2
  36 000f 21       		.byte	(.L1-.L4)/2
  37 0010 0D       		.byte	(.L6-.L4)/2
  38 0011 17       		.byte	(.L5-.L4)/2
  39 0012 1B       		.byte	(.L3-.L4)/2
  40 0013 00       		.p2align 1
  41              	.L7:
  42 0014 104B     		ldr	r3, .L9+4
  43 0016 0122     		movs	r2, #1
  44 0018 1A70     		strb	r2, [r3]
  45 001a 104B     		ldr	r3, .L9+8
  46 001c 0022     		movs	r2, #0
  47 001e 1A60     		str	r2, [r3]	@ float
  48 0020 0F4B     		ldr	r3, .L9+12
  49 0022 104A     		ldr	r2, .L9+16
  50 0024 1A60     		str	r2, [r3]	@ float
  51 0026 7047     		bx	lr
  52              	.L6:
  53 0028 0B4B     		ldr	r3, .L9+4
  54 002a 0322     		movs	r2, #3
  55 002c 1A70     		strb	r2, [r3]
  56 002e 0B4B     		ldr	r3, .L9+8
  57 0030 0D4A     		ldr	r2, .L9+20
  58 0032 1A60     		str	r2, [r3]	@ float
ARM GAS  C:\Users\ktkuru\AppData\Local\Temp\ccqfvYKz.s 			page 2


  59 0034 0A4B     		ldr	r3, .L9+12
  60 0036 0B4A     		ldr	r2, .L9+16
  61 0038 1A60     		str	r2, [r3]	@ float
  62 003a 7047     		bx	lr
  63              	.L5:
  64 003c 064B     		ldr	r3, .L9+4
  65 003e 0422     		movs	r2, #4
  66 0040 1A70     		strb	r2, [r3]
  67 0042 7047     		bx	lr
  68              	.L3:
  69 0044 044B     		ldr	r3, .L9+4
  70 0046 0522     		movs	r2, #5
  71 0048 1A70     		strb	r2, [r3]
  72 004a 084B     		ldr	r3, .L9+24
  73 004c 054A     		ldr	r2, .L9+16
  74 004e 1A60     		str	r2, [r3]	@ float
  75              	.L1:
  76 0050 7047     		bx	lr
  77              	.L10:
  78 0052 00BF     		.align	2
  79              	.L9:
  80 0054 00000000 		.word	Res
  81 0058 00000000 		.word	mode
  82 005c 00000000 		.word	Target_angle
  83 0060 00000000 		.word	Target_dis
  84 0064 9A99193E 		.word	1041865114
  85 0068 0000F041 		.word	1106247680
  86 006c 00000000 		.word	target_R
  88              		.global	__aeabi_f2d
  89              		.global	__aeabi_dadd
  90              		.global	__aeabi_d2f
  91              		.section	.rodata.HMI_Mode1_2.str1.4,"aMS",%progbits,1
  92              		.align	2
  93              	.LC0:
  94 0000 70616765 		.ascii	"page1.t2.txt=\"%d\"\000"
  94      312E7432 
  94      2E747874 
  94      3D222564 
  94      2200
  95              		.global	__aeabi_dsub
  96              		.section	.text.HMI_Mode1_2,"ax",%progbits
  97              		.align	1
  98              		.global	HMI_Mode1_2
  99              		.syntax unified
 100              		.thumb
 101              		.thumb_func
 103              	HMI_Mode1_2:
 104              		@ args = 0, pretend = 0, frame = 56
 105              		@ frame_needed = 0, uses_anonymous_args = 0
 106 0000 314B     		ldr	r3, .L20+8
 107 0002 1B78     		ldrb	r3, [r3]	@ zero_extendqisi2
 108 0004 012B     		cmp	r3, #1
 109 0006 00D0     		beq	.L19
 110 0008 7047     		bx	lr
 111              	.L19:
 112 000a 10B5     		push	{r4, lr}
 113 000c 8EB0     		sub	sp, sp, #56
ARM GAS  C:\Users\ktkuru\AppData\Local\Temp\ccqfvYKz.s 			page 3


 114 000e 2F4B     		ldr	r3, .L20+12
 115 0010 1B88     		ldrh	r3, [r3]
 116 0012 422B     		cmp	r3, #66
 117 0014 29D0     		beq	.L13
 118 0016 432B     		cmp	r3, #67
 119 0018 4CD0     		beq	.L14
 120 001a 412B     		cmp	r3, #65
 121 001c 23D1     		bne	.L11
 122 001e 2C4C     		ldr	r4, .L20+16
 123 0020 2068     		ldr	r0, [r4]	@ float
 124 0022 FFF7FEFF 		bl	__aeabi_f2d
 125 0026 26A3     		adr	r3, .L20
 126 0028 D3E90023 		ldrd	r2, [r3]
 127 002c FFF7FEFF 		bl	__aeabi_dadd
 128 0030 FFF7FEFF 		bl	__aeabi_d2f
 129 0034 07EE900A 		vmov	s15, r0
 130 0038 2060     		str	r0, [r4]	@ float
 131 003a 9FED267A 		vldr.32	s14, .L20+20
 132 003e 67EE877A 		vmul.f32	s15, s15, s14
 133 0042 FCEEE77A 		vcvt.u32.f32	s15, s15
 134 0046 17EE903A 		vmov	r3, s15	@ int
 135 004a 9AB2     		uxth	r2, r3
 136 004c 2249     		ldr	r1, .L20+24
 137 004e 01A8     		add	r0, sp, #4
 138 0050 FFF7FEFF 		bl	sprintf
 139 0054 214C     		ldr	r4, .L20+28
 140 0056 01A9     		add	r1, sp, #4
 141 0058 2046     		mov	r0, r4
 142 005a FFF7FEFF 		bl	HMISends
 143 005e FF21     		movs	r1, #255
 144 0060 2046     		mov	r0, r4
 145 0062 FFF7FEFF 		bl	HMISendb
 146              	.L11:
 147 0066 0EB0     		add	sp, sp, #56
 148              		@ sp needed
 149 0068 10BD     		pop	{r4, pc}
 150              	.L13:
 151 006a 194C     		ldr	r4, .L20+16
 152 006c 2068     		ldr	r0, [r4]	@ float
 153 006e FFF7FEFF 		bl	__aeabi_f2d
 154 0072 13A3     		adr	r3, .L20
 155 0074 D3E90023 		ldrd	r2, [r3]
 156 0078 FFF7FEFF 		bl	__aeabi_dsub
 157 007c FFF7FEFF 		bl	__aeabi_d2f
 158 0080 07EE900A 		vmov	s15, r0
 159 0084 2060     		str	r0, [r4]	@ float
 160 0086 9FED137A 		vldr.32	s14, .L20+20
 161 008a 67EE877A 		vmul.f32	s15, s15, s14
 162 008e FCEEE77A 		vcvt.u32.f32	s15, s15
 163 0092 17EE903A 		vmov	r3, s15	@ int
 164 0096 9AB2     		uxth	r2, r3
 165 0098 0F49     		ldr	r1, .L20+24
 166 009a 01A8     		add	r0, sp, #4
 167 009c FFF7FEFF 		bl	sprintf
 168 00a0 0E4C     		ldr	r4, .L20+28
 169 00a2 01A9     		add	r1, sp, #4
 170 00a4 2046     		mov	r0, r4
ARM GAS  C:\Users\ktkuru\AppData\Local\Temp\ccqfvYKz.s 			page 4


 171 00a6 FFF7FEFF 		bl	HMISends
 172 00aa FF21     		movs	r1, #255
 173 00ac 2046     		mov	r0, r4
 174 00ae FFF7FEFF 		bl	HMISendb
 175 00b2 D8E7     		b	.L11
 176              	.L14:
 177 00b4 044B     		ldr	r3, .L20+8
 178 00b6 0022     		movs	r2, #0
 179 00b8 1A70     		strb	r2, [r3]
 180 00ba D4E7     		b	.L11
 181              	.L21:
 182 00bc AFF30080 		.align	3
 183              	.L20:
 184 00c0 9A999999 		.word	-1717986918
 185 00c4 9999A93F 		.word	1068079513
 186 00c8 00000000 		.word	mode
 187 00cc 00000000 		.word	Res
 188 00d0 00000000 		.word	Target_dis
 189 00d4 0000C842 		.word	1120403456
 190 00d8 00000000 		.word	.LC0
 191 00dc 00440040 		.word	1073759232
 193              		.section	.rodata.HMI_Mode3.str1.4,"aMS",%progbits,1
 194              		.align	2
 195              	.LC1:
 196 0000 70616765 		.ascii	"page2.t3.txt=\"%d\"\000"
 196      322E7433 
 196      2E747874 
 196      3D222564 
 196      2200
 197 0012 0000     		.align	2
 198              	.LC2:
 199 0014 70616765 		.ascii	"page2.t4.txt=\"%d\"\000"
 199      322E7434 
 199      2E747874 
 199      3D222564 
 199      2200
 200              		.section	.text.HMI_Mode3,"ax",%progbits
 201              		.align	1
 202              		.global	HMI_Mode3
 203              		.syntax unified
 204              		.thumb
 205              		.thumb_func
 207              	HMI_Mode3:
 208              		@ args = 0, pretend = 0, frame = 56
 209              		@ frame_needed = 0, uses_anonymous_args = 0
 210 0000 4D4B     		ldr	r3, .L36+8
 211 0002 1B78     		ldrb	r3, [r3]	@ zero_extendqisi2
 212 0004 032B     		cmp	r3, #3
 213 0006 00D0     		beq	.L35
 214 0008 7047     		bx	lr
 215              	.L35:
 216 000a 10B5     		push	{r4, lr}
 217 000c 8EB0     		sub	sp, sp, #56
 218 000e 4B4B     		ldr	r3, .L36+12
 219 0010 1B88     		ldrh	r3, [r3]
 220 0012 513B     		subs	r3, r3, #81
 221 0014 042B     		cmp	r3, #4
ARM GAS  C:\Users\ktkuru\AppData\Local\Temp\ccqfvYKz.s 			page 5


 222 0016 1FD8     		bhi	.L22
 223 0018 DFE803F0 		tbb	[pc, r3]
 224              	.L25:
 225 001c 03       		.byte	(.L29-.L25)/2
 226 001d 20       		.byte	(.L28-.L25)/2
 227 001e 3C       		.byte	(.L27-.L25)/2
 228 001f 61       		.byte	(.L26-.L25)/2
 229 0020 86       		.byte	(.L24-.L25)/2
 230 0021 00       		.p2align 1
 231              	.L29:
 232 0022 474B     		ldr	r3, .L36+16
 233 0024 D3ED007A 		vldr.32	s15, [r3]
 234 0028 B1EE047A 		vmov.f32	s14, #5.0e+0
 235 002c 77EE877A 		vadd.f32	s15, s15, s14
 236 0030 C3ED007A 		vstr.32	s15, [r3]
 237 0034 FCEEE77A 		vcvt.u32.f32	s15, s15
 238 0038 17EE903A 		vmov	r3, s15	@ int
 239 003c 9AB2     		uxth	r2, r3
 240 003e 4149     		ldr	r1, .L36+20
 241 0040 01A8     		add	r0, sp, #4
 242 0042 FFF7FEFF 		bl	sprintf
 243 0046 404C     		ldr	r4, .L36+24
 244 0048 01A9     		add	r1, sp, #4
 245 004a 2046     		mov	r0, r4
 246 004c FFF7FEFF 		bl	HMISends
 247 0050 FF21     		movs	r1, #255
 248 0052 2046     		mov	r0, r4
 249 0054 FFF7FEFF 		bl	HMISendb
 250              	.L22:
 251 0058 0EB0     		add	sp, sp, #56
 252              		@ sp needed
 253 005a 10BD     		pop	{r4, pc}
 254              	.L28:
 255 005c 384B     		ldr	r3, .L36+16
 256 005e D3ED007A 		vldr.32	s15, [r3]
 257 0062 B1EE047A 		vmov.f32	s14, #5.0e+0
 258 0066 77EEC77A 		vsub.f32	s15, s15, s14
 259 006a C3ED007A 		vstr.32	s15, [r3]
 260 006e FCEEE77A 		vcvt.u32.f32	s15, s15
 261 0072 17EE903A 		vmov	r3, s15	@ int
 262 0076 9AB2     		uxth	r2, r3
 263 0078 3249     		ldr	r1, .L36+20
 264 007a 01A8     		add	r0, sp, #4
 265 007c FFF7FEFF 		bl	sprintf
 266 0080 314C     		ldr	r4, .L36+24
 267 0082 01A9     		add	r1, sp, #4
 268 0084 2046     		mov	r0, r4
 269 0086 FFF7FEFF 		bl	HMISends
 270 008a FF21     		movs	r1, #255
 271 008c 2046     		mov	r0, r4
 272 008e FFF7FEFF 		bl	HMISendb
 273 0092 E1E7     		b	.L22
 274              	.L27:
 275 0094 2D4C     		ldr	r4, .L36+28
 276 0096 2068     		ldr	r0, [r4]	@ float
 277 0098 FFF7FEFF 		bl	__aeabi_f2d
 278 009c 24A3     		adr	r3, .L36
ARM GAS  C:\Users\ktkuru\AppData\Local\Temp\ccqfvYKz.s 			page 6


 279 009e D3E90023 		ldrd	r2, [r3]
 280 00a2 FFF7FEFF 		bl	__aeabi_dadd
 281 00a6 FFF7FEFF 		bl	__aeabi_d2f
 282 00aa 07EE900A 		vmov	s15, r0
 283 00ae 2060     		str	r0, [r4]	@ float
 284 00b0 9FED277A 		vldr.32	s14, .L36+32
 285 00b4 67EE877A 		vmul.f32	s15, s15, s14
 286 00b8 FCEEE77A 		vcvt.u32.f32	s15, s15
 287 00bc 17EE903A 		vmov	r3, s15	@ int
 288 00c0 9AB2     		uxth	r2, r3
 289 00c2 2449     		ldr	r1, .L36+36
 290 00c4 01A8     		add	r0, sp, #4
 291 00c6 FFF7FEFF 		bl	sprintf
 292 00ca 1F4C     		ldr	r4, .L36+24
 293 00cc 01A9     		add	r1, sp, #4
 294 00ce 2046     		mov	r0, r4
 295 00d0 FFF7FEFF 		bl	HMISends
 296 00d4 FF21     		movs	r1, #255
 297 00d6 2046     		mov	r0, r4
 298 00d8 FFF7FEFF 		bl	HMISendb
 299 00dc BCE7     		b	.L22
 300              	.L26:
 301 00de 1B4C     		ldr	r4, .L36+28
 302 00e0 2068     		ldr	r0, [r4]	@ float
 303 00e2 FFF7FEFF 		bl	__aeabi_f2d
 304 00e6 12A3     		adr	r3, .L36
 305 00e8 D3E90023 		ldrd	r2, [r3]
 306 00ec FFF7FEFF 		bl	__aeabi_dsub
 307 00f0 FFF7FEFF 		bl	__aeabi_d2f
 308 00f4 07EE900A 		vmov	s15, r0
 309 00f8 2060     		str	r0, [r4]	@ float
 310 00fa 9FED157A 		vldr.32	s14, .L36+32
 311 00fe 67EE877A 		vmul.f32	s15, s15, s14
 312 0102 FCEEE77A 		vcvt.u32.f32	s15, s15
 313 0106 17EE903A 		vmov	r3, s15	@ int
 314 010a 9AB2     		uxth	r2, r3
 315 010c 1149     		ldr	r1, .L36+36
 316 010e 01A8     		add	r0, sp, #4
 317 0110 FFF7FEFF 		bl	sprintf
 318 0114 0C4C     		ldr	r4, .L36+24
 319 0116 01A9     		add	r1, sp, #4
 320 0118 2046     		mov	r0, r4
 321 011a FFF7FEFF 		bl	HMISends
 322 011e FF21     		movs	r1, #255
 323 0120 2046     		mov	r0, r4
 324 0122 FFF7FEFF 		bl	HMISendb
 325 0126 97E7     		b	.L22
 326              	.L24:
 327 0128 034B     		ldr	r3, .L36+8
 328 012a 0022     		movs	r2, #0
 329 012c 1A70     		strb	r2, [r3]
 330 012e 93E7     		b	.L22
 331              	.L37:
 332              		.align	3
 333              	.L36:
 334 0130 9A999999 		.word	-1717986918
 335 0134 9999A93F 		.word	1068079513
ARM GAS  C:\Users\ktkuru\AppData\Local\Temp\ccqfvYKz.s 			page 7


 336 0138 00000000 		.word	mode
 337 013c 00000000 		.word	Res
 338 0140 00000000 		.word	Target_angle
 339 0144 00000000 		.word	.LC1
 340 0148 00440040 		.word	1073759232
 341 014c 00000000 		.word	Target_dis
 342 0150 0000C842 		.word	1120403456
 343 0154 14000000 		.word	.LC2
 345              		.section	.text.HMI_Mode4,"ax",%progbits
 346              		.align	1
 347              		.global	HMI_Mode4
 348              		.syntax unified
 349              		.thumb
 350              		.thumb_func
 352              	HMI_Mode4:
 353              		@ args = 0, pretend = 0, frame = 0
 354              		@ frame_needed = 0, uses_anonymous_args = 0
 355              		@ link register save eliminated.
 356 0000 064B     		ldr	r3, .L41
 357 0002 1B78     		ldrb	r3, [r3]	@ zero_extendqisi2
 358 0004 042B     		cmp	r3, #4
 359 0006 00D0     		beq	.L40
 360              	.L38:
 361 0008 7047     		bx	lr
 362              	.L40:
 363 000a 054B     		ldr	r3, .L41+4
 364 000c 1B88     		ldrh	r3, [r3]
 365 000e 712B     		cmp	r3, #113
 366 0010 FAD1     		bne	.L38
 367 0012 024B     		ldr	r3, .L41
 368 0014 0022     		movs	r2, #0
 369 0016 1A70     		strb	r2, [r3]
 370 0018 F6E7     		b	.L38
 371              	.L42:
 372 001a 00BF     		.align	2
 373              	.L41:
 374 001c 00000000 		.word	mode
 375 0020 00000000 		.word	Res
 377              		.section	.rodata.HMI_Mode5.str1.4,"aMS",%progbits,1
 378              		.align	2
 379              	.LC3:
 380 0000 70616765 		.ascii	"page4.t2.txt=\"%d\"\000"
 380      342E7432 
 380      2E747874 
 380      3D222564 
 380      2200
 381              		.section	.text.HMI_Mode5,"ax",%progbits
 382              		.align	1
 383              		.global	HMI_Mode5
 384              		.syntax unified
 385              		.thumb
 386              		.thumb_func
 388              	HMI_Mode5:
 389              		@ args = 0, pretend = 0, frame = 56
 390              		@ frame_needed = 0, uses_anonymous_args = 0
 391 0000 314B     		ldr	r3, .L52+8
 392 0002 1B78     		ldrb	r3, [r3]	@ zero_extendqisi2
ARM GAS  C:\Users\ktkuru\AppData\Local\Temp\ccqfvYKz.s 			page 8


 393 0004 052B     		cmp	r3, #5
 394 0006 00D0     		beq	.L51
 395 0008 7047     		bx	lr
 396              	.L51:
 397 000a 10B5     		push	{r4, lr}
 398 000c 8EB0     		sub	sp, sp, #56
 399 000e 2F4B     		ldr	r3, .L52+12
 400 0010 1B88     		ldrh	r3, [r3]
 401 0012 622B     		cmp	r3, #98
 402 0014 29D0     		beq	.L45
 403 0016 632B     		cmp	r3, #99
 404 0018 4CD0     		beq	.L46
 405 001a 612B     		cmp	r3, #97
 406 001c 23D1     		bne	.L43
 407 001e 2C4C     		ldr	r4, .L52+16
 408 0020 2068     		ldr	r0, [r4]	@ float
 409 0022 FFF7FEFF 		bl	__aeabi_f2d
 410 0026 26A3     		adr	r3, .L52
 411 0028 D3E90023 		ldrd	r2, [r3]
 412 002c FFF7FEFF 		bl	__aeabi_dadd
 413 0030 FFF7FEFF 		bl	__aeabi_d2f
 414 0034 07EE900A 		vmov	s15, r0
 415 0038 2060     		str	r0, [r4]	@ float
 416 003a 9FED267A 		vldr.32	s14, .L52+20
 417 003e 67EE877A 		vmul.f32	s15, s15, s14
 418 0042 FCEEE77A 		vcvt.u32.f32	s15, s15
 419 0046 17EE903A 		vmov	r3, s15	@ int
 420 004a 9AB2     		uxth	r2, r3
 421 004c 2249     		ldr	r1, .L52+24
 422 004e 01A8     		add	r0, sp, #4
 423 0050 FFF7FEFF 		bl	sprintf
 424 0054 214C     		ldr	r4, .L52+28
 425 0056 01A9     		add	r1, sp, #4
 426 0058 2046     		mov	r0, r4
 427 005a FFF7FEFF 		bl	HMISends
 428 005e FF21     		movs	r1, #255
 429 0060 2046     		mov	r0, r4
 430 0062 FFF7FEFF 		bl	HMISendb
 431              	.L43:
 432 0066 0EB0     		add	sp, sp, #56
 433              		@ sp needed
 434 0068 10BD     		pop	{r4, pc}
 435              	.L45:
 436 006a 194C     		ldr	r4, .L52+16
 437 006c 2068     		ldr	r0, [r4]	@ float
 438 006e FFF7FEFF 		bl	__aeabi_f2d
 439 0072 13A3     		adr	r3, .L52
 440 0074 D3E90023 		ldrd	r2, [r3]
 441 0078 FFF7FEFF 		bl	__aeabi_dsub
 442 007c FFF7FEFF 		bl	__aeabi_d2f
 443 0080 07EE900A 		vmov	s15, r0
 444 0084 2060     		str	r0, [r4]	@ float
 445 0086 9FED137A 		vldr.32	s14, .L52+20
 446 008a 67EE877A 		vmul.f32	s15, s15, s14
 447 008e FCEEE77A 		vcvt.u32.f32	s15, s15
 448 0092 17EE903A 		vmov	r3, s15	@ int
 449 0096 9AB2     		uxth	r2, r3
ARM GAS  C:\Users\ktkuru\AppData\Local\Temp\ccqfvYKz.s 			page 9


 450 0098 0F49     		ldr	r1, .L52+24
 451 009a 01A8     		add	r0, sp, #4
 452 009c FFF7FEFF 		bl	sprintf
 453 00a0 0E4C     		ldr	r4, .L52+28
 454 00a2 01A9     		add	r1, sp, #4
 455 00a4 2046     		mov	r0, r4
 456 00a6 FFF7FEFF 		bl	HMISends
 457 00aa FF21     		movs	r1, #255
 458 00ac 2046     		mov	r0, r4
 459 00ae FFF7FEFF 		bl	HMISendb
 460 00b2 D8E7     		b	.L43
 461              	.L46:
 462 00b4 044B     		ldr	r3, .L52+8
 463 00b6 0022     		movs	r2, #0
 464 00b8 1A70     		strb	r2, [r3]
 465 00ba D4E7     		b	.L43
 466              	.L53:
 467 00bc AFF30080 		.align	3
 468              	.L52:
 469 00c0 9A999999 		.word	-1717986918
 470 00c4 9999A93F 		.word	1068079513
 471 00c8 00000000 		.word	mode
 472 00cc 00000000 		.word	Res
 473 00d0 00000000 		.word	target_R
 474 00d4 0000C842 		.word	1120403456
 475 00d8 00000000 		.word	.LC3
 476 00dc 00440040 		.word	1073759232
 478              		.ident	"GCC: (Arm GNU Toolchain 13.3.Rel1 (Build arm-13.24)) 13.3.1 20240614"
ARM GAS  C:\Users\ktkuru\AppData\Local\Temp\ccqfvYKz.s 			page 10

