ARM GAS  C:\Users\ktkuru\AppData\Local\Temp\ccNrKdPK.s 			page 1


   1              		.cpu cortex-m4
   2              		.arch armv7e-m
   3              		.fpu fpv4-sp-d16
   4              		.eabi_attribute 27, 1
   5              		.eabi_attribute 28, 1
   6              		.eabi_attribute 20, 1
   7              		.eabi_attribute 21, 1
   8              		.eabi_attribute 23, 3
   9              		.eabi_attribute 24, 1
  10              		.eabi_attribute 25, 1
  11              		.eabi_attribute 26, 1
  12              		.eabi_attribute 30, 1
  13              		.eabi_attribute 34, 1
  14              		.eabi_attribute 18, 4
  15              		.file	"main.c"
  16              		.text
  17              		.section	.rodata.main.str1.4,"aMS",%progbits,1
  18              		.align	2
  19              	.LC0:
  20 0000 70657269 		.ascii	"peripheral init failed\000"
  20      70686572 
  20      616C2069 
  20      6E697420 
  20      6661696C 
  21 0017 00       		.align	2
  22              	.LC1:
  23 0018 70657269 		.ascii	"peripheral init done\000"
  23      70686572 
  23      616C2069 
  23      6E697420 
  23      646F6E65 
  24 002d 000000   		.align	2
  25              	.LC2:
  26 0030 70697463 		.ascii	"pitch:%f\000"
  26      683A2566 
  26      00
  27              		.global	__aeabi_f2d
  28 0039 000000   		.align	2
  29              	.LC3:
  30 003c 726F6C6C 		.ascii	"roll:%f\000"
  30      3A256600 
  31              		.align	2
  32              	.LC4:
  33 0044 6465663A 		.ascii	"def:%f\000"
  33      256600
  34              		.section	.text.main,"ax",%progbits
  35              		.align	1
  36              		.global	main
  37              		.syntax unified
  38              		.thumb
  39              		.thumb_func
  41              	main:
  42              		@ Volatile: function does not return.
  43              		@ args = 0, pretend = 0, frame = 0
  44              		@ frame_needed = 0, uses_anonymous_args = 0
  45 0000 00B5     		push	{lr}
  46 0002 83B0     		sub	sp, sp, #12
ARM GAS  C:\Users\ktkuru\AppData\Local\Temp\ccNrKdPK.s 			page 2


  47 0004 FFF7FEFF 		bl	BSP_Init
  48 0008 48B3     		cbz	r0, .L2
  49 000a 1748     		ldr	r0, .L6
  50 000c FFF7FEFF 		bl	puts
  51              	.L3:
  52 0010 164B     		ldr	r3, .L6+4
  53 0012 1868     		ldr	r0, [r3]	@ float
  54 0014 FFF7FEFF 		bl	__aeabi_f2d
  55 0018 CDE90001 		strd	r0, [sp]
  56 001c 144B     		ldr	r3, .L6+8
  57 001e 0622     		movs	r2, #6
  58 0020 0021     		movs	r1, #0
  59 0022 0846     		mov	r0, r1
  60 0024 FFF7FEFF 		bl	OLED_Printf
  61 0028 124B     		ldr	r3, .L6+12
  62 002a 1868     		ldr	r0, [r3]	@ float
  63 002c FFF7FEFF 		bl	__aeabi_f2d
  64 0030 CDE90001 		strd	r0, [sp]
  65 0034 104B     		ldr	r3, .L6+16
  66 0036 0622     		movs	r2, #6
  67 0038 1021     		movs	r1, #16
  68 003a 0020     		movs	r0, #0
  69 003c FFF7FEFF 		bl	OLED_Printf
  70 0040 0E4B     		ldr	r3, .L6+20
  71 0042 1868     		ldr	r0, [r3]	@ float
  72 0044 FFF7FEFF 		bl	__aeabi_f2d
  73 0048 CDE90001 		strd	r0, [sp]
  74 004c 0C4B     		ldr	r3, .L6+24
  75 004e 0622     		movs	r2, #6
  76 0050 2021     		movs	r1, #32
  77 0052 0020     		movs	r0, #0
  78 0054 FFF7FEFF 		bl	OLED_Printf
  79 0058 FFF7FEFF 		bl	OLED_Update
  80 005c D8E7     		b	.L3
  81              	.L2:
  82 005e 0948     		ldr	r0, .L6+28
  83 0060 FFF7FEFF 		bl	puts
  84 0064 D4E7     		b	.L3
  85              	.L7:
  86 0066 00BF     		.align	2
  87              	.L6:
  88 0068 00000000 		.word	.LC0
  89 006c 00000000 		.word	pitch
  90 0070 30000000 		.word	.LC2
  91 0074 00000000 		.word	roll
  92 0078 3C000000 		.word	.LC3
  93 007c 00000000 		.word	def
  94 0080 44000000 		.word	.LC4
  95 0084 18000000 		.word	.LC1
  97              		.global	Opolar
  98              		.section	.bss.Opolar,"aw",%nobits
  99              		.align	2
 102              	Opolar:
 103 0000 00000000 		.space	4
 104              		.global	polar
 105              		.section	.bss.polar,"aw",%nobits
 106              		.align	2
ARM GAS  C:\Users\ktkuru\AppData\Local\Temp\ccNrKdPK.s 			page 3


 109              	polar:
 110 0000 00000000 		.space	4
 111              		.global	dis
 112              		.section	.bss.dis,"aw",%nobits
 113              		.align	2
 116              	dis:
 117 0000 00000000 		.space	4
 118              		.global	def
 119              		.section	.bss.def,"aw",%nobits
 120              		.align	2
 123              	def:
 124 0000 00000000 		.space	4
 125              		.global	yaw
 126              		.section	.bss.yaw,"aw",%nobits
 127              		.align	2
 130              	yaw:
 131 0000 00000000 		.space	4
 132              		.global	roll
 133              		.section	.bss.roll,"aw",%nobits
 134              		.align	2
 137              	roll:
 138 0000 00000000 		.space	4
 139              		.global	pitch
 140              		.section	.bss.pitch,"aw",%nobits
 141              		.align	2
 144              	pitch:
 145 0000 00000000 		.space	4
 146              		.ident	"GCC: (Arm GNU Toolchain 13.3.Rel1 (Build arm-13.24)) 13.3.1 20240614"
ARM GAS  C:\Users\ktkuru\AppData\Local\Temp\ccNrKdPK.s 			page 4


DEFINED SYMBOLS
                            *ABS*:00000000 main.c
C:\Users\ktkuru\AppData\Local\Temp\ccNrKdPK.s:18     .rodata.main.str1.4:00000000 $d
C:\Users\ktkuru\AppData\Local\Temp\ccNrKdPK.s:35     .text.main:00000000 $t
C:\Users\ktkuru\AppData\Local\Temp\ccNrKdPK.s:41     .text.main:00000000 main
C:\Users\ktkuru\AppData\Local\Temp\ccNrKdPK.s:88     .text.main:00000068 $d
C:\Users\ktkuru\AppData\Local\Temp\ccNrKdPK.s:144    .bss.pitch:00000000 pitch
C:\Users\ktkuru\AppData\Local\Temp\ccNrKdPK.s:137    .bss.roll:00000000 roll
C:\Users\ktkuru\AppData\Local\Temp\ccNrKdPK.s:123    .bss.def:00000000 def
C:\Users\ktkuru\AppData\Local\Temp\ccNrKdPK.s:102    .bss.Opolar:00000000 Opolar
C:\Users\ktkuru\AppData\Local\Temp\ccNrKdPK.s:99     .bss.Opolar:00000000 $d
C:\Users\ktkuru\AppData\Local\Temp\ccNrKdPK.s:109    .bss.polar:00000000 polar
C:\Users\ktkuru\AppData\Local\Temp\ccNrKdPK.s:106    .bss.polar:00000000 $d
C:\Users\ktkuru\AppData\Local\Temp\ccNrKdPK.s:116    .bss.dis:00000000 dis
C:\Users\ktkuru\AppData\Local\Temp\ccNrKdPK.s:113    .bss.dis:00000000 $d
C:\Users\ktkuru\AppData\Local\Temp\ccNrKdPK.s:120    .bss.def:00000000 $d
C:\Users\ktkuru\AppData\Local\Temp\ccNrKdPK.s:130    .bss.yaw:00000000 yaw
C:\Users\ktkuru\AppData\Local\Temp\ccNrKdPK.s:127    .bss.yaw:00000000 $d
C:\Users\ktkuru\AppData\Local\Temp\ccNrKdPK.s:134    .bss.roll:00000000 $d
C:\Users\ktkuru\AppData\Local\Temp\ccNrKdPK.s:141    .bss.pitch:00000000 $d

UNDEFINED SYMBOLS
__aeabi_f2d
BSP_Init
puts
OLED_Printf
OLED_Update
