ARM GAS  C:\Users\ktkuru\AppData\Local\Temp\ccqmQ1Sf.s 			page 1


   1              		.cpu cortex-m4
   2              		.arch armv7e-m
   3              		.fpu fpv4-sp-d16
   4              		.eabi_attribute 27, 1
   5              		.eabi_attribute 28, 1
   6              		.eabi_attribute 20, 1
   7              		.eabi_attribute 21, 1
   8              		.eabi_attribute 23, 3
   9              		.eabi_attribute 24, 1
  10              		.eabi_attribute 25, 1
  11              		.eabi_attribute 26, 1
  12              		.eabi_attribute 30, 1
  13              		.eabi_attribute 34, 1
  14              		.eabi_attribute 18, 4
  15              		.file	"main.c"
  16              		.text
  17              		.section	.rodata.main.str1.4,"aMS",%progbits,1
  18              		.align	2
  19              	.LC0:
  20 0000 70657269 		.ascii	"peripheral init failed\000"
  20      70686572 
  20      616C2069 
  20      6E697420 
  20      6661696C 
  21 0017 00       		.align	2
  22              	.LC1:
  23 0018 70657269 		.ascii	"peripheral init done\000"
  23      70686572 
  23      616C2069 
  23      6E697420 
  23      646F6E65 
  24 002d 000000   		.align	2
  25              	.LC2:
  26 0030 70697463 		.ascii	"pitch:%f\000"
  26      683A2566 
  26      00
  27              		.global	__aeabi_f2d
  28 0039 000000   		.align	2
  29              	.LC3:
  30 003c 726F6C6C 		.ascii	"roll:%f\000"
  30      3A256600 
  31              		.align	2
  32              	.LC4:
  33 0044 6465663A 		.ascii	"def:%f\000"
  33      256600
  34              		.section	.text.main,"ax",%progbits
  35              		.align	1
  36              		.global	main
  37              		.syntax unified
  38              		.thumb
  39              		.thumb_func
  41              	main:
  42              		@ Volatile: function does not return.
  43              		@ args = 0, pretend = 0, frame = 0
  44              		@ frame_needed = 0, uses_anonymous_args = 0
  45 0000 00B5     		push	{lr}
  46 0002 83B0     		sub	sp, sp, #12
ARM GAS  C:\Users\ktkuru\AppData\Local\Temp\ccqmQ1Sf.s 			page 2


  47 0004 FFF7FEFF 		bl	BSP_Init
  48 0008 68B3     		cbz	r0, .L2
  49 000a 1948     		ldr	r0, .L6
  50 000c FFF7FEFF 		bl	puts
  51              	.L3:
  52 0010 FFF7FEFF 		bl	OLED_Clear
  53 0014 FFF7FEFF 		bl	OLED_Clear
  54              	.L4:
  55 0018 164B     		ldr	r3, .L6+4
  56 001a 1868     		ldr	r0, [r3]	@ float
  57 001c FFF7FEFF 		bl	__aeabi_f2d
  58 0020 CDE90001 		strd	r0, [sp]
  59 0024 144B     		ldr	r3, .L6+8
  60 0026 0622     		movs	r2, #6
  61 0028 0021     		movs	r1, #0
  62 002a 0846     		mov	r0, r1
  63 002c FFF7FEFF 		bl	OLED_Printf
  64 0030 124B     		ldr	r3, .L6+12
  65 0032 1868     		ldr	r0, [r3]	@ float
  66 0034 FFF7FEFF 		bl	__aeabi_f2d
  67 0038 CDE90001 		strd	r0, [sp]
  68 003c 104B     		ldr	r3, .L6+16
  69 003e 0622     		movs	r2, #6
  70 0040 1021     		movs	r1, #16
  71 0042 0020     		movs	r0, #0
  72 0044 FFF7FEFF 		bl	OLED_Printf
  73 0048 0E4B     		ldr	r3, .L6+20
  74 004a 1868     		ldr	r0, [r3]	@ float
  75 004c FFF7FEFF 		bl	__aeabi_f2d
  76 0050 CDE90001 		strd	r0, [sp]
  77 0054 0C4B     		ldr	r3, .L6+24
  78 0056 0622     		movs	r2, #6
  79 0058 2021     		movs	r1, #32
  80 005a 0020     		movs	r0, #0
  81 005c FFF7FEFF 		bl	OLED_Printf
  82 0060 FFF7FEFF 		bl	OLED_Update
  83 0064 D8E7     		b	.L4
  84              	.L2:
  85 0066 0948     		ldr	r0, .L6+28
  86 0068 FFF7FEFF 		bl	puts
  87 006c D0E7     		b	.L3
  88              	.L7:
  89 006e 00BF     		.align	2
  90              	.L6:
  91 0070 00000000 		.word	.LC0
  92 0074 00000000 		.word	pitch
  93 0078 30000000 		.word	.LC2
  94 007c 00000000 		.word	roll
  95 0080 3C000000 		.word	.LC3
  96 0084 00000000 		.word	def
  97 0088 44000000 		.word	.LC4
  98 008c 18000000 		.word	.LC1
 100              		.global	mode
 101              		.section	.bss.mode,"aw",%nobits
 104              	mode:
 105 0000 00       		.space	1
 106              		.global	abspitch
ARM GAS  C:\Users\ktkuru\AppData\Local\Temp\ccqmQ1Sf.s 			page 3


 107              		.section	.bss.abspitch,"aw",%nobits
 108              		.align	2
 111              	abspitch:
 112 0000 00000000 		.space	4
 113              		.global	absroll
 114              		.section	.bss.absroll,"aw",%nobits
 115              		.align	2
 118              	absroll:
 119 0000 00000000 		.space	4
 120              		.global	Opolar
 121              		.section	.bss.Opolar,"aw",%nobits
 122              		.align	2
 125              	Opolar:
 126 0000 00000000 		.space	4
 127              		.global	polar
 128              		.section	.bss.polar,"aw",%nobits
 129              		.align	2
 132              	polar:
 133 0000 00000000 		.space	4
 134              		.global	dis
 135              		.section	.bss.dis,"aw",%nobits
 136              		.align	2
 139              	dis:
 140 0000 00000000 		.space	4
 141              		.global	def
 142              		.section	.bss.def,"aw",%nobits
 143              		.align	2
 146              	def:
 147 0000 00000000 		.space	4
 148              		.global	yaw
 149              		.section	.bss.yaw,"aw",%nobits
 150              		.align	2
 153              	yaw:
 154 0000 00000000 		.space	4
 155              		.global	roll
 156              		.section	.bss.roll,"aw",%nobits
 157              		.align	2
 160              	roll:
 161 0000 00000000 		.space	4
 162              		.global	pitch
 163              		.section	.bss.pitch,"aw",%nobits
 164              		.align	2
 167              	pitch:
 168 0000 00000000 		.space	4
 169              		.ident	"GCC: (Arm GNU Toolchain 13.3.Rel1 (Build arm-13.24)) 13.3.1 20240614"
ARM GAS  C:\Users\ktkuru\AppData\Local\Temp\ccqmQ1Sf.s 			page 4


DEFINED SYMBOLS
                            *ABS*:00000000 main.c
C:\Users\ktkuru\AppData\Local\Temp\ccqmQ1Sf.s:18     .rodata.main.str1.4:00000000 $d
C:\Users\ktkuru\AppData\Local\Temp\ccqmQ1Sf.s:35     .text.main:00000000 $t
C:\Users\ktkuru\AppData\Local\Temp\ccqmQ1Sf.s:41     .text.main:00000000 main
C:\Users\ktkuru\AppData\Local\Temp\ccqmQ1Sf.s:91     .text.main:00000070 $d
C:\Users\ktkuru\AppData\Local\Temp\ccqmQ1Sf.s:167    .bss.pitch:00000000 pitch
C:\Users\ktkuru\AppData\Local\Temp\ccqmQ1Sf.s:160    .bss.roll:00000000 roll
C:\Users\ktkuru\AppData\Local\Temp\ccqmQ1Sf.s:146    .bss.def:00000000 def
C:\Users\ktkuru\AppData\Local\Temp\ccqmQ1Sf.s:104    .bss.mode:00000000 mode
C:\Users\ktkuru\AppData\Local\Temp\ccqmQ1Sf.s:105    .bss.mode:00000000 $d
C:\Users\ktkuru\AppData\Local\Temp\ccqmQ1Sf.s:111    .bss.abspitch:00000000 abspitch
C:\Users\ktkuru\AppData\Local\Temp\ccqmQ1Sf.s:108    .bss.abspitch:00000000 $d
C:\Users\ktkuru\AppData\Local\Temp\ccqmQ1Sf.s:118    .bss.absroll:00000000 absroll
C:\Users\ktkuru\AppData\Local\Temp\ccqmQ1Sf.s:115    .bss.absroll:00000000 $d
C:\Users\ktkuru\AppData\Local\Temp\ccqmQ1Sf.s:125    .bss.Opolar:00000000 Opolar
C:\Users\ktkuru\AppData\Local\Temp\ccqmQ1Sf.s:122    .bss.Opolar:00000000 $d
C:\Users\ktkuru\AppData\Local\Temp\ccqmQ1Sf.s:132    .bss.polar:00000000 polar
C:\Users\ktkuru\AppData\Local\Temp\ccqmQ1Sf.s:129    .bss.polar:00000000 $d
C:\Users\ktkuru\AppData\Local\Temp\ccqmQ1Sf.s:139    .bss.dis:00000000 dis
C:\Users\ktkuru\AppData\Local\Temp\ccqmQ1Sf.s:136    .bss.dis:00000000 $d
C:\Users\ktkuru\AppData\Local\Temp\ccqmQ1Sf.s:143    .bss.def:00000000 $d
C:\Users\ktkuru\AppData\Local\Temp\ccqmQ1Sf.s:153    .bss.yaw:00000000 yaw
C:\Users\ktkuru\AppData\Local\Temp\ccqmQ1Sf.s:150    .bss.yaw:00000000 $d
C:\Users\ktkuru\AppData\Local\Temp\ccqmQ1Sf.s:157    .bss.roll:00000000 $d
C:\Users\ktkuru\AppData\Local\Temp\ccqmQ1Sf.s:164    .bss.pitch:00000000 $d

UNDEFINED SYMBOLS
__aeabi_f2d
BSP_Init
puts
OLED_Clear
OLED_Printf
OLED_Update
