ARM GAS  C:\Users\ktkuru\AppData\Local\Temp\cc0qEUaL.s 			page 1


   1              		.cpu cortex-m4
   2              		.arch armv7e-m
   3              		.fpu fpv4-sp-d16
   4              		.eabi_attribute 27, 1
   5              		.eabi_attribute 28, 1
   6              		.eabi_attribute 20, 1
   7              		.eabi_attribute 21, 1
   8              		.eabi_attribute 23, 3
   9              		.eabi_attribute 24, 1
  10              		.eabi_attribute 25, 1
  11              		.eabi_attribute 26, 1
  12              		.eabi_attribute 30, 1
  13              		.eabi_attribute 34, 1
  14              		.eabi_attribute 18, 4
  15              		.file	"main.c"
  16              		.text
  17              		.section	.rodata.main.str1.4,"aMS",%progbits,1
  18              		.align	2
  19              	.LC0:
  20 0000 70657269 		.ascii	"peripheral init failed\000"
  20      70686572 
  20      616C2069 
  20      6E697420 
  20      6661696C 
  21 0017 00       		.align	2
  22              	.LC1:
  23 0018 70657269 		.ascii	"peripheral init done\000"
  23      70686572 
  23      616C2069 
  23      6E697420 
  23      646F6E65 
  24 002d 000000   		.align	2
  25              	.LC2:
  26 0030 70697463 		.ascii	"pitch:%f\000"
  26      683A2566 
  26      00
  27              		.global	__aeabi_f2d
  28 0039 000000   		.align	2
  29              	.LC3:
  30 003c 726F6C6C 		.ascii	"roll:%f\000"
  30      3A256600 
  31              		.align	2
  32              	.LC4:
  33 0044 6465663A 		.ascii	"def:%f\000"
  33      256600
  34              		.section	.text.main,"ax",%progbits
  35              		.align	1
  36              		.global	main
  37              		.syntax unified
  38              		.thumb
  39              		.thumb_func
  41              	main:
  42              		@ Volatile: function does not return.
  43              		@ args = 0, pretend = 0, frame = 0
  44              		@ frame_needed = 0, uses_anonymous_args = 0
  45 0000 00B5     		push	{lr}
  46 0002 83B0     		sub	sp, sp, #12
ARM GAS  C:\Users\ktkuru\AppData\Local\Temp\cc0qEUaL.s 			page 2


  47 0004 FFF7FEFF 		bl	BSP_Init
  48 0008 38B1     		cbz	r0, .L2
  49 000a 1F48     		ldr	r0, .L8
  50 000c FFF7FEFF 		bl	puts
  51              	.L3:
  52 0010 FFF7FEFF 		bl	OLED_Clear
  53 0014 FFF7FEFF 		bl	OLED_Clear
  54 0018 31E0     		b	.L5
  55              	.L2:
  56 001a 1C48     		ldr	r0, .L8+4
  57 001c FFF7FEFF 		bl	puts
  58 0020 F6E7     		b	.L3
  59              	.L7:
  60 0022 1B4B     		ldr	r3, .L8+8
  61 0024 D3ED000A 		vldr.32	s1, [r3]
  62 0028 1A4B     		ldr	r3, .L8+12
  63 002a 93ED000A 		vldr.32	s0, [r3]
  64 002e FFF7FEFF 		bl	MotorState
  65              	.L4:
  66 0032 184B     		ldr	r3, .L8+12
  67 0034 1868     		ldr	r0, [r3]	@ float
  68 0036 FFF7FEFF 		bl	__aeabi_f2d
  69 003a CDE90001 		strd	r0, [sp]
  70 003e 164B     		ldr	r3, .L8+16
  71 0040 0622     		movs	r2, #6
  72 0042 0021     		movs	r1, #0
  73 0044 0846     		mov	r0, r1
  74 0046 FFF7FEFF 		bl	OLED_Printf
  75 004a 114B     		ldr	r3, .L8+8
  76 004c 1868     		ldr	r0, [r3]	@ float
  77 004e FFF7FEFF 		bl	__aeabi_f2d
  78 0052 CDE90001 		strd	r0, [sp]
  79 0056 114B     		ldr	r3, .L8+20
  80 0058 0622     		movs	r2, #6
  81 005a 1021     		movs	r1, #16
  82 005c 0020     		movs	r0, #0
  83 005e FFF7FEFF 		bl	OLED_Printf
  84 0062 0F4B     		ldr	r3, .L8+24
  85 0064 1868     		ldr	r0, [r3]	@ float
  86 0066 FFF7FEFF 		bl	__aeabi_f2d
  87 006a CDE90001 		strd	r0, [sp]
  88 006e 0D4B     		ldr	r3, .L8+28
  89 0070 0622     		movs	r2, #6
  90 0072 2021     		movs	r1, #32
  91 0074 0020     		movs	r0, #0
  92 0076 FFF7FEFF 		bl	OLED_Printf
  93 007a FFF7FEFF 		bl	OLED_Update
  94              	.L5:
  95 007e 0A4B     		ldr	r3, .L8+32
  96 0080 1B78     		ldrb	r3, [r3]	@ zero_extendqisi2
  97 0082 042B     		cmp	r3, #4
  98 0084 CDD0     		beq	.L7
  99 0086 D4E7     		b	.L4
 100              	.L9:
 101              		.align	2
 102              	.L8:
 103 0088 00000000 		.word	.LC0
ARM GAS  C:\Users\ktkuru\AppData\Local\Temp\cc0qEUaL.s 			page 3


 104 008c 18000000 		.word	.LC1
 105 0090 00000000 		.word	roll
 106 0094 00000000 		.word	pitch
 107 0098 30000000 		.word	.LC2
 108 009c 3C000000 		.word	.LC3
 109 00a0 00000000 		.word	def
 110 00a4 44000000 		.word	.LC4
 111 00a8 00000000 		.word	mode
 113              		.global	abspitch
 114              		.section	.bss.abspitch,"aw",%nobits
 115              		.align	2
 118              	abspitch:
 119 0000 00000000 		.space	4
 120              		.global	absroll
 121              		.section	.bss.absroll,"aw",%nobits
 122              		.align	2
 125              	absroll:
 126 0000 00000000 		.space	4
 127              		.global	Opolar
 128              		.section	.bss.Opolar,"aw",%nobits
 129              		.align	2
 132              	Opolar:
 133 0000 00000000 		.space	4
 134              		.global	polar
 135              		.section	.bss.polar,"aw",%nobits
 136              		.align	2
 139              	polar:
 140 0000 00000000 		.space	4
 141              		.global	dis
 142              		.section	.bss.dis,"aw",%nobits
 143              		.align	2
 146              	dis:
 147 0000 00000000 		.space	4
 148              		.global	def
 149              		.section	.bss.def,"aw",%nobits
 150              		.align	2
 153              	def:
 154 0000 00000000 		.space	4
 155              		.global	yaw
 156              		.section	.bss.yaw,"aw",%nobits
 157              		.align	2
 160              	yaw:
 161 0000 00000000 		.space	4
 162              		.global	roll
 163              		.section	.bss.roll,"aw",%nobits
 164              		.align	2
 167              	roll:
 168 0000 00000000 		.space	4
 169              		.global	pitch
 170              		.section	.bss.pitch,"aw",%nobits
 171              		.align	2
 174              	pitch:
 175 0000 00000000 		.space	4
 176              		.ident	"GCC: (Arm GNU Toolchain 13.3.Rel1 (Build arm-13.24)) 13.3.1 20240614"
ARM GAS  C:\Users\ktkuru\AppData\Local\Temp\cc0qEUaL.s 			page 4


DEFINED SYMBOLS
                            *ABS*:00000000 main.c
C:\Users\ktkuru\AppData\Local\Temp\cc0qEUaL.s:18     .rodata.main.str1.4:00000000 $d
C:\Users\ktkuru\AppData\Local\Temp\cc0qEUaL.s:35     .text.main:00000000 $t
C:\Users\ktkuru\AppData\Local\Temp\cc0qEUaL.s:41     .text.main:00000000 main
C:\Users\ktkuru\AppData\Local\Temp\cc0qEUaL.s:103    .text.main:00000088 $d
C:\Users\ktkuru\AppData\Local\Temp\cc0qEUaL.s:167    .bss.roll:00000000 roll
C:\Users\ktkuru\AppData\Local\Temp\cc0qEUaL.s:174    .bss.pitch:00000000 pitch
C:\Users\ktkuru\AppData\Local\Temp\cc0qEUaL.s:153    .bss.def:00000000 def
C:\Users\ktkuru\AppData\Local\Temp\cc0qEUaL.s:118    .bss.abspitch:00000000 abspitch
C:\Users\ktkuru\AppData\Local\Temp\cc0qEUaL.s:115    .bss.abspitch:00000000 $d
C:\Users\ktkuru\AppData\Local\Temp\cc0qEUaL.s:125    .bss.absroll:00000000 absroll
C:\Users\ktkuru\AppData\Local\Temp\cc0qEUaL.s:122    .bss.absroll:00000000 $d
C:\Users\ktkuru\AppData\Local\Temp\cc0qEUaL.s:132    .bss.Opolar:00000000 Opolar
C:\Users\ktkuru\AppData\Local\Temp\cc0qEUaL.s:129    .bss.Opolar:00000000 $d
C:\Users\ktkuru\AppData\Local\Temp\cc0qEUaL.s:139    .bss.polar:00000000 polar
C:\Users\ktkuru\AppData\Local\Temp\cc0qEUaL.s:136    .bss.polar:00000000 $d
C:\Users\ktkuru\AppData\Local\Temp\cc0qEUaL.s:146    .bss.dis:00000000 dis
C:\Users\ktkuru\AppData\Local\Temp\cc0qEUaL.s:143    .bss.dis:00000000 $d
C:\Users\ktkuru\AppData\Local\Temp\cc0qEUaL.s:150    .bss.def:00000000 $d
C:\Users\ktkuru\AppData\Local\Temp\cc0qEUaL.s:160    .bss.yaw:00000000 yaw
C:\Users\ktkuru\AppData\Local\Temp\cc0qEUaL.s:157    .bss.yaw:00000000 $d
C:\Users\ktkuru\AppData\Local\Temp\cc0qEUaL.s:164    .bss.roll:00000000 $d
C:\Users\ktkuru\AppData\Local\Temp\cc0qEUaL.s:171    .bss.pitch:00000000 $d

UNDEFINED SYMBOLS
__aeabi_f2d
BSP_Init
puts
OLED_Clear
MotorState
OLED_Printf
OLED_Update
mode
