ARM GAS  C:\Users\ktkuru\AppData\Local\Temp\cctlUIkE.s 			page 1


   1              		.cpu cortex-m4
   2              		.arch armv7e-m
   3              		.fpu fpv4-sp-d16
   4              		.eabi_attribute 27, 1
   5              		.eabi_attribute 28, 1
   6              		.eabi_attribute 20, 1
   7              		.eabi_attribute 21, 1
   8              		.eabi_attribute 23, 3
   9              		.eabi_attribute 24, 1
  10              		.eabi_attribute 25, 1
  11              		.eabi_attribute 26, 1
  12              		.eabi_attribute 30, 1
  13              		.eabi_attribute 34, 1
  14              		.eabi_attribute 18, 4
  15              		.file	"main.c"
  16              		.text
  17              		.section	.rodata.main.str1.4,"aMS",%progbits,1
  18              		.align	2
  19              	.LC0:
  20 0000 70657269 		.ascii	"peripheral init failed\000"
  20      70686572 
  20      616C2069 
  20      6E697420 
  20      6661696C 
  21 0017 00       		.align	2
  22              	.LC1:
  23 0018 70657269 		.ascii	"peripheral init done\000"
  23      70686572 
  23      616C2069 
  23      6E697420 
  23      646F6E65 
  24 002d 000000   		.align	2
  25              	.LC2:
  26 0030 4D6F6465 		.ascii	"Mode chose...\000"
  26      2063686F 
  26      73652E2E 
  26      2E00
  27 003e 0000     		.align	2
  28              	.LC3:
  29 0040 20202020 		.ascii	"             \000"
  29      20202020 
  29      20202020 
  29      2000
  30 004e 0000     		.align	2
  31              	.LC4:
  32 0050 4D505536 		.ascii	"MPU6050 error\000"
  32      30353020 
  32      6572726F 
  32      7200
  33 005e 0000     		.align	2
  34              	.LC5:
  35 0060 706C6561 		.ascii	"please try again\000"
  35      73652074 
  35      72792061 
  35      6761696E 
  35      00
  36 0071 000000   		.align	2
ARM GAS  C:\Users\ktkuru\AppData\Local\Temp\cctlUIkE.s 			page 2


  37              	.LC6:
  38 0074 70697463 		.ascii	"pitch:%f\000"
  38      683A2566 
  38      00
  39              		.global	__aeabi_f2d
  40 007d 000000   		.align	2
  41              	.LC7:
  42 0080 726F6C6C 		.ascii	"roll:%f\000"
  42      3A256600 
  43              		.align	2
  44              	.LC8:
  45 0088 6465663A 		.ascii	"def:%f\000"
  45      256600
  46              		.section	.text.main,"ax",%progbits
  47              		.align	1
  48              		.global	main
  49              		.syntax unified
  50              		.thumb
  51              		.thumb_func
  53              	main:
  54              		@ Volatile: function does not return.
  55              		@ args = 0, pretend = 0, frame = 0
  56              		@ frame_needed = 0, uses_anonymous_args = 0
  57 0000 00B5     		push	{lr}
  58 0002 83B0     		sub	sp, sp, #12
  59              	.L2:
  60 0004 FFF7FEFF 		bl	BSP_Init
  61 0008 28B1     		cbz	r0, .L3
  62 000a 4B48     		ldr	r0, .L15
  63 000c FFF7FEFF 		bl	puts
  64              	.L4:
  65 0010 FFF7FEFF 		bl	OLED_Clear
  66 0014 17E0     		b	.L5
  67              	.L3:
  68 0016 4948     		ldr	r0, .L15+4
  69 0018 FFF7FEFF 		bl	puts
  70 001c F8E7     		b	.L4
  71              	.L13:
  72 001e 0121     		movs	r1, #1
  73 0020 4FF08040 		mov	r0, #1073741824
  74 0024 FFF7FEFF 		bl	TIM_Cmd
  75 0028 2DE0     		b	.L7
  76              	.L14:
  77 002a 454B     		ldr	r3, .L15+8
  78 002c D3ED000A 		vldr.32	s1, [r3]
  79 0030 444B     		ldr	r3, .L15+12
  80 0032 93ED000A 		vldr.32	s0, [r3]
  81 0036 FFF7FEFF 		bl	MotorState
  82 003a 51E0     		b	.L8
  83              	.L9:
  84 003c 0021     		movs	r1, #0
  85 003e 4FF08040 		mov	r0, #1073741824
  86 0042 FFF7FEFF 		bl	TIM_Cmd
  87              	.L5:
  88 0046 FFF7FEFF 		bl	OLED_Clear
  89              	.L6:
  90 004a 3F4B     		ldr	r3, .L15+16
ARM GAS  C:\Users\ktkuru\AppData\Local\Temp\cctlUIkE.s 			page 3


  91 004c 0822     		movs	r2, #8
  92 004e 0021     		movs	r1, #0
  93 0050 0846     		mov	r0, r1
  94 0052 FFF7FEFF 		bl	OLED_Printf
  95 0056 FFF7FEFF 		bl	OLED_Update
  96 005a 4FF4FA70 		mov	r0, #500
  97 005e FFF7FEFF 		bl	delay_ms
  98 0062 3A4B     		ldr	r3, .L15+20
  99 0064 0822     		movs	r2, #8
 100 0066 0021     		movs	r1, #0
 101 0068 0846     		mov	r0, r1
 102 006a FFF7FEFF 		bl	OLED_Printf
 103 006e FFF7FEFF 		bl	OLED_Update
 104 0072 4FF4FA70 		mov	r0, #500
 105 0076 FFF7FEFF 		bl	delay_ms
 106 007a 354B     		ldr	r3, .L15+24
 107 007c 1B78     		ldrb	r3, [r3]	@ zero_extendqisi2
 108 007e 002B     		cmp	r3, #0
 109 0080 E3D0     		beq	.L6
 110 0082 052B     		cmp	r3, #5
 111 0084 CBD0     		beq	.L13
 112              	.L7:
 113 0086 FFF7FEFF 		bl	OLED_Clear
 114 008a 25E0     		b	.L11
 115              	.L10:
 116 008c 2D4B     		ldr	r3, .L15+12
 117 008e 1868     		ldr	r0, [r3]	@ float
 118 0090 FFF7FEFF 		bl	__aeabi_f2d
 119 0094 CDE90001 		strd	r0, [sp]
 120 0098 2E4B     		ldr	r3, .L15+28
 121 009a 0622     		movs	r2, #6
 122 009c 0021     		movs	r1, #0
 123 009e 0846     		mov	r0, r1
 124 00a0 FFF7FEFF 		bl	OLED_Printf
 125 00a4 264B     		ldr	r3, .L15+8
 126 00a6 1868     		ldr	r0, [r3]	@ float
 127 00a8 FFF7FEFF 		bl	__aeabi_f2d
 128 00ac CDE90001 		strd	r0, [sp]
 129 00b0 294B     		ldr	r3, .L15+32
 130 00b2 0622     		movs	r2, #6
 131 00b4 1021     		movs	r1, #16
 132 00b6 0020     		movs	r0, #0
 133 00b8 FFF7FEFF 		bl	OLED_Printf
 134 00bc 274B     		ldr	r3, .L15+36
 135 00be 1868     		ldr	r0, [r3]	@ float
 136 00c0 FFF7FEFF 		bl	__aeabi_f2d
 137 00c4 CDE90001 		strd	r0, [sp]
 138 00c8 254B     		ldr	r3, .L15+40
 139 00ca 0622     		movs	r2, #6
 140 00cc 2021     		movs	r1, #32
 141 00ce 0020     		movs	r0, #0
 142 00d0 FFF7FEFF 		bl	OLED_Printf
 143 00d4 FFF7FEFF 		bl	OLED_Update
 144              	.L11:
 145 00d8 1D4B     		ldr	r3, .L15+24
 146 00da 1B78     		ldrb	r3, [r3]	@ zero_extendqisi2
 147 00dc 042B     		cmp	r3, #4
ARM GAS  C:\Users\ktkuru\AppData\Local\Temp\cctlUIkE.s 			page 4


 148 00de A4D0     		beq	.L14
 149              	.L8:
 150 00e0 1B4B     		ldr	r3, .L15+24
 151 00e2 1B78     		ldrb	r3, [r3]	@ zero_extendqisi2
 152 00e4 002B     		cmp	r3, #0
 153 00e6 A9D0     		beq	.L9
 154 00e8 164B     		ldr	r3, .L15+12
 155 00ea D3ED007A 		vldr.32	s15, [r3]
 156 00ee F5EE407A 		vcmp.f32	s15, #0
 157 00f2 F1EE10FA 		vmrs	APSR_nzcv, FPSCR
 158 00f6 C9D1     		bne	.L10
 159 00f8 114B     		ldr	r3, .L15+8
 160 00fa D3ED007A 		vldr.32	s15, [r3]
 161 00fe F5EE407A 		vcmp.f32	s15, #0
 162 0102 F1EE10FA 		vmrs	APSR_nzcv, FPSCR
 163 0106 C1D1     		bne	.L10
 164 0108 FFF7FEFF 		bl	OLED_Clear
 165 010c 154B     		ldr	r3, .L15+44
 166 010e 0822     		movs	r2, #8
 167 0110 0021     		movs	r1, #0
 168 0112 0846     		mov	r0, r1
 169 0114 FFF7FEFF 		bl	OLED_Printf
 170 0118 134B     		ldr	r3, .L15+48
 171 011a 0822     		movs	r2, #8
 172 011c 1021     		movs	r1, #16
 173 011e 0020     		movs	r0, #0
 174 0120 FFF7FEFF 		bl	OLED_Printf
 175 0124 FFF7FEFF 		bl	OLED_Update
 176 0128 4FF47A70 		mov	r0, #1000
 177 012c FFF7FEFF 		bl	delay_ms
 178 0130 FFF7FEFF 		bl	Reset_Handler
 179 0134 AAE7     		b	.L10
 180              	.L16:
 181 0136 00BF     		.align	2
 182              	.L15:
 183 0138 00000000 		.word	.LC0
 184 013c 18000000 		.word	.LC1
 185 0140 00000000 		.word	roll
 186 0144 00000000 		.word	pitch
 187 0148 30000000 		.word	.LC2
 188 014c 40000000 		.word	.LC3
 189 0150 00000000 		.word	mode
 190 0154 74000000 		.word	.LC6
 191 0158 80000000 		.word	.LC7
 192 015c 00000000 		.word	def
 193 0160 88000000 		.word	.LC8
 194 0164 50000000 		.word	.LC4
 195 0168 60000000 		.word	.LC5
 197              		.global	abspitch
 198              		.section	.bss.abspitch,"aw",%nobits
 199              		.align	2
 202              	abspitch:
 203 0000 00000000 		.space	4
 204              		.global	absroll
 205              		.section	.bss.absroll,"aw",%nobits
 206              		.align	2
 209              	absroll:
ARM GAS  C:\Users\ktkuru\AppData\Local\Temp\cctlUIkE.s 			page 5


 210 0000 00000000 		.space	4
 211              		.global	Opolar
 212              		.section	.bss.Opolar,"aw",%nobits
 213              		.align	2
 216              	Opolar:
 217 0000 00000000 		.space	4
 218              		.global	polar
 219              		.section	.bss.polar,"aw",%nobits
 220              		.align	2
 223              	polar:
 224 0000 00000000 		.space	4
 225              		.global	dis
 226              		.section	.bss.dis,"aw",%nobits
 227              		.align	2
 230              	dis:
 231 0000 00000000 		.space	4
 232              		.global	def
 233              		.section	.bss.def,"aw",%nobits
 234              		.align	2
 237              	def:
 238 0000 00000000 		.space	4
 239              		.global	yaw
 240              		.section	.bss.yaw,"aw",%nobits
 241              		.align	2
 244              	yaw:
 245 0000 00000000 		.space	4
 246              		.global	roll
 247              		.section	.bss.roll,"aw",%nobits
 248              		.align	2
 251              	roll:
 252 0000 00000000 		.space	4
 253              		.global	pitch
 254              		.section	.bss.pitch,"aw",%nobits
 255              		.align	2
 258              	pitch:
 259 0000 00000000 		.space	4
 260              		.ident	"GCC: (Arm GNU Toolchain 13.3.Rel1 (Build arm-13.24)) 13.3.1 20240614"
ARM GAS  C:\Users\ktkuru\AppData\Local\Temp\cctlUIkE.s 			page 6


DEFINED SYMBOLS
                            *ABS*:00000000 main.c
C:\Users\ktkuru\AppData\Local\Temp\cctlUIkE.s:18     .rodata.main.str1.4:00000000 $d
C:\Users\ktkuru\AppData\Local\Temp\cctlUIkE.s:47     .text.main:00000000 $t
C:\Users\ktkuru\AppData\Local\Temp\cctlUIkE.s:53     .text.main:00000000 main
C:\Users\ktkuru\AppData\Local\Temp\cctlUIkE.s:183    .text.main:00000138 $d
C:\Users\ktkuru\AppData\Local\Temp\cctlUIkE.s:251    .bss.roll:00000000 roll
C:\Users\ktkuru\AppData\Local\Temp\cctlUIkE.s:258    .bss.pitch:00000000 pitch
C:\Users\ktkuru\AppData\Local\Temp\cctlUIkE.s:237    .bss.def:00000000 def
C:\Users\ktkuru\AppData\Local\Temp\cctlUIkE.s:202    .bss.abspitch:00000000 abspitch
C:\Users\ktkuru\AppData\Local\Temp\cctlUIkE.s:199    .bss.abspitch:00000000 $d
C:\Users\ktkuru\AppData\Local\Temp\cctlUIkE.s:209    .bss.absroll:00000000 absroll
C:\Users\ktkuru\AppData\Local\Temp\cctlUIkE.s:206    .bss.absroll:00000000 $d
C:\Users\ktkuru\AppData\Local\Temp\cctlUIkE.s:216    .bss.Opolar:00000000 Opolar
C:\Users\ktkuru\AppData\Local\Temp\cctlUIkE.s:213    .bss.Opolar:00000000 $d
C:\Users\ktkuru\AppData\Local\Temp\cctlUIkE.s:223    .bss.polar:00000000 polar
C:\Users\ktkuru\AppData\Local\Temp\cctlUIkE.s:220    .bss.polar:00000000 $d
C:\Users\ktkuru\AppData\Local\Temp\cctlUIkE.s:230    .bss.dis:00000000 dis
C:\Users\ktkuru\AppData\Local\Temp\cctlUIkE.s:227    .bss.dis:00000000 $d
C:\Users\ktkuru\AppData\Local\Temp\cctlUIkE.s:234    .bss.def:00000000 $d
C:\Users\ktkuru\AppData\Local\Temp\cctlUIkE.s:244    .bss.yaw:00000000 yaw
C:\Users\ktkuru\AppData\Local\Temp\cctlUIkE.s:241    .bss.yaw:00000000 $d
C:\Users\ktkuru\AppData\Local\Temp\cctlUIkE.s:248    .bss.roll:00000000 $d
C:\Users\ktkuru\AppData\Local\Temp\cctlUIkE.s:255    .bss.pitch:00000000 $d

UNDEFINED SYMBOLS
__aeabi_f2d
BSP_Init
puts
OLED_Clear
TIM_Cmd
MotorState
OLED_Printf
OLED_Update
delay_ms
Reset_Handler
mode
