ARM GAS  C:\Users\ktkuru\AppData\Local\Temp\ccMwwy8h.s 			page 1


   1              		.cpu cortex-m4
   2              		.arch armv7e-m
   3              		.fpu fpv4-sp-d16
   4              		.eabi_attribute 27, 1
   5              		.eabi_attribute 28, 1
   6              		.eabi_attribute 20, 1
   7              		.eabi_attribute 21, 1
   8              		.eabi_attribute 23, 3
   9              		.eabi_attribute 24, 1
  10              		.eabi_attribute 25, 1
  11              		.eabi_attribute 26, 1
  12              		.eabi_attribute 30, 1
  13              		.eabi_attribute 34, 1
  14              		.eabi_attribute 18, 4
  15              		.file	"main.c"
  16              		.text
  17              		.section	.rodata.main.str1.4,"aMS",%progbits,1
  18              		.align	2
  19              	.LC0:
  20 0000 70657269 		.ascii	"peripheral init failed\000"
  20      70686572 
  20      616C2069 
  20      6E697420 
  20      6661696C 
  21 0017 00       		.align	2
  22              	.LC1:
  23 0018 70657269 		.ascii	"peripheral init done\000"
  23      70686572 
  23      616C2069 
  23      6E697420 
  23      646F6E65 
  24 002d 000000   		.align	2
  25              	.LC2:
  26 0030 4D6F6465 		.ascii	"Mode chose...\000"
  26      2063686F 
  26      73652E2E 
  26      2E00
  27 003e 0000     		.align	2
  28              	.LC3:
  29 0040 20202020 		.ascii	"             \000"
  29      20202020 
  29      20202020 
  29      2000
  30 004e 0000     		.align	2
  31              	.LC4:
  32 0050 70697463 		.ascii	"pitch:%f\000"
  32      683A2566 
  32      00
  33              		.global	__aeabi_f2d
  34 0059 000000   		.align	2
  35              	.LC5:
  36 005c 726F6C6C 		.ascii	"roll:%f\000"
  36      3A256600 
  37              		.align	2
  38              	.LC6:
  39 0064 6465663A 		.ascii	"def:%f\000"
  39      256600
ARM GAS  C:\Users\ktkuru\AppData\Local\Temp\ccMwwy8h.s 			page 2


  40              		.section	.text.main,"ax",%progbits
  41              		.align	1
  42              		.global	main
  43              		.syntax unified
  44              		.thumb
  45              		.thumb_func
  47              	main:
  48              		@ Volatile: function does not return.
  49              		@ args = 0, pretend = 0, frame = 0
  50              		@ frame_needed = 0, uses_anonymous_args = 0
  51 0000 00B5     		push	{lr}
  52 0002 83B0     		sub	sp, sp, #12
  53 0004 FFF7FEFF 		bl	BSP_Init
  54 0008 0028     		cmp	r0, #0
  55 000a 45D0     		beq	.L2
  56 000c 2448     		ldr	r0, .L7
  57 000e FFF7FEFF 		bl	puts
  58              	.L3:
  59 0012 FFF7FEFF 		bl	OLED_Clear
  60              	.L4:
  61 0016 234B     		ldr	r3, .L7+4
  62 0018 0822     		movs	r2, #8
  63 001a 0021     		movs	r1, #0
  64 001c 0846     		mov	r0, r1
  65 001e FFF7FEFF 		bl	OLED_Printf
  66 0022 4FF44870 		mov	r0, #800
  67 0026 FFF7FEFF 		bl	delay_ms
  68 002a 1F4B     		ldr	r3, .L7+8
  69 002c 0822     		movs	r2, #8
  70 002e 0021     		movs	r1, #0
  71 0030 0846     		mov	r0, r1
  72 0032 FFF7FEFF 		bl	OLED_Printf
  73 0036 4FF44870 		mov	r0, #800
  74 003a FFF7FEFF 		bl	delay_ms
  75 003e 1B4B     		ldr	r3, .L7+12
  76 0040 1B78     		ldrb	r3, [r3]	@ zero_extendqisi2
  77 0042 002B     		cmp	r3, #0
  78 0044 E7D0     		beq	.L4
  79 0046 FFF7FEFF 		bl	OLED_Clear
  80              	.L5:
  81 004a 194B     		ldr	r3, .L7+16
  82 004c 1868     		ldr	r0, [r3]	@ float
  83 004e FFF7FEFF 		bl	__aeabi_f2d
  84 0052 CDE90001 		strd	r0, [sp]
  85 0056 174B     		ldr	r3, .L7+20
  86 0058 0622     		movs	r2, #6
  87 005a 0021     		movs	r1, #0
  88 005c 0846     		mov	r0, r1
  89 005e FFF7FEFF 		bl	OLED_Printf
  90 0062 154B     		ldr	r3, .L7+24
  91 0064 1868     		ldr	r0, [r3]	@ float
  92 0066 FFF7FEFF 		bl	__aeabi_f2d
  93 006a CDE90001 		strd	r0, [sp]
  94 006e 134B     		ldr	r3, .L7+28
  95 0070 0622     		movs	r2, #6
  96 0072 1021     		movs	r1, #16
  97 0074 0020     		movs	r0, #0
ARM GAS  C:\Users\ktkuru\AppData\Local\Temp\ccMwwy8h.s 			page 3


  98 0076 FFF7FEFF 		bl	OLED_Printf
  99 007a 114B     		ldr	r3, .L7+32
 100 007c 1868     		ldr	r0, [r3]	@ float
 101 007e FFF7FEFF 		bl	__aeabi_f2d
 102 0082 CDE90001 		strd	r0, [sp]
 103 0086 0F4B     		ldr	r3, .L7+36
 104 0088 0622     		movs	r2, #6
 105 008a 2021     		movs	r1, #32
 106 008c 0020     		movs	r0, #0
 107 008e FFF7FEFF 		bl	OLED_Printf
 108 0092 FFF7FEFF 		bl	OLED_Update
 109 0096 D8E7     		b	.L5
 110              	.L2:
 111 0098 0B48     		ldr	r0, .L7+40
 112 009a FFF7FEFF 		bl	puts
 113 009e B8E7     		b	.L3
 114              	.L8:
 115              		.align	2
 116              	.L7:
 117 00a0 00000000 		.word	.LC0
 118 00a4 30000000 		.word	.LC2
 119 00a8 40000000 		.word	.LC3
 120 00ac 00000000 		.word	mode
 121 00b0 00000000 		.word	pitch
 122 00b4 50000000 		.word	.LC4
 123 00b8 00000000 		.word	roll
 124 00bc 5C000000 		.word	.LC5
 125 00c0 00000000 		.word	def
 126 00c4 64000000 		.word	.LC6
 127 00c8 18000000 		.word	.LC1
 129              		.global	mode
 130              		.section	.bss.mode,"aw",%nobits
 133              	mode:
 134 0000 00       		.space	1
 135              		.global	abspitch
 136              		.section	.bss.abspitch,"aw",%nobits
 137              		.align	2
 140              	abspitch:
 141 0000 00000000 		.space	4
 142              		.global	absroll
 143              		.section	.bss.absroll,"aw",%nobits
 144              		.align	2
 147              	absroll:
 148 0000 00000000 		.space	4
 149              		.global	Opolar
 150              		.section	.bss.Opolar,"aw",%nobits
 151              		.align	2
 154              	Opolar:
 155 0000 00000000 		.space	4
 156              		.global	polar
 157              		.section	.bss.polar,"aw",%nobits
 158              		.align	2
 161              	polar:
 162 0000 00000000 		.space	4
 163              		.global	dis
 164              		.section	.bss.dis,"aw",%nobits
 165              		.align	2
ARM GAS  C:\Users\ktkuru\AppData\Local\Temp\ccMwwy8h.s 			page 4


 168              	dis:
 169 0000 00000000 		.space	4
 170              		.global	def
 171              		.section	.bss.def,"aw",%nobits
 172              		.align	2
 175              	def:
 176 0000 00000000 		.space	4
 177              		.global	yaw
 178              		.section	.bss.yaw,"aw",%nobits
 179              		.align	2
 182              	yaw:
 183 0000 00000000 		.space	4
 184              		.global	roll
 185              		.section	.bss.roll,"aw",%nobits
 186              		.align	2
 189              	roll:
 190 0000 00000000 		.space	4
 191              		.global	pitch
 192              		.section	.bss.pitch,"aw",%nobits
 193              		.align	2
 196              	pitch:
 197 0000 00000000 		.space	4
 198              		.ident	"GCC: (Arm GNU Toolchain 13.3.Rel1 (Build arm-13.24)) 13.3.1 20240614"
ARM GAS  C:\Users\ktkuru\AppData\Local\Temp\ccMwwy8h.s 			page 5


DEFINED SYMBOLS
                            *ABS*:00000000 main.c
C:\Users\ktkuru\AppData\Local\Temp\ccMwwy8h.s:18     .rodata.main.str1.4:00000000 $d
C:\Users\ktkuru\AppData\Local\Temp\ccMwwy8h.s:41     .text.main:00000000 $t
C:\Users\ktkuru\AppData\Local\Temp\ccMwwy8h.s:47     .text.main:00000000 main
C:\Users\ktkuru\AppData\Local\Temp\ccMwwy8h.s:117    .text.main:000000a0 $d
C:\Users\ktkuru\AppData\Local\Temp\ccMwwy8h.s:133    .bss.mode:00000000 mode
C:\Users\ktkuru\AppData\Local\Temp\ccMwwy8h.s:196    .bss.pitch:00000000 pitch
C:\Users\ktkuru\AppData\Local\Temp\ccMwwy8h.s:189    .bss.roll:00000000 roll
C:\Users\ktkuru\AppData\Local\Temp\ccMwwy8h.s:175    .bss.def:00000000 def
C:\Users\ktkuru\AppData\Local\Temp\ccMwwy8h.s:134    .bss.mode:00000000 $d
C:\Users\ktkuru\AppData\Local\Temp\ccMwwy8h.s:140    .bss.abspitch:00000000 abspitch
C:\Users\ktkuru\AppData\Local\Temp\ccMwwy8h.s:137    .bss.abspitch:00000000 $d
C:\Users\ktkuru\AppData\Local\Temp\ccMwwy8h.s:147    .bss.absroll:00000000 absroll
C:\Users\ktkuru\AppData\Local\Temp\ccMwwy8h.s:144    .bss.absroll:00000000 $d
C:\Users\ktkuru\AppData\Local\Temp\ccMwwy8h.s:154    .bss.Opolar:00000000 Opolar
C:\Users\ktkuru\AppData\Local\Temp\ccMwwy8h.s:151    .bss.Opolar:00000000 $d
C:\Users\ktkuru\AppData\Local\Temp\ccMwwy8h.s:161    .bss.polar:00000000 polar
C:\Users\ktkuru\AppData\Local\Temp\ccMwwy8h.s:158    .bss.polar:00000000 $d
C:\Users\ktkuru\AppData\Local\Temp\ccMwwy8h.s:168    .bss.dis:00000000 dis
C:\Users\ktkuru\AppData\Local\Temp\ccMwwy8h.s:165    .bss.dis:00000000 $d
C:\Users\ktkuru\AppData\Local\Temp\ccMwwy8h.s:172    .bss.def:00000000 $d
C:\Users\ktkuru\AppData\Local\Temp\ccMwwy8h.s:182    .bss.yaw:00000000 yaw
C:\Users\ktkuru\AppData\Local\Temp\ccMwwy8h.s:179    .bss.yaw:00000000 $d
C:\Users\ktkuru\AppData\Local\Temp\ccMwwy8h.s:186    .bss.roll:00000000 $d
C:\Users\ktkuru\AppData\Local\Temp\ccMwwy8h.s:193    .bss.pitch:00000000 $d

UNDEFINED SYMBOLS
__aeabi_f2d
BSP_Init
puts
OLED_Clear
OLED_Printf
delay_ms
OLED_Update
