ARM GAS  C:\Users\ktkuru\AppData\Local\Temp\ccFBGNck.s 			page 1


   1              		.cpu cortex-m4
   2              		.arch armv7e-m
   3              		.fpu fpv4-sp-d16
   4              		.eabi_attribute 27, 1
   5              		.eabi_attribute 28, 1
   6              		.eabi_attribute 20, 1
   7              		.eabi_attribute 21, 1
   8              		.eabi_attribute 23, 3
   9              		.eabi_attribute 24, 1
  10              		.eabi_attribute 25, 1
  11              		.eabi_attribute 26, 1
  12              		.eabi_attribute 30, 1
  13              		.eabi_attribute 34, 1
  14              		.eabi_attribute 18, 4
  15              		.file	"stm32f4xx_wwdg.c"
  16              		.text
  17              		.section	.text.WWDG_DeInit,"ax",%progbits
  18              		.align	1
  19              		.global	WWDG_DeInit
  20              		.syntax unified
  21              		.thumb
  22              		.thumb_func
  24              	WWDG_DeInit:
  25              		@ args = 0, pretend = 0, frame = 0
  26              		@ frame_needed = 0, uses_anonymous_args = 0
  27 0000 08B5     		push	{r3, lr}
  28 0002 0121     		movs	r1, #1
  29 0004 4FF40060 		mov	r0, #2048
  30 0008 FFF7FEFF 		bl	RCC_APB1PeriphResetCmd
  31 000c 0021     		movs	r1, #0
  32 000e 4FF40060 		mov	r0, #2048
  33 0012 FFF7FEFF 		bl	RCC_APB1PeriphResetCmd
  34 0016 08BD     		pop	{r3, pc}
  36              		.section	.text.WWDG_SetPrescaler,"ax",%progbits
  37              		.align	1
  38              		.global	WWDG_SetPrescaler
  39              		.syntax unified
  40              		.thumb
  41              		.thumb_func
  43              	WWDG_SetPrescaler:
  44              		@ args = 0, pretend = 0, frame = 0
  45              		@ frame_needed = 0, uses_anonymous_args = 0
  46              		@ link register save eliminated.
  47 0000 034A     		ldr	r2, .L4
  48 0002 5368     		ldr	r3, [r2, #4]
  49 0004 23F4C073 		bic	r3, r3, #384
  50 0008 0343     		orrs	r3, r3, r0
  51 000a 5360     		str	r3, [r2, #4]
  52 000c 7047     		bx	lr
  53              	.L5:
  54 000e 00BF     		.align	2
  55              	.L4:
  56 0010 002C0040 		.word	1073753088
  58              		.section	.text.WWDG_SetWindowValue,"ax",%progbits
  59              		.align	1
  60              		.global	WWDG_SetWindowValue
  61              		.syntax unified
ARM GAS  C:\Users\ktkuru\AppData\Local\Temp\ccFBGNck.s 			page 2


  62              		.thumb
  63              		.thumb_func
  65              	WWDG_SetWindowValue:
  66              		@ args = 0, pretend = 0, frame = 8
  67              		@ frame_needed = 0, uses_anonymous_args = 0
  68              		@ link register save eliminated.
  69 0000 82B0     		sub	sp, sp, #8
  70 0002 0023     		movs	r3, #0
  71 0004 0193     		str	r3, [sp, #4]
  72 0006 074A     		ldr	r2, .L8
  73 0008 5368     		ldr	r3, [r2, #4]
  74 000a 23F07F03 		bic	r3, r3, #127
  75 000e 0193     		str	r3, [sp, #4]
  76 0010 00F07F00 		and	r0, r0, #127
  77 0014 019B     		ldr	r3, [sp, #4]
  78 0016 1843     		orrs	r0, r0, r3
  79 0018 0190     		str	r0, [sp, #4]
  80 001a 019B     		ldr	r3, [sp, #4]
  81 001c 5360     		str	r3, [r2, #4]
  82 001e 02B0     		add	sp, sp, #8
  83              		@ sp needed
  84 0020 7047     		bx	lr
  85              	.L9:
  86 0022 00BF     		.align	2
  87              	.L8:
  88 0024 002C0040 		.word	1073753088
  90              		.section	.text.WWDG_EnableIT,"ax",%progbits
  91              		.align	1
  92              		.global	WWDG_EnableIT
  93              		.syntax unified
  94              		.thumb
  95              		.thumb_func
  97              	WWDG_EnableIT:
  98              		@ args = 0, pretend = 0, frame = 0
  99              		@ frame_needed = 0, uses_anonymous_args = 0
 100              		@ link register save eliminated.
 101 0000 024B     		ldr	r3, .L11
 102 0002 0122     		movs	r2, #1
 103 0004 C3F8A420 		str	r2, [r3, #164]
 104 0008 7047     		bx	lr
 105              	.L12:
 106 000a 00BF     		.align	2
 107              	.L11:
 108 000c 00800542 		.word	1107656704
 110              		.section	.text.WWDG_SetCounter,"ax",%progbits
 111              		.align	1
 112              		.global	WWDG_SetCounter
 113              		.syntax unified
 114              		.thumb
 115              		.thumb_func
 117              	WWDG_SetCounter:
 118              		@ args = 0, pretend = 0, frame = 0
 119              		@ frame_needed = 0, uses_anonymous_args = 0
 120              		@ link register save eliminated.
 121 0000 00F07F00 		and	r0, r0, #127
 122 0004 014B     		ldr	r3, .L14
 123 0006 1860     		str	r0, [r3]
ARM GAS  C:\Users\ktkuru\AppData\Local\Temp\ccFBGNck.s 			page 3


 124 0008 7047     		bx	lr
 125              	.L15:
 126 000a 00BF     		.align	2
 127              	.L14:
 128 000c 002C0040 		.word	1073753088
 130              		.section	.text.WWDG_Enable,"ax",%progbits
 131              		.align	1
 132              		.global	WWDG_Enable
 133              		.syntax unified
 134              		.thumb
 135              		.thumb_func
 137              	WWDG_Enable:
 138              		@ args = 0, pretend = 0, frame = 0
 139              		@ frame_needed = 0, uses_anonymous_args = 0
 140              		@ link register save eliminated.
 141 0000 40F08000 		orr	r0, r0, #128
 142 0004 014B     		ldr	r3, .L17
 143 0006 1860     		str	r0, [r3]
 144 0008 7047     		bx	lr
 145              	.L18:
 146 000a 00BF     		.align	2
 147              	.L17:
 148 000c 002C0040 		.word	1073753088
 150              		.section	.text.WWDG_GetFlagStatus,"ax",%progbits
 151              		.align	1
 152              		.global	WWDG_GetFlagStatus
 153              		.syntax unified
 154              		.thumb
 155              		.thumb_func
 157              	WWDG_GetFlagStatus:
 158              		@ args = 0, pretend = 0, frame = 0
 159              		@ frame_needed = 0, uses_anonymous_args = 0
 160              		@ link register save eliminated.
 161 0000 034B     		ldr	r3, .L22
 162 0002 9B68     		ldr	r3, [r3, #8]
 163 0004 0BB1     		cbz	r3, .L21
 164 0006 0120     		movs	r0, #1
 165 0008 7047     		bx	lr
 166              	.L21:
 167 000a 0020     		movs	r0, #0
 168 000c 7047     		bx	lr
 169              	.L23:
 170 000e 00BF     		.align	2
 171              	.L22:
 172 0010 002C0040 		.word	1073753088
 174              		.section	.text.WWDG_ClearFlag,"ax",%progbits
 175              		.align	1
 176              		.global	WWDG_ClearFlag
 177              		.syntax unified
 178              		.thumb
 179              		.thumb_func
 181              	WWDG_ClearFlag:
 182              		@ args = 0, pretend = 0, frame = 0
 183              		@ frame_needed = 0, uses_anonymous_args = 0
 184              		@ link register save eliminated.
 185 0000 014B     		ldr	r3, .L25
 186 0002 0022     		movs	r2, #0
ARM GAS  C:\Users\ktkuru\AppData\Local\Temp\ccFBGNck.s 			page 4


 187 0004 9A60     		str	r2, [r3, #8]
 188 0006 7047     		bx	lr
 189              	.L26:
 190              		.align	2
 191              	.L25:
 192 0008 002C0040 		.word	1073753088
 194              		.ident	"GCC: (Arm GNU Toolchain 13.3.Rel1 (Build arm-13.24)) 13.3.1 20240614"
ARM GAS  C:\Users\ktkuru\AppData\Local\Temp\ccFBGNck.s 			page 5

