ARM GAS  C:\Users\ktkuru\AppData\Local\Temp\ccMi82ZC.s 			page 1


   1              		.cpu cortex-m4
   2              		.arch armv7e-m
   3              		.fpu fpv4-sp-d16
   4              		.eabi_attribute 27, 1
   5              		.eabi_attribute 28, 1
   6              		.eabi_attribute 20, 1
   7              		.eabi_attribute 21, 1
   8              		.eabi_attribute 23, 3
   9              		.eabi_attribute 24, 1
  10              		.eabi_attribute 25, 1
  11              		.eabi_attribute 26, 1
  12              		.eabi_attribute 30, 1
  13              		.eabi_attribute 34, 1
  14              		.eabi_attribute 18, 4
  15              		.file	"usart.c"
  16              		.text
  17              		.syntax unified
  18              		.global __use_no_semihosting
  19              		
  20              		.thumb
  21              		.syntax unified
  22              		.section	.text._write,"ax",%progbits
  23              		.align	1
  24              		.global	_write
  25              		.syntax unified
  26              		.thumb
  27              		.thumb_func
  29              	_write:
  30              		@ args = 0, pretend = 0, frame = 0
  31              		@ frame_needed = 0, uses_anonymous_args = 0
  32 0000 1046     		mov	r0, r2
  33 0002 4FF0000C 		mov	ip, #0
  34 0006 9445     		cmp	ip, r2
  35 0008 10DA     		bge	.L8
  36 000a 00B5     		push	{lr}
  37              	.L3:
  38 000c 084B     		ldr	r3, .L9
  39 000e 1B88     		ldrh	r3, [r3]
  40 0010 13F0400F 		tst	r3, #64
  41 0014 FAD0     		beq	.L3
  42 0016 11F80CE0 		ldrb	lr, [r1, ip]	@ zero_extendqisi2
  43 001a 054B     		ldr	r3, .L9
  44 001c A3F804E0 		strh	lr, [r3, #4]	@ movhi
  45 0020 0CF1010C 		add	ip, ip, #1
  46 0024 8445     		cmp	ip, r0
  47 0026 F1DB     		blt	.L3
  48 0028 5DF804FB 		ldr	pc, [sp], #4
  49              	.L8:
  50 002c 7047     		bx	lr
  51              	.L10:
  52 002e 00BF     		.align	2
  53              	.L9:
  54 0030 00100140 		.word	1073811456
  56              		.section	.text.usart1_init,"ax",%progbits
  57              		.align	1
  58              		.global	usart1_init
  59              		.syntax unified
ARM GAS  C:\Users\ktkuru\AppData\Local\Temp\ccMi82ZC.s 			page 2


  60              		.thumb
  61              		.thumb_func
  63              	usart1_init:
  64              		@ args = 0, pretend = 0, frame = 24
  65              		@ frame_needed = 0, uses_anonymous_args = 0
  66 0000 F0B5     		push	{r4, r5, r6, r7, lr}
  67 0002 87B0     		sub	sp, sp, #28
  68 0004 0646     		mov	r6, r0
  69 0006 0121     		movs	r1, #1
  70 0008 0846     		mov	r0, r1
  71 000a FFF7FEFF 		bl	RCC_AHB1PeriphClockCmd
  72 000e 0121     		movs	r1, #1
  73 0010 1020     		movs	r0, #16
  74 0012 FFF7FEFF 		bl	RCC_APB2PeriphClockCmd
  75 0016 1E4F     		ldr	r7, .L13
  76 0018 0722     		movs	r2, #7
  77 001a 0921     		movs	r1, #9
  78 001c 3846     		mov	r0, r7
  79 001e FFF7FEFF 		bl	GPIO_PinAFConfig
  80 0022 0722     		movs	r2, #7
  81 0024 0A21     		movs	r1, #10
  82 0026 3846     		mov	r0, r7
  83 0028 FFF7FEFF 		bl	GPIO_PinAFConfig
  84 002c 4FF4C063 		mov	r3, #1536
  85 0030 0493     		str	r3, [sp, #16]
  86 0032 0223     		movs	r3, #2
  87 0034 8DF81430 		strb	r3, [sp, #20]
  88 0038 8DF81530 		strb	r3, [sp, #21]
  89 003c 0024     		movs	r4, #0
  90 003e 8DF81640 		strb	r4, [sp, #22]
  91 0042 0125     		movs	r5, #1
  92 0044 8DF81750 		strb	r5, [sp, #23]
  93 0048 04A9     		add	r1, sp, #16
  94 004a 3846     		mov	r0, r7
  95 004c FFF7FEFF 		bl	GPIO_Init
  96 0050 0096     		str	r6, [sp]
  97 0052 ADF80440 		strh	r4, [sp, #4]	@ movhi
  98 0056 ADF80640 		strh	r4, [sp, #6]	@ movhi
  99 005a ADF80840 		strh	r4, [sp, #8]	@ movhi
 100 005e ADF80C40 		strh	r4, [sp, #12]	@ movhi
 101 0062 0C23     		movs	r3, #12
 102 0064 ADF80A30 		strh	r3, [sp, #10]	@ movhi
 103 0068 04F18044 		add	r4, r4, #1073741824
 104 006c 04F58834 		add	r4, r4, #69632
 105 0070 6946     		mov	r1, sp
 106 0072 2046     		mov	r0, r4
 107 0074 FFF7FEFF 		bl	USART_Init
 108 0078 2946     		mov	r1, r5
 109 007a 2046     		mov	r0, r4
 110 007c FFF7FEFF 		bl	USART_Cmd
 111 0080 2A46     		mov	r2, r5
 112 0082 40F22551 		movw	r1, #1317
 113 0086 2046     		mov	r0, r4
 114 0088 FFF7FEFF 		bl	USART_ITConfig
 115 008c 07B0     		add	sp, sp, #28
 116              		@ sp needed
 117 008e F0BD     		pop	{r4, r5, r6, r7, pc}
ARM GAS  C:\Users\ktkuru\AppData\Local\Temp\ccMi82ZC.s 			page 3


 118              	.L14:
 119              		.align	2
 120              	.L13:
 121 0090 00000240 		.word	1073872896
 123              		.section	.text.usart2_init,"ax",%progbits
 124              		.align	1
 125              		.global	usart2_init
 126              		.syntax unified
 127              		.thumb
 128              		.thumb_func
 130              	usart2_init:
 131              		@ args = 0, pretend = 0, frame = 16
 132              		@ frame_needed = 0, uses_anonymous_args = 0
 133 0000 30B5     		push	{r4, r5, lr}
 134 0002 85B0     		sub	sp, sp, #20
 135 0004 0446     		mov	r4, r0
 136 0006 0121     		movs	r1, #1
 137 0008 0846     		mov	r0, r1
 138 000a FFF7FEFF 		bl	RCC_AHB1PeriphClockCmd
 139 000e 0121     		movs	r1, #1
 140 0010 4FF40030 		mov	r0, #131072
 141 0014 FFF7FEFF 		bl	RCC_APB1PeriphClockCmd
 142 0018 174D     		ldr	r5, .L17
 143 001a 0722     		movs	r2, #7
 144 001c 0221     		movs	r1, #2
 145 001e 2846     		mov	r0, r5
 146 0020 FFF7FEFF 		bl	GPIO_PinAFConfig
 147 0024 0722     		movs	r2, #7
 148 0026 0321     		movs	r1, #3
 149 0028 2846     		mov	r0, r5
 150 002a FFF7FEFF 		bl	GPIO_PinAFConfig
 151 002e 0123     		movs	r3, #1
 152 0030 0222     		movs	r2, #2
 153 0032 0C21     		movs	r1, #12
 154 0034 2846     		mov	r0, r5
 155 0036 FFF7FEFF 		bl	GPIO_Config
 156 003a 0094     		str	r4, [sp]
 157 003c 0023     		movs	r3, #0
 158 003e ADF80430 		strh	r3, [sp, #4]	@ movhi
 159 0042 ADF80630 		strh	r3, [sp, #6]	@ movhi
 160 0046 ADF80830 		strh	r3, [sp, #8]	@ movhi
 161 004a ADF80C30 		strh	r3, [sp, #12]	@ movhi
 162 004e 0C23     		movs	r3, #12
 163 0050 ADF80A30 		strh	r3, [sp, #10]	@ movhi
 164 0054 094C     		ldr	r4, .L17+4
 165 0056 6946     		mov	r1, sp
 166 0058 2046     		mov	r0, r4
 167 005a FFF7FEFF 		bl	USART_Init
 168 005e 0121     		movs	r1, #1
 169 0060 2046     		mov	r0, r4
 170 0062 FFF7FEFF 		bl	USART_Cmd
 171 0066 0122     		movs	r2, #1
 172 0068 40F22551 		movw	r1, #1317
 173 006c 2046     		mov	r0, r4
 174 006e FFF7FEFF 		bl	USART_ITConfig
 175 0072 05B0     		add	sp, sp, #20
 176              		@ sp needed
ARM GAS  C:\Users\ktkuru\AppData\Local\Temp\ccMi82ZC.s 			page 4


 177 0074 30BD     		pop	{r4, r5, pc}
 178              	.L18:
 179 0076 00BF     		.align	2
 180              	.L17:
 181 0078 00000240 		.word	1073872896
 182 007c 00440040 		.word	1073759232
 184              		.section	.text.USART1_IRQHandler,"ax",%progbits
 185              		.align	1
 186              		.global	USART1_IRQHandler
 187              		.syntax unified
 188              		.thumb
 189              		.thumb_func
 191              	USART1_IRQHandler:
 192              		@ args = 0, pretend = 0, frame = 0
 193              		@ frame_needed = 0, uses_anonymous_args = 0
 194 0000 08B5     		push	{r3, lr}
 195 0002 40F22551 		movw	r1, #1317
 196 0006 1A48     		ldr	r0, .L27
 197 0008 FFF7FEFF 		bl	USART_GetITStatus
 198 000c 00B9     		cbnz	r0, .L25
 199              	.L19:
 200 000e 08BD     		pop	{r3, pc}
 201              	.L25:
 202 0010 1748     		ldr	r0, .L27
 203 0012 FFF7FEFF 		bl	USART_ReceiveData
 204 0016 C0B2     		uxtb	r0, r0
 205 0018 164A     		ldr	r2, .L27+4
 206 001a 1388     		ldrh	r3, [r2]
 207 001c B2F90020 		ldrsh	r2, [r2]
 208 0020 002A     		cmp	r2, #0
 209 0022 F4DB     		blt	.L19
 210 0024 13F4804F 		tst	r3, #16384
 211 0028 0CD0     		beq	.L21
 212 002a 0A28     		cmp	r0, #10
 213 002c 03D0     		beq	.L22
 214 002e 114B     		ldr	r3, .L27+4
 215 0030 0022     		movs	r2, #0
 216 0032 1A80     		strh	r2, [r3]	@ movhi
 217 0034 EBE7     		b	.L19
 218              	.L22:
 219 0036 6FEA4343 		mvn	r3, r3, lsl #17
 220 003a 6FEA5343 		mvn	r3, r3, lsr #17
 221 003e 0D4A     		ldr	r2, .L27+4
 222 0040 1380     		strh	r3, [r2]	@ movhi
 223 0042 E4E7     		b	.L19
 224              	.L21:
 225 0044 0D28     		cmp	r0, #13
 226 0046 0DD0     		beq	.L26
 227 0048 C3F30D02 		ubfx	r2, r3, #0, #14
 228 004c 0A49     		ldr	r1, .L27+8
 229 004e 8854     		strb	r0, [r1, r2]
 230 0050 0133     		adds	r3, r3, #1
 231 0052 9BB2     		uxth	r3, r3
 232 0054 074A     		ldr	r2, .L27+4
 233 0056 1380     		strh	r3, [r2]	@ movhi
 234 0058 C72B     		cmp	r3, #199
 235 005a D8D9     		bls	.L19
ARM GAS  C:\Users\ktkuru\AppData\Local\Temp\ccMi82ZC.s 			page 5


 236 005c 1346     		mov	r3, r2
 237 005e 0022     		movs	r2, #0
 238 0060 1A80     		strh	r2, [r3]	@ movhi
 239 0062 D4E7     		b	.L19
 240              	.L26:
 241 0064 43F48043 		orr	r3, r3, #16384
 242 0068 024A     		ldr	r2, .L27+4
 243 006a 1380     		strh	r3, [r2]	@ movhi
 244 006c CFE7     		b	.L19
 245              	.L28:
 246 006e 00BF     		.align	2
 247              	.L27:
 248 0070 00100140 		.word	1073811456
 249 0074 00000000 		.word	USART_RX_STA
 250 0078 00000000 		.word	USART_RX_BUF
 252              		.section	.text.USART_Send_Data,"ax",%progbits
 253              		.align	1
 254              		.global	USART_Send_Data
 255              		.syntax unified
 256              		.thumb
 257              		.thumb_func
 259              	USART_Send_Data:
 260              		@ args = 0, pretend = 0, frame = 0
 261              		@ frame_needed = 0, uses_anonymous_args = 0
 262 0000 10B5     		push	{r4, lr}
 263 0002 0446     		mov	r4, r0
 264 0004 FFF7FEFF 		bl	USART_SendData
 265              	.L30:
 266 0008 4021     		movs	r1, #64
 267 000a 2046     		mov	r0, r4
 268 000c FFF7FEFF 		bl	USART_GetFlagStatus
 269 0010 0128     		cmp	r0, #1
 270 0012 F9D1     		bne	.L30
 271 0014 10BD     		pop	{r4, pc}
 273              		.section	.text.USART_Send_String,"ax",%progbits
 274              		.align	1
 275              		.global	USART_Send_String
 276              		.syntax unified
 277              		.thumb
 278              		.thumb_func
 280              	USART_Send_String:
 281              		@ args = 0, pretend = 0, frame = 0
 282              		@ frame_needed = 0, uses_anonymous_args = 0
 283 0000 F8B5     		push	{r3, r4, r5, r6, r7, lr}
 284 0002 0746     		mov	r7, r0
 285 0004 0C46     		mov	r4, r1
 286 0006 0846     		mov	r0, r1
 287 0008 FFF7FEFF 		bl	strlen
 288 000c 86B2     		uxth	r6, r0
 289 000e 0025     		movs	r5, #0
 290 0010 06E0     		b	.L33
 291              	.L34:
 292 0012 14F8011B 		ldrb	r1, [r4], #1	@ zero_extendqisi2
 293 0016 3846     		mov	r0, r7
 294 0018 FFF7FEFF 		bl	USART_Send_Data
 295 001c 0135     		adds	r5, r5, #1
 296 001e ADB2     		uxth	r5, r5
ARM GAS  C:\Users\ktkuru\AppData\Local\Temp\ccMi82ZC.s 			page 6


 297              	.L33:
 298 0020 B542     		cmp	r5, r6
 299 0022 F6D3     		bcc	.L34
 300 0024 F8BD     		pop	{r3, r4, r5, r6, r7, pc}
 302              		.section	.text.U2printf,"ax",%progbits
 303              		.align	1
 304              		.global	U2printf
 305              		.syntax unified
 306              		.thumb
 307              		.thumb_func
 309              	U2printf:
 310              		@ args = 4, pretend = 16, frame = 264
 311              		@ frame_needed = 0, uses_anonymous_args = 1
 312 0000 0FB4     		push	{r0, r1, r2, r3}
 313 0002 00B5     		push	{lr}
 314 0004 C3B0     		sub	sp, sp, #268
 315 0006 44AA     		add	r2, sp, #272
 316 0008 52F8041B 		ldr	r1, [r2], #4
 317 000c 0192     		str	r2, [sp, #4]
 318 000e 02A8     		add	r0, sp, #8
 319 0010 FFF7FEFF 		bl	vsprintf
 320 0014 02A9     		add	r1, sp, #8
 321 0016 0448     		ldr	r0, .L38
 322 0018 FFF7FEFF 		bl	USART_Send_String
 323 001c 43B0     		add	sp, sp, #268
 324              		@ sp needed
 325 001e 5DF804EB 		ldr	lr, [sp], #4
 326 0022 04B0     		add	sp, sp, #16
 327 0024 7047     		bx	lr
 328              	.L39:
 329 0026 00BF     		.align	2
 330              	.L38:
 331 0028 00440040 		.word	1073759232
 333              		.global	__aeabi_f2d
 334              		.global	__aeabi_dadd
 335              		.global	__aeabi_d2f
 336              		.section	.rodata.USART2_IRQHandler.str1.4,"aMS",%progbits,1
 337              		.align	2
 338              	.LC0:
 339 0000 54617267 		.ascii	"Target_dis:%f\012\000"
 339      65745F64 
 339      69733A25 
 339      660A00
 340              		.global	__aeabi_dsub
 341              		.section	.text.USART2_IRQHandler,"ax",%progbits
 342              		.align	1
 343              		.global	USART2_IRQHandler
 344              		.syntax unified
 345              		.thumb
 346              		.thumb_func
 348              	USART2_IRQHandler:
 349              		@ args = 0, pretend = 0, frame = 0
 350              		@ frame_needed = 0, uses_anonymous_args = 0
 351 0000 10B5     		push	{r4, lr}
 352 0002 40F22551 		movw	r1, #1317
 353 0006 2048     		ldr	r0, .L47+8
 354 0008 FFF7FEFF 		bl	USART_GetITStatus
ARM GAS  C:\Users\ktkuru\AppData\Local\Temp\ccMi82ZC.s 			page 7


 355 000c 00B9     		cbnz	r0, .L46
 356              	.L40:
 357 000e 10BD     		pop	{r4, pc}
 358              	.L46:
 359 0010 1D48     		ldr	r0, .L47+8
 360 0012 FFF7FEFF 		bl	USART_ReceiveData
 361 0016 1D4B     		ldr	r3, .L47+12
 362 0018 1880     		strh	r0, [r3]	@ movhi
 363 001a 6128     		cmp	r0, #97
 364 001c 15D0     		beq	.L42
 365 001e 6228     		cmp	r0, #98
 366 0020 26D1     		bne	.L44
 367 0022 1B4C     		ldr	r4, .L47+16
 368 0024 2068     		ldr	r0, [r4]	@ float
 369 0026 FFF7FEFF 		bl	__aeabi_f2d
 370 002a 15A3     		adr	r3, .L47
 371 002c D3E90023 		ldrd	r2, [r3]
 372 0030 FFF7FEFF 		bl	__aeabi_dsub
 373 0034 FFF7FEFF 		bl	__aeabi_d2f
 374 0038 2060     		str	r0, [r4]	@ float
 375 003a FFF7FEFF 		bl	__aeabi_f2d
 376 003e 0246     		mov	r2, r0
 377 0040 0B46     		mov	r3, r1
 378 0042 1448     		ldr	r0, .L47+20
 379 0044 FFF7FEFF 		bl	U2printf
 380 0048 12E0     		b	.L44
 381              	.L42:
 382 004a 114C     		ldr	r4, .L47+16
 383 004c 2068     		ldr	r0, [r4]	@ float
 384 004e FFF7FEFF 		bl	__aeabi_f2d
 385 0052 0BA3     		adr	r3, .L47
 386 0054 D3E90023 		ldrd	r2, [r3]
 387 0058 FFF7FEFF 		bl	__aeabi_dadd
 388 005c FFF7FEFF 		bl	__aeabi_d2f
 389 0060 2060     		str	r0, [r4]	@ float
 390 0062 FFF7FEFF 		bl	__aeabi_f2d
 391 0066 0246     		mov	r2, r0
 392 0068 0B46     		mov	r3, r1
 393 006a 0A48     		ldr	r0, .L47+20
 394 006c FFF7FEFF 		bl	U2printf
 395              	.L44:
 396 0070 40F22551 		movw	r1, #1317
 397 0074 0448     		ldr	r0, .L47+8
 398 0076 FFF7FEFF 		bl	USART_ClearITPendingBit
 399 007a C8E7     		b	.L40
 400              	.L48:
 401 007c AFF30080 		.align	3
 402              	.L47:
 403 0080 7B14AE47 		.word	1202590843
 404 0084 E17A843F 		.word	1065646817
 405 0088 00440040 		.word	1073759232
 406 008c 00000000 		.word	Res.0
 407 0090 00000000 		.word	Target_dis
 408 0094 00000000 		.word	.LC0
 410              		.section	.text.SendTo429,"ax",%progbits
 411              		.align	1
 412              		.global	SendTo429
ARM GAS  C:\Users\ktkuru\AppData\Local\Temp\ccMi82ZC.s 			page 8


 413              		.syntax unified
 414              		.thumb
 415              		.thumb_func
 417              	SendTo429:
 418              		@ args = 0, pretend = 0, frame = 8
 419              		@ frame_needed = 0, uses_anonymous_args = 0
 420 0000 10B5     		push	{r4, lr}
 421 0002 82B0     		sub	sp, sp, #8
 422 0004 0190     		str	r0, [sp, #4]
 423 0006 074C     		ldr	r4, .L51
 424 0008 0121     		movs	r1, #1
 425 000a 2046     		mov	r0, r4
 426 000c FFF7FEFF 		bl	USART_Send_Data
 427 0010 01A9     		add	r1, sp, #4
 428 0012 2046     		mov	r0, r4
 429 0014 FFF7FEFF 		bl	USART_Send_String
 430 0018 0221     		movs	r1, #2
 431 001a 2046     		mov	r0, r4
 432 001c FFF7FEFF 		bl	USART_Send_Data
 433 0020 02B0     		add	sp, sp, #8
 434              		@ sp needed
 435 0022 10BD     		pop	{r4, pc}
 436              	.L52:
 437              		.align	2
 438              	.L51:
 439 0024 00100140 		.word	1073811456
 441              		.section	.bss.Res.0,"aw",%nobits
 442              		.align	1
 445              	Res.0:
 446 0000 0000     		.space	2
 447              		.global	USART_RX_STA
 448              		.section	.bss.USART_RX_STA,"aw",%nobits
 449              		.align	1
 452              	USART_RX_STA:
 453 0000 0000     		.space	2
 454              		.global	USART_RX_BUF
 455              		.section	.bss.USART_RX_BUF,"aw",%nobits
 456              		.align	2
 459              	USART_RX_BUF:
 460 0000 00000000 		.space	200
 460      00000000 
 460      00000000 
 460      00000000 
 460      00000000 
 461              		.global	Stop_flag
 462              		.section	.bss.Stop_flag,"aw",%nobits
 465              	Stop_flag:
 466 0000 00       		.space	1
 467              		.ident	"GCC: (Arm GNU Toolchain 13.3.Rel1 (Build arm-13.24)) 13.3.1 20240614"
ARM GAS  C:\Users\ktkuru\AppData\Local\Temp\ccMi82ZC.s 			page 9


DEFINED SYMBOLS
                            *ABS*:00000000 usart.c
C:\Users\ktkuru\AppData\Local\Temp\ccMi82ZC.s:23     .text._write:00000000 $t
C:\Users\ktkuru\AppData\Local\Temp\ccMi82ZC.s:29     .text._write:00000000 _write
C:\Users\ktkuru\AppData\Local\Temp\ccMi82ZC.s:54     .text._write:00000030 $d
C:\Users\ktkuru\AppData\Local\Temp\ccMi82ZC.s:57     .text.usart1_init:00000000 $t
C:\Users\ktkuru\AppData\Local\Temp\ccMi82ZC.s:63     .text.usart1_init:00000000 usart1_init
C:\Users\ktkuru\AppData\Local\Temp\ccMi82ZC.s:121    .text.usart1_init:00000090 $d
C:\Users\ktkuru\AppData\Local\Temp\ccMi82ZC.s:124    .text.usart2_init:00000000 $t
C:\Users\ktkuru\AppData\Local\Temp\ccMi82ZC.s:130    .text.usart2_init:00000000 usart2_init
C:\Users\ktkuru\AppData\Local\Temp\ccMi82ZC.s:181    .text.usart2_init:00000078 $d
C:\Users\ktkuru\AppData\Local\Temp\ccMi82ZC.s:185    .text.USART1_IRQHandler:00000000 $t
C:\Users\ktkuru\AppData\Local\Temp\ccMi82ZC.s:191    .text.USART1_IRQHandler:00000000 USART1_IRQHandler
C:\Users\ktkuru\AppData\Local\Temp\ccMi82ZC.s:248    .text.USART1_IRQHandler:00000070 $d
C:\Users\ktkuru\AppData\Local\Temp\ccMi82ZC.s:452    .bss.USART_RX_STA:00000000 USART_RX_STA
C:\Users\ktkuru\AppData\Local\Temp\ccMi82ZC.s:459    .bss.USART_RX_BUF:00000000 USART_RX_BUF
C:\Users\ktkuru\AppData\Local\Temp\ccMi82ZC.s:253    .text.USART_Send_Data:00000000 $t
C:\Users\ktkuru\AppData\Local\Temp\ccMi82ZC.s:259    .text.USART_Send_Data:00000000 USART_Send_Data
C:\Users\ktkuru\AppData\Local\Temp\ccMi82ZC.s:274    .text.USART_Send_String:00000000 $t
C:\Users\ktkuru\AppData\Local\Temp\ccMi82ZC.s:280    .text.USART_Send_String:00000000 USART_Send_String
C:\Users\ktkuru\AppData\Local\Temp\ccMi82ZC.s:303    .text.U2printf:00000000 $t
C:\Users\ktkuru\AppData\Local\Temp\ccMi82ZC.s:309    .text.U2printf:00000000 U2printf
C:\Users\ktkuru\AppData\Local\Temp\ccMi82ZC.s:331    .text.U2printf:00000028 $d
C:\Users\ktkuru\AppData\Local\Temp\ccMi82ZC.s:337    .rodata.USART2_IRQHandler.str1.4:00000000 $d
C:\Users\ktkuru\AppData\Local\Temp\ccMi82ZC.s:342    .text.USART2_IRQHandler:00000000 $t
C:\Users\ktkuru\AppData\Local\Temp\ccMi82ZC.s:348    .text.USART2_IRQHandler:00000000 USART2_IRQHandler
C:\Users\ktkuru\AppData\Local\Temp\ccMi82ZC.s:403    .text.USART2_IRQHandler:00000080 $d
C:\Users\ktkuru\AppData\Local\Temp\ccMi82ZC.s:445    .bss.Res.0:00000000 Res.0
C:\Users\ktkuru\AppData\Local\Temp\ccMi82ZC.s:411    .text.SendTo429:00000000 $t
C:\Users\ktkuru\AppData\Local\Temp\ccMi82ZC.s:417    .text.SendTo429:00000000 SendTo429
C:\Users\ktkuru\AppData\Local\Temp\ccMi82ZC.s:439    .text.SendTo429:00000024 $d
C:\Users\ktkuru\AppData\Local\Temp\ccMi82ZC.s:442    .bss.Res.0:00000000 $d
C:\Users\ktkuru\AppData\Local\Temp\ccMi82ZC.s:449    .bss.USART_RX_STA:00000000 $d
C:\Users\ktkuru\AppData\Local\Temp\ccMi82ZC.s:456    .bss.USART_RX_BUF:00000000 $d
C:\Users\ktkuru\AppData\Local\Temp\ccMi82ZC.s:465    .bss.Stop_flag:00000000 Stop_flag
C:\Users\ktkuru\AppData\Local\Temp\ccMi82ZC.s:466    .bss.Stop_flag:00000000 $d

UNDEFINED SYMBOLS
__use_no_semihosting
RCC_AHB1PeriphClockCmd
RCC_APB2PeriphClockCmd
GPIO_PinAFConfig
GPIO_Init
USART_Init
USART_Cmd
USART_ITConfig
RCC_APB1PeriphClockCmd
GPIO_Config
USART_GetITStatus
USART_ReceiveData
USART_SendData
USART_GetFlagStatus
strlen
vsprintf
__aeabi_f2d
__aeabi_dadd
__aeabi_d2f
ARM GAS  C:\Users\ktkuru\AppData\Local\Temp\ccMi82ZC.s 			page 10


__aeabi_dsub
USART_ClearITPendingBit
Target_dis
